
obj/coremark/main.elf:     file format elf32-tradlittlemips
obj/coremark/main.elf


Disassembly of section .text:

80000000 <_ftext>:
_ftext():
80000000:	3c0a0040 	lui	t2,0x40
80000004:	408a6000 	mtc0	t2,c0_sr
80000008:	40806800 	mtc0	zero,c0_cause
8000000c:	3c1d8011 	lui	sp,0x8011
80000010:	27bdcfe0 	addiu	sp,sp,-12320
80000014:	3c1c8001 	lui	gp,0x8001
80000018:	279c5000 	addiu	gp,gp,20480
8000001c:	041100dc 	bal	80000390 <shell>
80000020:	00000000 	nop

80000024 <loop>:
loop():
80000024:	3c08bfd0 	lui	t0,0xbfd0
80000028:	8d090500 	lw	t1,1280(t0)
8000002c:	3c0a8000 	lui	t2,0x8000
80000030:	ad490000 	sw	t1,0(t2)
80000034:	08000009 	j	80000024 <loop>
80000038:	00000000 	nop

8000003c <exit>:
exit():
8000003c:	340900ff 	li	t1,0xff
80000040:	3c018000 	lui	at,0x8000
80000044:	a0297ffc 	sb	t1,32764(at)
	...
80000380:	0c002e22 	jal	8000b888 <exception>
80000384:	00000000 	nop
80000388:	0800000f 	j	8000003c <exit>
8000038c:	00000000 	nop

80000390 <shell>:
shell():
80000390:	27bdffc8 	addiu	sp,sp,-56
80000394:	afbf0034 	sw	ra,52(sp)
80000398:	afb40030 	sw	s4,48(sp)
8000039c:	afb3002c 	sw	s3,44(sp)
800003a0:	afb20028 	sw	s2,40(sp)
800003a4:	afb10024 	sw	s1,36(sp)
800003a8:	afb00020 	sw	s0,32(sp)
800003ac:	0c002dc8 	jal	8000b720 <get_count>
800003b0:	00000000 	nop
800003b4:	00408025 	move	s0,v0
800003b8:	0c002e0d 	jal	8000b834 <get_inst>
800003bc:	00000000 	nop
800003c0:	00409825 	move	s3,v0
800003c4:	0c002e09 	jal	8000b824 <get_us>
800003c8:	00000000 	nop
800003cc:	24040007 	li	a0,7
800003d0:	24030001 	li	v1,1
800003d4:	00409025 	move	s2,v0
800003d8:	240207d0 	li	v0,2000
800003dc:	afa40010 	sw	a0,16(sp)
800003e0:	24070001 	li	a3,1
800003e4:	afa30014 	sw	v1,20(sp)
800003e8:	24060066 	li	a2,102
800003ec:	00002825 	move	a1,zero
800003f0:	afa20018 	sw	v0,24(sp)
800003f4:	00002025 	move	a0,zero
800003f8:	0c000190 	jal	80000640 <core_mark>
800003fc:	00000000 	nop
80000400:	0c002dc8 	jal	8000b720 <get_count>
80000404:	00000000 	nop
80000408:	00408825 	move	s1,v0
8000040c:	0c002e0d 	jal	8000b834 <get_inst>
80000410:	00000000 	nop
80000414:	0040a025 	move	s4,v0
80000418:	0c002e09 	jal	8000b824 <get_us>
8000041c:	00000000 	nop
80000420:	3c088001 	lui	t0,0x8001
80000424:	8fbf0034 	lw	ra,52(sp)
80000428:	02933823 	subu	a3,s4,s3
8000042c:	8fb40030 	lw	s4,48(sp)
80000430:	02302823 	subu	a1,s1,s0
80000434:	8fb3002c 	lw	s3,44(sp)
80000438:	8fb10024 	lw	s1,36(sp)
8000043c:	00523023 	subu	a2,v0,s2
80000440:	8fb00020 	lw	s0,32(sp)
80000444:	2504ba10 	addiu	a0,t0,-17904
80000448:	8fb20028 	lw	s2,40(sp)
8000044c:	27bd0038 	addiu	sp,sp,56
80000450:	08002d0e 	j	8000b438 <printf>
80000454:	00000000 	nop
	...

80000460 <iterate>:
iterate():
80000460:	27bdffd8 	addiu	sp,sp,-40
80000464:	afb30020 	sw	s3,32(sp)
80000468:	afbf0024 	sw	ra,36(sp)
8000046c:	afb2001c 	sw	s2,28(sp)
80000470:	afb10018 	sw	s1,24(sp)
80000474:	afb00014 	sw	s0,20(sp)
80000478:	a4800038 	sh	zero,56(a0)
8000047c:	a480003a 	sh	zero,58(a0)
80000480:	a480003c 	sh	zero,60(a0)
80000484:	a480003e 	sh	zero,62(a0)
80000488:	8c93001c 	lw	s3,28(a0)
8000048c:	00000000 	nop
80000490:	1260005c 	beqz	s3,80000604 <iterate+0x1a4>
80000494:	00000000 	nop
80000498:	00808025 	move	s0,a0
8000049c:	24050001 	li	a1,1
800004a0:	2662ffff 	addiu	v0,s3,-1
800004a4:	24110001 	li	s1,1
800004a8:	30520001 	andi	s2,v0,0x1
800004ac:	0c002570 	jal	800095c0 <core_bench_list>
800004b0:	00000000 	nop
800004b4:	96050038 	lhu	a1,56(s0)
800004b8:	00402025 	move	a0,v0
800004bc:	0c001920 	jal	80006480 <crcu16>
800004c0:	00000000 	nop
800004c4:	2405ffff 	li	a1,-1
800004c8:	02002025 	move	a0,s0
800004cc:	a6020038 	sh	v0,56(s0)
800004d0:	0c002570 	jal	800095c0 <core_bench_list>
800004d4:	00000000 	nop
800004d8:	96050038 	lhu	a1,56(s0)
800004dc:	00402025 	move	a0,v0
800004e0:	0c001920 	jal	80006480 <crcu16>
800004e4:	00000000 	nop
800004e8:	a6020038 	sh	v0,56(s0)
800004ec:	a602003a 	sh	v0,58(s0)
800004f0:	12710044 	beq	s3,s1,80000604 <iterate+0x1a4>
800004f4:	00000000 	nop
800004f8:	12400016 	beqz	s2,80000554 <iterate+0xf4>
800004fc:	00000000 	nop
80000500:	24050001 	li	a1,1
80000504:	02002025 	move	a0,s0
80000508:	0c002570 	jal	800095c0 <core_bench_list>
8000050c:	00000000 	nop
80000510:	26310001 	addiu	s1,s1,1
80000514:	96050038 	lhu	a1,56(s0)
80000518:	00402025 	move	a0,v0
8000051c:	0c001920 	jal	80006480 <crcu16>
80000520:	00000000 	nop
80000524:	2405ffff 	li	a1,-1
80000528:	02002025 	move	a0,s0
8000052c:	a6020038 	sh	v0,56(s0)
80000530:	0c002570 	jal	800095c0 <core_bench_list>
80000534:	00000000 	nop
80000538:	96050038 	lhu	a1,56(s0)
8000053c:	00402025 	move	a0,v0
80000540:	0c001920 	jal	80006480 <crcu16>
80000544:	00000000 	nop
80000548:	a6020038 	sh	v0,56(s0)
8000054c:	1271002d 	beq	s3,s1,80000604 <iterate+0x1a4>
80000550:	00000000 	nop
80000554:	24050001 	li	a1,1
80000558:	02002025 	move	a0,s0
8000055c:	0c002570 	jal	800095c0 <core_bench_list>
80000560:	00000000 	nop
80000564:	26320001 	addiu	s2,s1,1
80000568:	96050038 	lhu	a1,56(s0)
8000056c:	00402025 	move	a0,v0
80000570:	0c001920 	jal	80006480 <crcu16>
80000574:	00000000 	nop
80000578:	2405ffff 	li	a1,-1
8000057c:	02002025 	move	a0,s0
80000580:	a6020038 	sh	v0,56(s0)
80000584:	0c002570 	jal	800095c0 <core_bench_list>
80000588:	00000000 	nop
8000058c:	96050038 	lhu	a1,56(s0)
80000590:	00402025 	move	a0,v0
80000594:	0c001920 	jal	80006480 <crcu16>
80000598:	00000000 	nop
8000059c:	24050001 	li	a1,1
800005a0:	02002025 	move	a0,s0
800005a4:	a6020038 	sh	v0,56(s0)
800005a8:	1220001f 	beqz	s1,80000628 <iterate+0x1c8>
800005ac:	00000000 	nop
800005b0:	0c002570 	jal	800095c0 <core_bench_list>
800005b4:	00000000 	nop
800005b8:	96050038 	lhu	a1,56(s0)
800005bc:	00402025 	move	a0,v0
800005c0:	0c001920 	jal	80006480 <crcu16>
800005c4:	00000000 	nop
800005c8:	2405ffff 	li	a1,-1
800005cc:	02002025 	move	a0,s0
800005d0:	a6020038 	sh	v0,56(s0)
800005d4:	0c002570 	jal	800095c0 <core_bench_list>
800005d8:	00000000 	nop
800005dc:	96050038 	lhu	a1,56(s0)
800005e0:	00402025 	move	a0,v0
800005e4:	0c001920 	jal	80006480 <crcu16>
800005e8:	00000000 	nop
800005ec:	a6020038 	sh	v0,56(s0)
800005f0:	12400010 	beqz	s2,80000634 <iterate+0x1d4>
800005f4:	00000000 	nop
800005f8:	26510001 	addiu	s1,s2,1
800005fc:	1671ffd5 	bne	s3,s1,80000554 <iterate+0xf4>
80000600:	00000000 	nop
80000604:	8fbf0024 	lw	ra,36(sp)
80000608:	00001025 	move	v0,zero
8000060c:	8fb30020 	lw	s3,32(sp)
80000610:	8fb2001c 	lw	s2,28(sp)
80000614:	8fb10018 	lw	s1,24(sp)
80000618:	8fb00014 	lw	s0,20(sp)
8000061c:	27bd0028 	addiu	sp,sp,40
80000620:	03e00008 	jr	ra
80000624:	00000000 	nop
80000628:	a602003a 	sh	v0,58(s0)
8000062c:	1000ffe0 	b	800005b0 <iterate+0x150>
80000630:	00000000 	nop
80000634:	a602003a 	sh	v0,58(s0)
80000638:	1000ffef 	b	800005f8 <iterate+0x198>
8000063c:	00000000 	nop

80000640 <core_mark>:
core_mark():
80000640:	27bdf780 	addiu	sp,sp,-2176
80000644:	afb1085c 	sw	s1,2140(sp)
80000648:	afb40868 	sw	s4,2152(sp)
8000064c:	0080a025 	move	s4,a0
80000650:	afb30864 	sw	s3,2148(sp)
80000654:	3c048001 	lui	a0,0x8001
80000658:	afb20860 	sw	s2,2144(sp)
8000065c:	00a09825 	move	s3,a1
80000660:	afb00858 	sw	s0,2136(sp)
80000664:	2484ba34 	addiu	a0,a0,-17868
80000668:	afa70010 	sw	a3,16(sp)
8000066c:	00e09025 	move	s2,a3
80000670:	8fb10890 	lw	s1,2192(sp)
80000674:	00c03825 	move	a3,a2
80000678:	8fa20894 	lw	v0,2196(sp)
8000067c:	00c08025 	move	s0,a2
80000680:	8fa30898 	lw	v1,2200(sp)
80000684:	00a03025 	move	a2,a1
80000688:	02802825 	move	a1,s4
8000068c:	afbf087c 	sw	ra,2172(sp)
80000690:	afb10014 	sw	s1,20(sp)
80000694:	afa20018 	sw	v0,24(sp)
80000698:	afa3001c 	sw	v1,28(sp)
8000069c:	afbe0878 	sw	s8,2168(sp)
800006a0:	afb70874 	sw	s7,2164(sp)
800006a4:	afb60870 	sw	s6,2160(sp)
800006a8:	afb5086c 	sw	s5,2156(sp)
800006ac:	0c002d0e 	jal	8000b438 <printf>
800006b0:	00000000 	nop
800006b4:	00143400 	sll	a2,s4,0x10
800006b8:	00102c00 	sll	a1,s0,0x10
800006bc:	a7b307f2 	sh	s3,2034(sp)
800006c0:	00063403 	sra	a2,a2,0x10
800006c4:	afb2080c 	sw	s2,2060(sp)
800006c8:	00053c03 	sra	a3,a1,0x10
800006cc:	a7a607f0 	sh	a2,2032(sp)
800006d0:	00e04025 	move	t0,a3
800006d4:	12200182 	beqz	s1,80000ce0 <core_mark+0x6a0>
800006d8:	00000000 	nop
800006dc:	8fab07f0 	lw	t3,2032(sp)
800006e0:	322a0001 	andi	t2,s1,0x1
800006e4:	afb10810 	sw	s1,2064(sp)
800006e8:	02202825 	move	a1,s1
800006ec:	15600183 	bnez	t3,80000cfc <core_mark+0x6bc>
800006f0:	00000000 	nop
800006f4:	10e001fe 	beqz	a3,80000ef0 <core_mark+0x8b0>
800006f8:	00000000 	nop
800006fc:	a7a807f4 	sh	t0,2036(sp)
80000700:	30a80002 	andi	t0,a1,0x2
80000704:	a7a00830 	sh	zero,2096(sp)
80000708:	30b50001 	andi	s5,a1,0x1
8000070c:	0008b02b 	sltu	s6,zero,t0
80000710:	30b70004 	andi	s7,a1,0x4
80000714:	02b6c021 	addu	t8,s5,s6
80000718:	0017c82b 	sltu	t9,zero,s7
8000071c:	0319f021 	addu	s8,t8,t9
80000720:	241f07d0 	li	ra,2000
80000724:	27b10020 	addiu	s1,sp,32
80000728:	17c00002 	bnez	s8,80000734 <core_mark+0xf4>
8000072c:	03fe001b 	divu	zero,ra,s8
80000730:	0007000d 	break	0x7
80000734:	afb107f8 	sw	s1,2040(sp)
80000738:	00002012 	mflo	a0
8000073c:	afa40808 	sw	a0,2056(sp)
80000740:	12a00153 	beqz	s5,80000c90 <core_mark+0x650>
80000744:	00000000 	nop
80000748:	24130001 	li	s3,1
8000074c:	afb107fc 	sw	s1,2044(sp)
80000750:	11000008 	beqz	t0,80000774 <core_mark+0x134>
80000754:	00000000 	nop
80000758:	02640018 	mult	s3,a0
8000075c:	27b00020 	addiu	s0,sp,32
80000760:	26740001 	addiu	s4,s3,1
80000764:	00009012 	mflo	s2
80000768:	3293ffff 	andi	s3,s4,0xffff
8000076c:	02121021 	addu	v0,s0,s2
80000770:	afa20800 	sw	v0,2048(sp)
80000774:	12e00006 	beqz	s7,80000790 <core_mark+0x150>
80000778:	00000000 	nop
8000077c:	02640018 	mult	s3,a0
80000780:	27a30020 	addiu	v1,sp,32
80000784:	00003812 	mflo	a3
80000788:	00674821 	addu	t1,v1,a3
8000078c:	afa90804 	sw	t1,2052(sp)
80000790:	154000ab 	bnez	t2,80000a40 <core_mark+0x400>
80000794:	00000000 	nop
80000798:	150000b1 	bnez	t0,80000a60 <core_mark+0x420>
8000079c:	00000000 	nop
800007a0:	30ab0004 	andi	t3,a1,0x4
800007a4:	156000bc 	bnez	t3,80000a98 <core_mark+0x458>
800007a8:	00000000 	nop
800007ac:	8fac080c 	lw	t4,2060(sp)
800007b0:	00000000 	nop
800007b4:	118000c1 	beqz	t4,80000abc <core_mark+0x47c>
800007b8:	00000000 	nop
800007bc:	3c138001 	lui	s3,0x8001
800007c0:	24100001 	li	s0,1
800007c4:	2664ba60 	addiu	a0,s3,-17824
800007c8:	af908010 	sw	s0,-32752(gp)
800007cc:	0c002d0e 	jal	8000b438 <printf>
800007d0:	00000000 	nop
800007d4:	0c002e11 	jal	8000b844 <get_ns>
800007d8:	00000000 	nop
800007dc:	8fb6080c 	lw	s6,2060(sp)
800007e0:	0040a825 	move	s5,v0
800007e4:	a7a00828 	sh	zero,2088(sp)
800007e8:	a7a0082a 	sh	zero,2090(sp)
800007ec:	a7a0082c 	sh	zero,2092(sp)
800007f0:	a7a0082e 	sh	zero,2094(sp)
800007f4:	12c0005c 	beqz	s6,80000968 <core_mark+0x328>
800007f8:	00000000 	nop
800007fc:	24050001 	li	a1,1
80000800:	26c2ffff 	addiu	v0,s6,-1
80000804:	27a407f0 	addiu	a0,sp,2032
80000808:	30570001 	andi	s7,v0,0x1
8000080c:	0c002570 	jal	800095c0 <core_bench_list>
80000810:	00000000 	nop
80000814:	24110001 	li	s1,1
80000818:	97a50828 	lhu	a1,2088(sp)
8000081c:	00402025 	move	a0,v0
80000820:	0c001920 	jal	80006480 <crcu16>
80000824:	00000000 	nop
80000828:	2405ffff 	li	a1,-1
8000082c:	27a407f0 	addiu	a0,sp,2032
80000830:	a7a20828 	sh	v0,2088(sp)
80000834:	0c002570 	jal	800095c0 <core_bench_list>
80000838:	00000000 	nop
8000083c:	97a50828 	lhu	a1,2088(sp)
80000840:	00402025 	move	a0,v0
80000844:	0c001920 	jal	80006480 <crcu16>
80000848:	00000000 	nop
8000084c:	a7a20828 	sh	v0,2088(sp)
80000850:	a7a2082a 	sh	v0,2090(sp)
80000854:	12d10044 	beq	s6,s1,80000968 <core_mark+0x328>
80000858:	00000000 	nop
8000085c:	12e00016 	beqz	s7,800008b8 <core_mark+0x278>
80000860:	00000000 	nop
80000864:	24050001 	li	a1,1
80000868:	27a407f0 	addiu	a0,sp,2032
8000086c:	26310001 	addiu	s1,s1,1
80000870:	0c002570 	jal	800095c0 <core_bench_list>
80000874:	00000000 	nop
80000878:	97a50828 	lhu	a1,2088(sp)
8000087c:	00402025 	move	a0,v0
80000880:	0c001920 	jal	80006480 <crcu16>
80000884:	00000000 	nop
80000888:	2405ffff 	li	a1,-1
8000088c:	27a407f0 	addiu	a0,sp,2032
80000890:	a7a20828 	sh	v0,2088(sp)
80000894:	0c002570 	jal	800095c0 <core_bench_list>
80000898:	00000000 	nop
8000089c:	97a50828 	lhu	a1,2088(sp)
800008a0:	00402025 	move	a0,v0
800008a4:	0c001920 	jal	80006480 <crcu16>
800008a8:	00000000 	nop
800008ac:	a7a20828 	sh	v0,2088(sp)
800008b0:	12d1002d 	beq	s6,s1,80000968 <core_mark+0x328>
800008b4:	00000000 	nop
800008b8:	24050001 	li	a1,1
800008bc:	27a407f0 	addiu	a0,sp,2032
800008c0:	263e0001 	addiu	s8,s1,1
800008c4:	0c002570 	jal	800095c0 <core_bench_list>
800008c8:	00000000 	nop
800008cc:	97a50828 	lhu	a1,2088(sp)
800008d0:	00402025 	move	a0,v0
800008d4:	0c001920 	jal	80006480 <crcu16>
800008d8:	00000000 	nop
800008dc:	2405ffff 	li	a1,-1
800008e0:	27a407f0 	addiu	a0,sp,2032
800008e4:	a7a20828 	sh	v0,2088(sp)
800008e8:	0c002570 	jal	800095c0 <core_bench_list>
800008ec:	00000000 	nop
800008f0:	97a50828 	lhu	a1,2088(sp)
800008f4:	00402025 	move	a0,v0
800008f8:	0c001920 	jal	80006480 <crcu16>
800008fc:	00000000 	nop
80000900:	24050001 	li	a1,1
80000904:	27a407f0 	addiu	a0,sp,2032
80000908:	a7a20828 	sh	v0,2088(sp)
8000090c:	12200393 	beqz	s1,8000175c <core_mark+0x111c>
80000910:	00000000 	nop
80000914:	0c002570 	jal	800095c0 <core_bench_list>
80000918:	00000000 	nop
8000091c:	97a50828 	lhu	a1,2088(sp)
80000920:	00402025 	move	a0,v0
80000924:	0c001920 	jal	80006480 <crcu16>
80000928:	00000000 	nop
8000092c:	2405ffff 	li	a1,-1
80000930:	27a407f0 	addiu	a0,sp,2032
80000934:	a7a20828 	sh	v0,2088(sp)
80000938:	0c002570 	jal	800095c0 <core_bench_list>
8000093c:	00000000 	nop
80000940:	97a50828 	lhu	a1,2088(sp)
80000944:	00402025 	move	a0,v0
80000948:	0c001920 	jal	80006480 <crcu16>
8000094c:	00000000 	nop
80000950:	a7a20828 	sh	v0,2088(sp)
80000954:	13c0037e 	beqz	s8,80001750 <core_mark+0x1110>
80000958:	00000000 	nop
8000095c:	27d10001 	addiu	s1,s8,1
80000960:	16d1ffd5 	bne	s6,s1,800008b8 <core_mark+0x278>
80000964:	00000000 	nop
80000968:	0c002e11 	jal	8000b844 <get_ns>
8000096c:	00000000 	nop
80000970:	3c078001 	lui	a3,0x8001
80000974:	00558023 	subu	s0,v0,s5
80000978:	24e4ba6c 	addiu	a0,a3,-17812
8000097c:	0c002d0e 	jal	8000b438 <printf>
80000980:	00000000 	nop
80000984:	00002825 	move	a1,zero
80000988:	87a407f0 	lh	a0,2032(sp)
8000098c:	0c001cf0 	jal	800073c0 <crc16>
80000990:	00000000 	nop
80000994:	87a407f2 	lh	a0,2034(sp)
80000998:	00402825 	move	a1,v0
8000099c:	0c001cf0 	jal	800073c0 <crc16>
800009a0:	00000000 	nop
800009a4:	87a407f4 	lh	a0,2036(sp)
800009a8:	00402825 	move	a1,v0
800009ac:	0c001cf0 	jal	800073c0 <crc16>
800009b0:	00000000 	nop
800009b4:	87a40808 	lh	a0,2056(sp)
800009b8:	00402825 	move	a1,v0
800009bc:	0c001cf0 	jal	800073c0 <crc16>
800009c0:	00000000 	nop
800009c4:	24037b05 	li	v1,31493
800009c8:	00408825 	move	s1,v0
800009cc:	10430346 	beq	v0,v1,800016e8 <core_mark+0x10a8>
800009d0:	00000000 	nop
800009d4:	2c497b06 	sltiu	t1,v0,31494
800009d8:	112000d5 	beqz	t1,80000d30 <core_mark+0x6f0>
800009dc:	00000000 	nop
800009e0:	240818f2 	li	t0,6386
800009e4:	10480331 	beq	v0,t0,800016ac <core_mark+0x106c>
800009e8:	00000000 	nop
800009ec:	24044eaf 	li	a0,20143
800009f0:	14440146 	bne	v0,a0,80000f0c <core_mark+0x8cc>
800009f4:	00000000 	nop
800009f8:	3c068001 	lui	a2,0x8001
800009fc:	3414e5a4 	li	s4,0xe5a4
80000a00:	24c4badc 	addiu	a0,a2,-17700
80000a04:	24135608 	li	s3,22024
80000a08:	0c002d0e 	jal	8000b438 <printf>
80000a0c:	00000000 	nop
80000a10:	340ae5a4 	li	t2,0xe5a4
80000a14:	24055608 	li	a1,22024
80000a18:	240b6a79 	li	t3,27257
80000a1c:	afaa0844 	sw	t2,2116(sp)
80000a20:	24126a79 	li	s2,27257
80000a24:	afa50840 	sw	a1,2112(sp)
80000a28:	afab083c 	sw	t3,2108(sp)
80000a2c:	100000d3 	b	80000d7c <core_mark+0x73c>
80000a30:	00000000 	nop
	...
80000a40:	8fa507fc 	lw	a1,2044(sp)
80000a44:	0c002900 	jal	8000a400 <core_list_init>
80000a48:	00000000 	nop
80000a4c:	8fa50810 	lw	a1,2064(sp)
80000a50:	afa20814 	sw	v0,2068(sp)
80000a54:	30a80002 	andi	t0,a1,0x2
80000a58:	1100ff51 	beqz	t0,800007a0 <core_mark+0x160>
80000a5c:	00000000 	nop
80000a60:	87a407f2 	lh	a0,2034(sp)
80000a64:	27a70818 	addiu	a3,sp,2072
80000a68:	87a607f0 	lh	a2,2032(sp)
80000a6c:	8fa50800 	lw	a1,2048(sp)
80000a70:	00045400 	sll	t2,a0,0x10
80000a74:	8fa40808 	lw	a0,2056(sp)
80000a78:	01463025 	or	a2,t2,a2
80000a7c:	0c001250 	jal	80004940 <core_init_matrix>
80000a80:	00000000 	nop
80000a84:	8fa50810 	lw	a1,2064(sp)
80000a88:	00000000 	nop
80000a8c:	30ab0004 	andi	t3,a1,0x4
80000a90:	1160ff46 	beqz	t3,800007ac <core_mark+0x16c>
80000a94:	00000000 	nop
80000a98:	8fa60804 	lw	a2,2052(sp)
80000a9c:	87a507f0 	lh	a1,2032(sp)
80000aa0:	8fa40808 	lw	a0,2056(sp)
80000aa4:	0c0021a0 	jal	80008680 <core_init_state>
80000aa8:	00000000 	nop
80000aac:	8fac080c 	lw	t4,2060(sp)
80000ab0:	00000000 	nop
80000ab4:	1580ff41 	bnez	t4,800007bc <core_mark+0x17c>
80000ab8:	00000000 	nop
80000abc:	24150001 	li	s5,1
80000ac0:	00156840 	sll	t5,s5,0x1
80000ac4:	001570c0 	sll	t6,s5,0x3
80000ac8:	01ae7821 	addu	t7,t5,t6
80000acc:	afaf080c 	sw	t7,2060(sp)
80000ad0:	0c002c4c 	jal	8000b130 <start_time>
80000ad4:	00000000 	nop
80000ad8:	8fb5080c 	lw	s5,2060(sp)
80000adc:	a7a00828 	sh	zero,2088(sp)
80000ae0:	a7a0082a 	sh	zero,2090(sp)
80000ae4:	a7a0082c 	sh	zero,2092(sp)
80000ae8:	a7a0082e 	sh	zero,2094(sp)
80000aec:	12a0005c 	beqz	s5,80000c60 <core_mark+0x620>
80000af0:	00000000 	nop
80000af4:	24050001 	li	a1,1
80000af8:	27a407f0 	addiu	a0,sp,2032
80000afc:	26b6ffff 	addiu	s6,s5,-1
80000b00:	0c002570 	jal	800095c0 <core_bench_list>
80000b04:	00000000 	nop
80000b08:	24110001 	li	s1,1
80000b0c:	97a50828 	lhu	a1,2088(sp)
80000b10:	00402025 	move	a0,v0
80000b14:	32d70001 	andi	s7,s6,0x1
80000b18:	0c001920 	jal	80006480 <crcu16>
80000b1c:	00000000 	nop
80000b20:	2405ffff 	li	a1,-1
80000b24:	27a407f0 	addiu	a0,sp,2032
80000b28:	a7a20828 	sh	v0,2088(sp)
80000b2c:	0c002570 	jal	800095c0 <core_bench_list>
80000b30:	00000000 	nop
80000b34:	97a50828 	lhu	a1,2088(sp)
80000b38:	00402025 	move	a0,v0
80000b3c:	0c001920 	jal	80006480 <crcu16>
80000b40:	00000000 	nop
80000b44:	a7a20828 	sh	v0,2088(sp)
80000b48:	a7a2082a 	sh	v0,2090(sp)
80000b4c:	12b10044 	beq	s5,s1,80000c60 <core_mark+0x620>
80000b50:	00000000 	nop
80000b54:	12e00016 	beqz	s7,80000bb0 <core_mark+0x570>
80000b58:	00000000 	nop
80000b5c:	24050001 	li	a1,1
80000b60:	27a407f0 	addiu	a0,sp,2032
80000b64:	26310001 	addiu	s1,s1,1
80000b68:	0c002570 	jal	800095c0 <core_bench_list>
80000b6c:	00000000 	nop
80000b70:	97a50828 	lhu	a1,2088(sp)
80000b74:	00402025 	move	a0,v0
80000b78:	0c001920 	jal	80006480 <crcu16>
80000b7c:	00000000 	nop
80000b80:	2405ffff 	li	a1,-1
80000b84:	27a407f0 	addiu	a0,sp,2032
80000b88:	a7a20828 	sh	v0,2088(sp)
80000b8c:	0c002570 	jal	800095c0 <core_bench_list>
80000b90:	00000000 	nop
80000b94:	97a50828 	lhu	a1,2088(sp)
80000b98:	00402025 	move	a0,v0
80000b9c:	0c001920 	jal	80006480 <crcu16>
80000ba0:	00000000 	nop
80000ba4:	a7a20828 	sh	v0,2088(sp)
80000ba8:	12b1002d 	beq	s5,s1,80000c60 <core_mark+0x620>
80000bac:	00000000 	nop
80000bb0:	24050001 	li	a1,1
80000bb4:	27a407f0 	addiu	a0,sp,2032
80000bb8:	263e0001 	addiu	s8,s1,1
80000bbc:	0c002570 	jal	800095c0 <core_bench_list>
80000bc0:	00000000 	nop
80000bc4:	97a50828 	lhu	a1,2088(sp)
80000bc8:	00402025 	move	a0,v0
80000bcc:	0c001920 	jal	80006480 <crcu16>
80000bd0:	00000000 	nop
80000bd4:	2405ffff 	li	a1,-1
80000bd8:	27a407f0 	addiu	a0,sp,2032
80000bdc:	a7a20828 	sh	v0,2088(sp)
80000be0:	0c002570 	jal	800095c0 <core_bench_list>
80000be4:	00000000 	nop
80000be8:	97a50828 	lhu	a1,2088(sp)
80000bec:	00402025 	move	a0,v0
80000bf0:	0c001920 	jal	80006480 <crcu16>
80000bf4:	00000000 	nop
80000bf8:	24050001 	li	a1,1
80000bfc:	27a407f0 	addiu	a0,sp,2032
80000c00:	a7a20828 	sh	v0,2088(sp)
80000c04:	122002cf 	beqz	s1,80001744 <core_mark+0x1104>
80000c08:	00000000 	nop
80000c0c:	0c002570 	jal	800095c0 <core_bench_list>
80000c10:	00000000 	nop
80000c14:	97a50828 	lhu	a1,2088(sp)
80000c18:	00402025 	move	a0,v0
80000c1c:	0c001920 	jal	80006480 <crcu16>
80000c20:	00000000 	nop
80000c24:	2405ffff 	li	a1,-1
80000c28:	27a407f0 	addiu	a0,sp,2032
80000c2c:	a7a20828 	sh	v0,2088(sp)
80000c30:	0c002570 	jal	800095c0 <core_bench_list>
80000c34:	00000000 	nop
80000c38:	97a50828 	lhu	a1,2088(sp)
80000c3c:	00402025 	move	a0,v0
80000c40:	0c001920 	jal	80006480 <crcu16>
80000c44:	00000000 	nop
80000c48:	a7a20828 	sh	v0,2088(sp)
80000c4c:	13c002ba 	beqz	s8,80001738 <core_mark+0x10f8>
80000c50:	00000000 	nop
80000c54:	27d10001 	addiu	s1,s8,1
80000c58:	16b1ffd5 	bne	s5,s1,80000bb0 <core_mark+0x570>
80000c5c:	00000000 	nop
80000c60:	0c002c54 	jal	8000b150 <stop_time>
80000c64:	00000000 	nop
80000c68:	0c002c5c 	jal	8000b170 <get_time>
80000c6c:	00000000 	nop
80000c70:	00402025 	move	a0,v0
80000c74:	0c002c74 	jal	8000b1d0 <time_in_secs>
80000c78:	00000000 	nop
80000c7c:	14400008 	bnez	v0,80000ca0 <core_mark+0x660>
80000c80:	00000000 	nop
80000c84:	8fb5080c 	lw	s5,2060(sp)
80000c88:	1000ff8d 	b	80000ac0 <core_mark+0x480>
80000c8c:	00000000 	nop
80000c90:	00009825 	move	s3,zero
80000c94:	1000feae 	b	80000750 <core_mark+0x110>
80000c98:	00000000 	nop
80000c9c:	00000000 	nop
80000ca0:	2418000a 	li	t8,10
80000ca4:	8fb2080c 	lw	s2,2060(sp)
80000ca8:	14400002 	bnez	v0,80000cb4 <core_mark+0x674>
80000cac:	0302001b 	divu	zero,t8,v0
80000cb0:	0007000d 	break	0x7
80000cb4:	0000c812 	mflo	t9
80000cb8:	273f0001 	addiu	ra,t9,1
80000cbc:	00000000 	nop
80000cc0:	025f0018 	mult	s2,ra
80000cc4:	0000a012 	mflo	s4
80000cc8:	afb4080c 	sw	s4,2060(sp)
80000ccc:	1000febb 	b	800007bc <core_mark+0x17c>
80000cd0:	00000000 	nop
	...
80000ce0:	24090007 	li	t1,7
80000ce4:	8fab07f0 	lw	t3,2032(sp)
80000ce8:	240a0001 	li	t2,1
80000cec:	24050007 	li	a1,7
80000cf0:	afa90810 	sw	t1,2064(sp)
80000cf4:	1160fe7f 	beqz	t3,800006f4 <core_mark+0xb4>
80000cf8:	00000000 	nop
80000cfc:	240c0001 	li	t4,1
80000d00:	156cfe7e 	bne	t3,t4,800006fc <core_mark+0xbc>
80000d04:	00000000 	nop
80000d08:	14e0fe7c 	bnez	a3,800006fc <core_mark+0xbc>
80000d0c:	00000000 	nop
80000d10:	240d3415 	li	t5,13333
80000d14:	240e0066 	li	t6,102
80000d18:	24063415 	li	a2,13333
80000d1c:	a7ad07f0 	sh	t5,2032(sp)
80000d20:	a7ad07f2 	sh	t5,2034(sp)
80000d24:	a7ae07f4 	sh	t6,2036(sp)
80000d28:	1000fe75 	b	80000700 <core_mark+0xc0>
80000d2c:	00000000 	nop
80000d30:	34188a02 	li	t8,0x8a02
80000d34:	1058024e 	beq	v0,t8,80001670 <core_mark+0x1030>
80000d38:	00000000 	nop
80000d3c:	3419e9f5 	li	t9,0xe9f5
80000d40:	14590072 	bne	v0,t9,80000f0c <core_mark+0x8cc>
80000d44:	00000000 	nop
80000d48:	3c1f8001 	lui	ra,0x8001
80000d4c:	34158e3a 	li	s5,0x8e3a
80000d50:	27e4bb10 	addiu	a0,ra,-17648
80000d54:	24161fd7 	li	s6,8151
80000d58:	0c002d0e 	jal	8000b438 <printf>
80000d5c:	00000000 	nop
80000d60:	3402e714 	li	v0,0xe714
80000d64:	34148e3a 	li	s4,0x8e3a
80000d68:	afb50844 	sw	s5,2116(sp)
80000d6c:	24131fd7 	li	s3,8151
80000d70:	afb60840 	sw	s6,2112(sp)
80000d74:	3412e714 	li	s2,0xe714
80000d78:	afa2083c 	sw	v0,2108(sp)
80000d7c:	8f8a8010 	lw	t2,-32752(gp)
80000d80:	00002825 	move	a1,zero
80000d84:	11400062 	beqz	t2,80000f10 <core_mark+0x8d0>
80000d88:	00000000 	nop
80000d8c:	3c0b8001 	lui	t3,0x8001
80000d90:	3c0d8001 	lui	t5,0x8001
80000d94:	256cbb6c 	addiu	t4,t3,-17556
80000d98:	25aebb9c 	addiu	t6,t5,-17508
80000d9c:	3c0f8001 	lui	t7,0x8001
80000da0:	0000b825 	move	s7,zero
80000da4:	afac0848 	sw	t4,2120(sp)
80000da8:	0000b025 	move	s6,zero
80000dac:	afae084c 	sw	t6,2124(sp)
80000db0:	afaf0850 	sw	t7,2128(sp)
80000db4:	10000010 	b	80000df8 <core_mark+0x7b8>
80000db8:	00000000 	nop
80000dbc:	00000000 	nop
80000dc0:	27b50020 	addiu	s5,sp,32
80000dc4:	02bec021 	addu	t8,s5,s8
80000dc8:	87090810 	lh	t1,2064(t8)
80000dcc:	00000000 	nop
80000dd0:	0137b821 	addu	s7,t1,s7
80000dd4:	8f888010 	lw	t0,-32752(gp)
80000dd8:	26d60001 	addiu	s6,s6,1
80000ddc:	32e5ffff 	andi	a1,s7,0xffff
80000de0:	32d6ffff 	andi	s6,s6,0xffff
80000de4:	00053400 	sll	a2,a1,0x10
80000de8:	02c8202b 	sltu	a0,s6,t0
80000dec:	0006bc03 	sra	s7,a2,0x10
80000df0:	10800047 	beqz	a0,80000f10 <core_mark+0x8d0>
80000df4:	00000000 	nop
80000df8:	0016f080 	sll	s8,s6,0x2
80000dfc:	0016a980 	sll	s5,s6,0x6
80000e00:	27b90020 	addiu	t9,sp,32
80000e04:	03d5c021 	addu	t8,s8,s5
80000e08:	0338f821 	addu	ra,t9,t8
80000e0c:	a7e00810 	sh	zero,2064(ra)
80000e10:	8fe207f0 	lw	v0,2032(ra)
80000e14:	00000000 	nop
80000e18:	30470001 	andi	a3,v0,0x1
80000e1c:	10e00010 	beqz	a3,80000e60 <core_mark+0x820>
80000e20:	00000000 	nop
80000e24:	97e6080a 	lhu	a2,2058(ra)
80000e28:	afbf0838 	sw	ra,2104(sp)
80000e2c:	10d2000c 	beq	a2,s2,80000e60 <core_mark+0x820>
80000e30:	00000000 	nop
80000e34:	8fa7083c 	lw	a3,2108(sp)
80000e38:	02c02825 	move	a1,s6
80000e3c:	8fa40848 	lw	a0,2120(sp)
80000e40:	0c002d0e 	jal	8000b438 <printf>
80000e44:	00000000 	nop
80000e48:	8fa30838 	lw	v1,2104(sp)
80000e4c:	00000000 	nop
80000e50:	94690810 	lhu	t1,2064(v1)
80000e54:	00000000 	nop
80000e58:	25280001 	addiu	t0,t1,1
80000e5c:	a4680810 	sh	t0,2064(v1)
80000e60:	03d52021 	addu	a0,s8,s5
80000e64:	27a60020 	addiu	a2,sp,32
80000e68:	00c45021 	addu	t2,a2,a0
80000e6c:	8d4d07f0 	lw	t5,2032(t2)
80000e70:	00000000 	nop
80000e74:	31a50002 	andi	a1,t5,0x2
80000e78:	10a00010 	beqz	a1,80000ebc <core_mark+0x87c>
80000e7c:	00000000 	nop
80000e80:	9546080c 	lhu	a2,2060(t2)
80000e84:	afaa0838 	sw	t2,2104(sp)
80000e88:	10d3000c 	beq	a2,s3,80000ebc <core_mark+0x87c>
80000e8c:	00000000 	nop
80000e90:	8fa70840 	lw	a3,2112(sp)
80000e94:	02c02825 	move	a1,s6
80000e98:	8fa4084c 	lw	a0,2124(sp)
80000e9c:	0c002d0e 	jal	8000b438 <printf>
80000ea0:	00000000 	nop
80000ea4:	8fab0838 	lw	t3,2104(sp)
80000ea8:	00000000 	nop
80000eac:	956c0810 	lhu	t4,2064(t3)
80000eb0:	8d6d07f0 	lw	t5,2032(t3)
80000eb4:	258e0001 	addiu	t6,t4,1
80000eb8:	a56e0810 	sh	t6,2064(t3)
80000ebc:	31af0004 	andi	t7,t5,0x4
80000ec0:	03d5f021 	addu	s8,s8,s5
80000ec4:	11e0ffbe 	beqz	t7,80000dc0 <core_mark+0x780>
80000ec8:	00000000 	nop
80000ecc:	27b90020 	addiu	t9,sp,32
80000ed0:	033ef021 	addu	s8,t9,s8
80000ed4:	97c6080e 	lhu	a2,2062(s8)
80000ed8:	00000000 	nop
80000edc:	14d40168 	bne	a2,s4,80001480 <core_mark+0xe40>
80000ee0:	00000000 	nop
80000ee4:	87c90810 	lh	t1,2064(s8)
80000ee8:	1000ffb9 	b	80000dd0 <core_mark+0x790>
80000eec:	00000000 	nop
80000ef0:	240f0066 	li	t7,102
80000ef4:	a7a007f0 	sh	zero,2032(sp)
80000ef8:	a7a007f2 	sh	zero,2034(sp)
80000efc:	00003025 	move	a2,zero
80000f00:	a7af07f4 	sh	t7,2036(sp)
80000f04:	1000fdfe 	b	80000700 <core_mark+0xc0>
80000f08:	00000000 	nop
80000f0c:	3405ffff 	li	a1,0xffff
80000f10:	afa50838 	sw	a1,2104(sp)
80000f14:	3c128001 	lui	s2,0x8001
80000f18:	0c001e34 	jal	800078d0 <check_data_types>
80000f1c:	00000000 	nop
80000f20:	3c1e8001 	lui	s8,0x8001
80000f24:	8fb40838 	lw	s4,2104(sp)
80000f28:	2644bc00 	addiu	a0,s2,-17408
80000f2c:	8fa50808 	lw	a1,2056(sp)
80000f30:	0000b025 	move	s6,zero
80000f34:	02829821 	addu	s3,s4,v0
80000f38:	00135400 	sll	t2,s3,0x10
80000f3c:	000aac03 	sra	s5,t2,0x10
80000f40:	0c002d0e 	jal	8000b438 <printf>
80000f44:	00000000 	nop
80000f48:	3c0b8001 	lui	t3,0x8001
80000f4c:	02002825 	move	a1,s0
80000f50:	2564bc18 	addiu	a0,t3,-17384
80000f54:	0c002d0e 	jal	8000b438 <printf>
80000f58:	00000000 	nop
80000f5c:	3c0f3b9a 	lui	t7,0x3b9a
80000f60:	8f8c8010 	lw	t4,-32752(gp)
80000f64:	3c058001 	lui	a1,0x8001
80000f68:	8fad080c 	lw	t5,2060(sp)
80000f6c:	35f8ca00 	ori	t8,t7,0xca00
80000f70:	24a4bc28 	addiu	a0,a1,-17368
80000f74:	01ac0018 	mult	t5,t4
80000f78:	00007012 	mflo	t6
	...
80000f84:	01d80018 	mult	t6,t8
80000f88:	0000c812 	mflo	t9
	...
80000f94:	16000002 	bnez	s0,80000fa0 <core_mark+0x960>
80000f98:	0330001b 	divu	zero,t9,s0
80000f9c:	0007000d 	break	0x7
80000fa0:	00002812 	mflo	a1
80000fa4:	0c002d0e 	jal	8000b438 <printf>
80000fa8:	00000000 	nop
80000fac:	27c4bc40 	addiu	a0,s8,-17344
80000fb0:	0c002d0e 	jal	8000b438 <printf>
80000fb4:	00000000 	nop
80000fb8:	3c028001 	lui	v0,0x8001
80000fbc:	2444bc9c 	addiu	a0,v0,-17252
80000fc0:	0c002d0e 	jal	8000b438 <printf>
80000fc4:	00000000 	nop
80000fc8:	02003025 	move	a2,s0
80000fcc:	3c108001 	lui	s0,0x8001
80000fd0:	8fa5080c 	lw	a1,2060(sp)
80000fd4:	2604bcc8 	addiu	a0,s0,-17208
80000fd8:	0c002d0e 	jal	8000b438 <printf>
80000fdc:	00000000 	nop
80000fe0:	3c078001 	lui	a3,0x8001
80000fe4:	02c02825 	move	a1,s6
80000fe8:	24e4bcf4 	addiu	a0,a3,-17164
80000fec:	0c002d0e 	jal	8000b438 <printf>
80000ff0:	00000000 	nop
80000ff4:	02c02025 	move	a0,s6
80000ff8:	0c002c74 	jal	8000b1d0 <time_in_secs>
80000ffc:	00000000 	nop
80001000:	3c038001 	lui	v1,0x8001
80001004:	00402825 	move	a1,v0
80001008:	2464bd0c 	addiu	a0,v1,-17140
8000100c:	0c002d0e 	jal	8000b438 <printf>
80001010:	00000000 	nop
80001014:	02c02025 	move	a0,s6
80001018:	0c002c74 	jal	8000b1d0 <time_in_secs>
8000101c:	00000000 	nop
80001020:	14400173 	bnez	v0,800015f0 <core_mark+0xfb0>
80001024:	00000000 	nop
80001028:	8f868010 	lw	a2,-32752(gp)
8000102c:	3c048001 	lui	a0,0x8001
80001030:	8fb4080c 	lw	s4,2060(sp)
80001034:	3c138001 	lui	s3,0x8001
80001038:	2484bd3c 	addiu	a0,a0,-17092
8000103c:	3c128001 	lui	s2,0x8001
80001040:	02860018 	mult	s4,a2
80001044:	00002812 	mflo	a1
80001048:	0c002d0e 	jal	8000b438 <printf>
8000104c:	00000000 	nop
80001050:	2665bd54 	addiu	a1,s3,-17068
80001054:	2644bd68 	addiu	a0,s2,-17048
80001058:	0c002d0e 	jal	8000b438 <printf>
8000105c:	00000000 	nop
80001060:	3c0a8001 	lui	t2,0x8001
80001064:	3c0b8001 	lui	t3,0x8001
80001068:	2545bcf0 	addiu	a1,t2,-17168
8000106c:	2564bd80 	addiu	a0,t3,-17024
80001070:	0c002d0e 	jal	8000b438 <printf>
80001074:	00000000 	nop
80001078:	3c0c8001 	lui	t4,0x8001
8000107c:	3c058001 	lui	a1,0x8001
80001080:	2584bde8 	addiu	a0,t4,-16920
80001084:	24a5bd98 	addiu	a1,a1,-17000
80001088:	0c002d0e 	jal	8000b438 <printf>
8000108c:	00000000 	nop
80001090:	02202825 	move	a1,s1
80001094:	3c118001 	lui	s1,0x8001
80001098:	2624be00 	addiu	a0,s1,-16896
8000109c:	0c002d0e 	jal	8000b438 <printf>
800010a0:	00000000 	nop
800010a4:	8fb30810 	lw	s3,2064(sp)
800010a8:	00000000 	nop
800010ac:	326d0001 	andi	t5,s3,0x1
800010b0:	15a00103 	bnez	t5,800014c0 <core_mark+0xe80>
800010b4:	00000000 	nop
800010b8:	8f828010 	lw	v0,-32752(gp)
800010bc:	327f0002 	andi	ra,s3,0x2
800010c0:	13e00048 	beqz	ra,800011e4 <core_mark+0xba4>
800010c4:	00000000 	nop
800010c8:	104000d3 	beqz	v0,80001418 <core_mark+0xdd8>
800010cc:	00000000 	nop
800010d0:	3c1e8001 	lui	s8,0x8001
800010d4:	00008025 	move	s0,zero
800010d8:	27d3be38 	addiu	s3,s8,-16840
800010dc:	00104080 	sll	t0,s0,0x2
800010e0:	00103180 	sll	a2,s0,0x6
800010e4:	27b10020 	addiu	s1,sp,32
800010e8:	01069021 	addu	s2,t0,a2
800010ec:	02002825 	move	a1,s0
800010f0:	02325021 	addu	t2,s1,s2
800010f4:	02602025 	move	a0,s3
800010f8:	9546080c 	lhu	a2,2060(t2)
800010fc:	0c002d0e 	jal	8000b438 <printf>
80001100:	00000000 	nop
80001104:	260b0001 	addiu	t3,s0,1
80001108:	8f828010 	lw	v0,-32752(gp)
8000110c:	27b80020 	addiu	t8,sp,32
80001110:	3176ffff 	andi	s6,t3,0xffff
80001114:	00166080 	sll	t4,s6,0x2
80001118:	00166980 	sll	t5,s6,0x6
8000111c:	02c2782b 	sltu	t7,s6,v0
80001120:	018d7021 	addu	t6,t4,t5
80001124:	02602025 	move	a0,s3
80001128:	02c02825 	move	a1,s6
8000112c:	030ec821 	addu	t9,t8,t6
80001130:	11e0002a 	beqz	t7,800011dc <core_mark+0xb9c>
80001134:	00000000 	nop
80001138:	9726080c 	lhu	a2,2060(t9)
8000113c:	0c002d0e 	jal	8000b438 <printf>
80001140:	00000000 	nop
80001144:	26c50001 	addiu	a1,s6,1
80001148:	8f828010 	lw	v0,-32752(gp)
8000114c:	27a90020 	addiu	t1,sp,32
80001150:	30b0ffff 	andi	s0,a1,0xffff
80001154:	0010b880 	sll	s7,s0,0x2
80001158:	00103980 	sll	a3,s0,0x6
8000115c:	0202a02b 	sltu	s4,s0,v0
80001160:	02e71821 	addu	v1,s7,a3
80001164:	02602025 	move	a0,s3
80001168:	02002825 	move	a1,s0
8000116c:	0123f021 	addu	s8,t1,v1
80001170:	1280001a 	beqz	s4,800011dc <core_mark+0xb9c>
80001174:	00000000 	nop
80001178:	97c6080c 	lhu	a2,2060(s8)
8000117c:	27b60020 	addiu	s6,sp,32
80001180:	0c002d0e 	jal	8000b438 <printf>
80001184:	00000000 	nop
80001188:	26080001 	addiu	t0,s0,1
8000118c:	8f828010 	lw	v0,-32752(gp)
80001190:	02602025 	move	a0,s3
80001194:	3112ffff 	andi	s2,t0,0xffff
80001198:	00128880 	sll	s1,s2,0x2
8000119c:	00123180 	sll	a2,s2,0x6
800011a0:	0242582b 	sltu	t3,s2,v0
800011a4:	02265021 	addu	t2,s1,a2
800011a8:	02402825 	move	a1,s2
800011ac:	02ca6021 	addu	t4,s6,t2
800011b0:	1160000a 	beqz	t3,800011dc <core_mark+0xb9c>
800011b4:	00000000 	nop
800011b8:	9586080c 	lhu	a2,2060(t4)
800011bc:	0c002d0e 	jal	8000b438 <printf>
800011c0:	00000000 	nop
800011c4:	26440001 	addiu	a0,s2,1
800011c8:	8f828010 	lw	v0,-32752(gp)
800011cc:	3090ffff 	andi	s0,a0,0xffff
800011d0:	0202682b 	sltu	t5,s0,v0
800011d4:	15a0ffc1 	bnez	t5,800010dc <core_mark+0xa9c>
800011d8:	00000000 	nop
800011dc:	8fb30810 	lw	s3,2064(sp)
800011e0:	00000000 	nop
800011e4:	327f0004 	andi	ra,s3,0x4
800011e8:	13e00046 	beqz	ra,80001304 <core_mark+0xcc4>
800011ec:	00000000 	nop
800011f0:	10400089 	beqz	v0,80001418 <core_mark+0xdd8>
800011f4:	00000000 	nop
800011f8:	3c028001 	lui	v0,0x8001
800011fc:	0000f025 	move	s8,zero
80001200:	2457be54 	addiu	s7,v0,-16812
80001204:	001e7080 	sll	t6,s8,0x2
80001208:	001e7980 	sll	t7,s8,0x6
8000120c:	27b90020 	addiu	t9,sp,32
80001210:	01cfc021 	addu	t8,t6,t7
80001214:	03c02825 	move	a1,s8
80001218:	03383821 	addu	a3,t9,t8
8000121c:	02e02025 	move	a0,s7
80001220:	27b20020 	addiu	s2,sp,32
80001224:	94e6080e 	lhu	a2,2062(a3)
80001228:	0c002d0e 	jal	8000b438 <printf>
8000122c:	00000000 	nop
80001230:	27c50001 	addiu	a1,s8,1
80001234:	8f828010 	lw	v0,-32752(gp)
80001238:	02e02025 	move	a0,s7
8000123c:	30b4ffff 	andi	s4,a1,0xffff
80001240:	00141880 	sll	v1,s4,0x2
80001244:	00144980 	sll	t1,s4,0x6
80001248:	0282402b 	sltu	t0,s4,v0
8000124c:	0069f021 	addu	s8,v1,t1
80001250:	02802825 	move	a1,s4
80001254:	025e8821 	addu	s1,s2,s8
80001258:	1100002a 	beqz	t0,80001304 <core_mark+0xcc4>
8000125c:	00000000 	nop
80001260:	9626080e 	lhu	a2,2062(s1)
80001264:	0c002d0e 	jal	8000b438 <printf>
80001268:	00000000 	nop
8000126c:	26860001 	addiu	a2,s4,1
80001270:	8f828010 	lw	v0,-32752(gp)
80001274:	27ad0020 	addiu	t5,sp,32
80001278:	30d6ffff 	andi	s6,a2,0xffff
8000127c:	00165080 	sll	t2,s6,0x2
80001280:	00165980 	sll	t3,s6,0x6
80001284:	02c2802b 	sltu	s0,s6,v0
80001288:	014b6021 	addu	t4,t2,t3
8000128c:	02e02025 	move	a0,s7
80001290:	02c02825 	move	a1,s6
80001294:	01ac9821 	addu	s3,t5,t4
80001298:	1200001a 	beqz	s0,80001304 <core_mark+0xcc4>
8000129c:	00000000 	nop
800012a0:	9666080e 	lhu	a2,2062(s3)
800012a4:	0c002d0e 	jal	8000b438 <printf>
800012a8:	00000000 	nop
800012ac:	26ce0001 	addiu	t6,s6,1
800012b0:	8f828010 	lw	v0,-32752(gp)
800012b4:	27a70020 	addiu	a3,sp,32
800012b8:	31d4ffff 	andi	s4,t6,0xffff
800012bc:	00147880 	sll	t7,s4,0x2
800012c0:	0014c180 	sll	t8,s4,0x6
800012c4:	0282482b 	sltu	t1,s4,v0
800012c8:	01f8c821 	addu	t9,t7,t8
800012cc:	02e02025 	move	a0,s7
800012d0:	02802825 	move	a1,s4
800012d4:	00f91821 	addu	v1,a3,t9
800012d8:	1120000a 	beqz	t1,80001304 <core_mark+0xcc4>
800012dc:	00000000 	nop
800012e0:	9466080e 	lhu	a2,2062(v1)
800012e4:	0c002d0e 	jal	8000b438 <printf>
800012e8:	00000000 	nop
800012ec:	26840001 	addiu	a0,s4,1
800012f0:	8f828010 	lw	v0,-32752(gp)
800012f4:	309effff 	andi	s8,a0,0xffff
800012f8:	03c2282b 	sltu	a1,s8,v0
800012fc:	14a0ffc1 	bnez	a1,80001204 <core_mark+0xbc4>
80001300:	00000000 	nop
80001304:	10400044 	beqz	v0,80001418 <core_mark+0xdd8>
80001308:	00000000 	nop
8000130c:	3c1f8001 	lui	ra,0x8001
80001310:	00009825 	move	s3,zero
80001314:	27f7be70 	addiu	s7,ra,-16784
80001318:	00131080 	sll	v0,s3,0x2
8000131c:	00134180 	sll	t0,s3,0x6
80001320:	27b10020 	addiu	s1,sp,32
80001324:	00489021 	addu	s2,v0,t0
80001328:	26760001 	addiu	s6,s3,1
8000132c:	02323021 	addu	a2,s1,s2
80001330:	32d0ffff 	andi	s0,s6,0xffff
80001334:	02602825 	move	a1,s3
80001338:	94c60808 	lhu	a2,2056(a2)
8000133c:	02e02025 	move	a0,s7
80001340:	0c002d0e 	jal	8000b438 <printf>
80001344:	00000000 	nop
80001348:	00105080 	sll	t2,s0,0x2
8000134c:	00105980 	sll	t3,s0,0x6
80001350:	8f8d8010 	lw	t5,-32752(gp)
80001354:	27ae0020 	addiu	t6,sp,32
80001358:	014b6021 	addu	t4,t2,t3
8000135c:	020d982b 	sltu	s3,s0,t5
80001360:	02e02025 	move	a0,s7
80001364:	02002825 	move	a1,s0
80001368:	01cca021 	addu	s4,t6,t4
8000136c:	1260002a 	beqz	s3,80001418 <core_mark+0xdd8>
80001370:	00000000 	nop
80001374:	96860808 	lhu	a2,2056(s4)
80001378:	0c002d0e 	jal	8000b438 <printf>
8000137c:	00000000 	nop
80001380:	260f0001 	addiu	t7,s0,1
80001384:	8f878010 	lw	a3,-32752(gp)
80001388:	27a20020 	addiu	v0,sp,32
8000138c:	31feffff 	andi	s8,t7,0xffff
80001390:	001ec080 	sll	t8,s8,0x2
80001394:	001ec980 	sll	t9,s8,0x6
80001398:	03c7182b 	sltu	v1,s8,a3
8000139c:	03194821 	addu	t1,t8,t9
800013a0:	02e02025 	move	a0,s7
800013a4:	03c02825 	move	a1,s8
800013a8:	00494021 	addu	t0,v0,t1
800013ac:	1060001a 	beqz	v1,80001418 <core_mark+0xdd8>
800013b0:	00000000 	nop
800013b4:	95060808 	lhu	a2,2056(t0)
800013b8:	0c002d0e 	jal	8000b438 <printf>
800013bc:	00000000 	nop
800013c0:	27c50001 	addiu	a1,s8,1
800013c4:	8f908010 	lw	s0,-32752(gp)
800013c8:	27ab0020 	addiu	t3,sp,32
800013cc:	30b2ffff 	andi	s2,a1,0xffff
800013d0:	00128880 	sll	s1,s2,0x2
800013d4:	00123180 	sll	a2,s2,0x6
800013d8:	0250502b 	sltu	t2,s2,s0
800013dc:	0226b021 	addu	s6,s1,a2
800013e0:	02e02025 	move	a0,s7
800013e4:	02402825 	move	a1,s2
800013e8:	01766021 	addu	t4,t3,s6
800013ec:	1140000a 	beqz	t2,80001418 <core_mark+0xdd8>
800013f0:	00000000 	nop
800013f4:	95860808 	lhu	a2,2056(t4)
800013f8:	0c002d0e 	jal	8000b438 <printf>
800013fc:	00000000 	nop
80001400:	26440001 	addiu	a0,s2,1
80001404:	8f8d8010 	lw	t5,-32752(gp)
80001408:	3093ffff 	andi	s3,a0,0xffff
8000140c:	026d702b 	sltu	t6,s3,t5
80001410:	15c0ffc1 	bnez	t6,80001318 <core_mark+0xcd8>
80001414:	00000000 	nop
80001418:	12a00089 	beqz	s5,80001640 <core_mark+0x1000>
8000141c:	00000000 	nop
80001420:	1aa0008d 	blez	s5,80001658 <core_mark+0x1018>
80001424:	00000000 	nop
80001428:	3c178001 	lui	s7,0x8001
8000142c:	26e4bed8 	addiu	a0,s7,-16680
80001430:	0c002d0e 	jal	8000b438 <printf>
80001434:	00000000 	nop
80001438:	27a40832 	addiu	a0,sp,2098
8000143c:	0c002c80 	jal	8000b200 <portable_fini>
80001440:	00000000 	nop
80001444:	02a01025 	move	v0,s5
80001448:	8fbf087c 	lw	ra,2172(sp)
8000144c:	8fbe0878 	lw	s8,2168(sp)
80001450:	8fb70874 	lw	s7,2164(sp)
80001454:	8fb60870 	lw	s6,2160(sp)
80001458:	8fb5086c 	lw	s5,2156(sp)
8000145c:	8fb40868 	lw	s4,2152(sp)
80001460:	8fb30864 	lw	s3,2148(sp)
80001464:	8fb20860 	lw	s2,2144(sp)
80001468:	8fb1085c 	lw	s1,2140(sp)
8000146c:	8fb00858 	lw	s0,2136(sp)
80001470:	27bd0880 	addiu	sp,sp,2176
80001474:	03e00008 	jr	ra
80001478:	00000000 	nop
8000147c:	00000000 	nop
80001480:	8fbf0850 	lw	ra,2128(sp)
80001484:	02c02825 	move	a1,s6
80001488:	8fa70844 	lw	a3,2116(sp)
8000148c:	27e4bbd0 	addiu	a0,ra,-17456
80001490:	0c002d0e 	jal	8000b438 <printf>
80001494:	00000000 	nop
80001498:	97c20810 	lhu	v0,2064(s8)
8000149c:	00000000 	nop
800014a0:	24470001 	addiu	a3,v0,1
800014a4:	00071c00 	sll	v1,a3,0x10
800014a8:	00034c03 	sra	t1,v1,0x10
800014ac:	a7c90810 	sh	t1,2064(s8)
800014b0:	1000fe47 	b	80000dd0 <core_mark+0x790>
800014b4:	00000000 	nop
	...
800014c0:	8f8e8010 	lw	t6,-32752(gp)
800014c4:	00000000 	nop
800014c8:	11c00096 	beqz	t6,80001724 <core_mark+0x10e4>
800014cc:	00000000 	nop
800014d0:	3c0f8001 	lui	t7,0x8001
800014d4:	0000a025 	move	s4,zero
800014d8:	25febe1c 	addiu	s8,t7,-16868
800014dc:	0014c080 	sll	t8,s4,0x2
800014e0:	0014c980 	sll	t9,s4,0x6
800014e4:	27b60020 	addiu	s6,sp,32
800014e8:	03191021 	addu	v0,t8,t9
800014ec:	26900001 	addiu	s0,s4,1
800014f0:	02c23821 	addu	a3,s6,v0
800014f4:	3217ffff 	andi	s7,s0,0xffff
800014f8:	02802825 	move	a1,s4
800014fc:	94e6080a 	lhu	a2,2058(a3)
80001500:	03c02025 	move	a0,s8
80001504:	27b40020 	addiu	s4,sp,32
80001508:	0c002d0e 	jal	8000b438 <printf>
8000150c:	00000000 	nop
80001510:	00171880 	sll	v1,s7,0x2
80001514:	8f828010 	lw	v0,-32752(gp)
80001518:	00174980 	sll	t1,s7,0x6
8000151c:	03c02025 	move	a0,s8
80001520:	00694021 	addu	t0,v1,t1
80001524:	02e2302b 	sltu	a2,s7,v0
80001528:	02e02825 	move	a1,s7
8000152c:	02889821 	addu	s3,s4,t0
80001530:	10c0002a 	beqz	a2,800015dc <core_mark+0xf9c>
80001534:	00000000 	nop
80001538:	9666080a 	lhu	a2,2058(s3)
8000153c:	26f20001 	addiu	s2,s7,1
80001540:	3251ffff 	andi	s1,s2,0xffff
80001544:	0c002d0e 	jal	8000b438 <printf>
80001548:	00000000 	nop
8000154c:	00115080 	sll	t2,s1,0x2
80001550:	8f828010 	lw	v0,-32752(gp)
80001554:	00115980 	sll	t3,s1,0x6
80001558:	27ae0020 	addiu	t6,sp,32
8000155c:	014b6021 	addu	t4,t2,t3
80001560:	0222682b 	sltu	t5,s1,v0
80001564:	03c02025 	move	a0,s8
80001568:	02202825 	move	a1,s1
8000156c:	01cc7821 	addu	t7,t6,t4
80001570:	11a0001a 	beqz	t5,800015dc <core_mark+0xf9c>
80001574:	00000000 	nop
80001578:	95e6080a 	lhu	a2,2058(t7)
8000157c:	0c002d0e 	jal	8000b438 <printf>
80001580:	00000000 	nop
80001584:	26250001 	addiu	a1,s1,1
80001588:	8f828010 	lw	v0,-32752(gp)
8000158c:	27a70020 	addiu	a3,sp,32
80001590:	30b6ffff 	andi	s6,a1,0xffff
80001594:	0016c080 	sll	t8,s6,0x2
80001598:	0016c980 	sll	t9,s6,0x6
8000159c:	02c2b82b 	sltu	s7,s6,v0
800015a0:	03198021 	addu	s0,t8,t9
800015a4:	03c02025 	move	a0,s8
800015a8:	02c02825 	move	a1,s6
800015ac:	00f01821 	addu	v1,a3,s0
800015b0:	12e0000a 	beqz	s7,800015dc <core_mark+0xf9c>
800015b4:	00000000 	nop
800015b8:	9466080a 	lhu	a2,2058(v1)
800015bc:	0c002d0e 	jal	8000b438 <printf>
800015c0:	00000000 	nop
800015c4:	26c40001 	addiu	a0,s6,1
800015c8:	8f828010 	lw	v0,-32752(gp)
800015cc:	3094ffff 	andi	s4,a0,0xffff
800015d0:	0282482b 	sltu	t1,s4,v0
800015d4:	1520ffc1 	bnez	t1,800014dc <core_mark+0xe9c>
800015d8:	00000000 	nop
800015dc:	8fb30810 	lw	s3,2064(sp)
800015e0:	1000feb6 	b	800010bc <core_mark+0xa7c>
800015e4:	00000000 	nop
	...
800015f0:	8f9f8010 	lw	ra,-32752(gp)
800015f4:	00002025 	move	a0,zero
800015f8:	8fa9080c 	lw	t1,2060(sp)
800015fc:	00000000 	nop
80001600:	013f0018 	mult	t1,ra
80001604:	0000b812 	mflo	s7
80001608:	0c002c74 	jal	8000b1d0 <time_in_secs>
8000160c:	00000000 	nop
80001610:	3c088001 	lui	t0,0x8001
80001614:	2504bd24 	addiu	a0,t0,-17116
80001618:	14400002 	bnez	v0,80001624 <core_mark+0xfe4>
8000161c:	02e2001b 	divu	zero,s7,v0
80001620:	0007000d 	break	0x7
80001624:	00002812 	mflo	a1
80001628:	0c002d0e 	jal	8000b438 <printf>
8000162c:	00000000 	nop
80001630:	1000fe7d 	b	80001028 <core_mark+0x9e8>
80001634:	00000000 	nop
	...
80001640:	3c148001 	lui	s4,0x8001
80001644:	2684be8c 	addiu	a0,s4,-16756
80001648:	0c002d0e 	jal	8000b438 <printf>
8000164c:	00000000 	nop
80001650:	1000ff79 	b	80001438 <core_mark+0xdf8>
80001654:	00000000 	nop
80001658:	3c1f8001 	lui	ra,0x8001
8000165c:	27e4beec 	addiu	a0,ra,-16660
80001660:	0c002d0e 	jal	8000b438 <printf>
80001664:	00000000 	nop
80001668:	1000ff73 	b	80001438 <core_mark+0xdf8>
8000166c:	00000000 	nop
80001670:	3c178001 	lui	s7,0x8001
80001674:	241e5e47 	li	s8,24135
80001678:	26e4ba80 	addiu	a0,s7,-17792
8000167c:	24145e47 	li	s4,24135
80001680:	0c002d0e 	jal	8000b438 <printf>
80001684:	00000000 	nop
80001688:	3407be52 	li	a3,0xbe52
8000168c:	3403d4b0 	li	v1,0xd4b0
80001690:	afbe0844 	sw	s8,2116(sp)
80001694:	3413be52 	li	s3,0xbe52
80001698:	afa70840 	sw	a3,2112(sp)
8000169c:	3412d4b0 	li	s2,0xd4b0
800016a0:	afa3083c 	sw	v1,2108(sp)
800016a4:	1000fdb5 	b	80000d7c <core_mark+0x73c>
800016a8:	00000000 	nop
800016ac:	3c0c8001 	lui	t4,0x8001
800016b0:	34148d84 	li	s4,0x8d84
800016b4:	2584bb40 	addiu	a0,t4,-17600
800016b8:	24130747 	li	s3,1863
800016bc:	0c002d0e 	jal	8000b438 <printf>
800016c0:	00000000 	nop
800016c4:	340d8d84 	li	t5,0x8d84
800016c8:	240e0747 	li	t6,1863
800016cc:	340fe3c1 	li	t7,0xe3c1
800016d0:	afad0844 	sw	t5,2116(sp)
800016d4:	3412e3c1 	li	s2,0xe3c1
800016d8:	afae0840 	sw	t6,2112(sp)
800016dc:	afaf083c 	sw	t7,2108(sp)
800016e0:	1000fda6 	b	80000d7c <core_mark+0x73c>
800016e4:	00000000 	nop
800016e8:	3c098001 	lui	t1,0x8001
800016ec:	241439bf 	li	s4,14783
800016f0:	2524bab0 	addiu	a0,t1,-17744
800016f4:	24131199 	li	s3,4505
800016f8:	0c002d0e 	jal	8000b438 <printf>
800016fc:	00000000 	nop
80001700:	240839bf 	li	t0,14783
80001704:	24041199 	li	a0,4505
80001708:	24063340 	li	a2,13120
8000170c:	afa80844 	sw	t0,2116(sp)
80001710:	24123340 	li	s2,13120
80001714:	afa40840 	sw	a0,2112(sp)
80001718:	afa6083c 	sw	a2,2108(sp)
8000171c:	1000fd97 	b	80000d7c <core_mark+0x73c>
80001720:	00000000 	nop
80001724:	32620002 	andi	v0,s3,0x2
80001728:	1440ff3b 	bnez	v0,80001418 <core_mark+0xdd8>
8000172c:	00000000 	nop
80001730:	1000feac 	b	800011e4 <core_mark+0xba4>
80001734:	00000000 	nop
80001738:	a7a2082a 	sh	v0,2090(sp)
8000173c:	1000fd45 	b	80000c54 <core_mark+0x614>
80001740:	00000000 	nop
80001744:	a7a2082a 	sh	v0,2090(sp)
80001748:	1000fd30 	b	80000c0c <core_mark+0x5cc>
8000174c:	00000000 	nop
80001750:	a7a2082a 	sh	v0,2090(sp)
80001754:	1000fc81 	b	8000095c <core_mark+0x31c>
80001758:	00000000 	nop
8000175c:	a7a2082a 	sh	v0,2090(sp)
80001760:	1000fc6c 	b	80000914 <core_mark+0x2d4>
80001764:	00000000 	nop
	...

80001770 <core_bench_matrix>:
core_bench_matrix():
80001770:	27bdffb8 	addiu	sp,sp,-72
80001774:	8c830004 	lw	v1,4(a0)
80001778:	00052c00 	sll	a1,a1,0x10
8000177c:	afb50034 	sw	s5,52(sp)
80001780:	30c2ffff 	andi	v0,a2,0xffff
80001784:	afb10024 	sw	s1,36(sp)
80001788:	00052c03 	sra	a1,a1,0x10
8000178c:	afb60038 	sw	s6,56(sp)
80001790:	2411f000 	li	s1,-4096
80001794:	afb20028 	sw	s2,40(sp)
80001798:	afbf0044 	sw	ra,68(sp)
8000179c:	00b18825 	or	s1,a1,s1
800017a0:	afbe0040 	sw	s8,64(sp)
800017a4:	afb7003c 	sw	s7,60(sp)
800017a8:	afb40030 	sw	s4,48(sp)
800017ac:	afb3002c 	sw	s3,44(sp)
800017b0:	afb00020 	sw	s0,32(sp)
800017b4:	afa20018 	sw	v0,24(sp)
800017b8:	afa30010 	sw	v1,16(sp)
800017bc:	8c950000 	lw	s5,0(a0)
800017c0:	8c92000c 	lw	s2,12(a0)
800017c4:	8c960008 	lw	s6,8(a0)
800017c8:	12a00610 	beqz	s5,8000300c <core_bench_matrix+0x189c>
800017cc:	00000000 	nop
800017d0:	00158040 	sll	s0,s5,0x1
800017d4:	00005025 	move	t2,zero
800017d8:	30b3ffff 	andi	s3,a1,0xffff
800017dc:	00603025 	move	a2,v1
800017e0:	94680000 	lhu	t0,0(v1)
800017e4:	2609fffe 	addiu	t1,s0,-2
800017e8:	02033821 	addu	a3,s0,v1
800017ec:	00095842 	srl	t3,t1,0x1
800017f0:	02686021 	addu	t4,s3,t0
800017f4:	24620002 	addiu	v0,v1,2
800017f8:	316d0007 	andi	t5,t3,0x7
800017fc:	a46c0000 	sh	t4,0(v1)
80001800:	10e2004f 	beq	a3,v0,80001940 <core_bench_matrix+0x1d0>
80001804:	00000000 	nop
80001808:	11a00032 	beqz	t5,800018d4 <core_bench_matrix+0x164>
8000180c:	00000000 	nop
80001810:	240e0001 	li	t6,1
80001814:	11ae0029 	beq	t5,t6,800018bc <core_bench_matrix+0x14c>
80001818:	00000000 	nop
8000181c:	240f0002 	li	t7,2
80001820:	11af0022 	beq	t5,t7,800018ac <core_bench_matrix+0x13c>
80001824:	00000000 	nop
80001828:	24140003 	li	s4,3
8000182c:	11b4001b 	beq	t5,s4,8000189c <core_bench_matrix+0x12c>
80001830:	00000000 	nop
80001834:	24170004 	li	s7,4
80001838:	11b70014 	beq	t5,s7,8000188c <core_bench_matrix+0x11c>
8000183c:	00000000 	nop
80001840:	24180005 	li	t8,5
80001844:	11b8000d 	beq	t5,t8,8000187c <core_bench_matrix+0x10c>
80001848:	00000000 	nop
8000184c:	24190006 	li	t9,6
80001850:	11b90006 	beq	t5,t9,8000186c <core_bench_matrix+0xfc>
80001854:	00000000 	nop
80001858:	945e0000 	lhu	s8,0(v0)
8000185c:	00000000 	nop
80001860:	027ef821 	addu	ra,s3,s8
80001864:	a45f0000 	sh	ra,0(v0)
80001868:	24620004 	addiu	v0,v1,4
8000186c:	94440000 	lhu	a0,0(v0)
80001870:	24420002 	addiu	v0,v0,2
80001874:	02641821 	addu	v1,s3,a0
80001878:	a443fffe 	sh	v1,-2(v0)
8000187c:	94480000 	lhu	t0,0(v0)
80001880:	24420002 	addiu	v0,v0,2
80001884:	02684821 	addu	t1,s3,t0
80001888:	a449fffe 	sh	t1,-2(v0)
8000188c:	944b0000 	lhu	t3,0(v0)
80001890:	24420002 	addiu	v0,v0,2
80001894:	026b6021 	addu	t4,s3,t3
80001898:	a44cfffe 	sh	t4,-2(v0)
8000189c:	944d0000 	lhu	t5,0(v0)
800018a0:	24420002 	addiu	v0,v0,2
800018a4:	026d7021 	addu	t6,s3,t5
800018a8:	a44efffe 	sh	t6,-2(v0)
800018ac:	944f0000 	lhu	t7,0(v0)
800018b0:	24420002 	addiu	v0,v0,2
800018b4:	026fa021 	addu	s4,s3,t7
800018b8:	a454fffe 	sh	s4,-2(v0)
800018bc:	94570000 	lhu	s7,0(v0)
800018c0:	24420002 	addiu	v0,v0,2
800018c4:	0277c021 	addu	t8,s3,s7
800018c8:	a458fffe 	sh	t8,-2(v0)
800018cc:	10e2001c 	beq	a3,v0,80001940 <core_bench_matrix+0x1d0>
800018d0:	00000000 	nop
800018d4:	94590000 	lhu	t9,0(v0)
800018d8:	24420010 	addiu	v0,v0,16
800018dc:	02797021 	addu	t6,s3,t9
800018e0:	945efff2 	lhu	s8,-14(v0)
800018e4:	945ffff4 	lhu	ra,-12(v0)
800018e8:	9443fff6 	lhu	v1,-10(v0)
800018ec:	9449fff8 	lhu	t1,-8(v0)
800018f0:	027e6821 	addu	t5,s3,s8
800018f4:	9448fffa 	lhu	t0,-6(v0)
800018f8:	027f6021 	addu	t4,s3,ra
800018fc:	9444fffc 	lhu	a0,-4(v0)
80001900:	02635821 	addu	t3,s3,v1
80001904:	944ffffe 	lhu	t7,-2(v0)
80001908:	0269a021 	addu	s4,s3,t1
8000190c:	0268b821 	addu	s7,s3,t0
80001910:	a44efff0 	sh	t6,-16(v0)
80001914:	0264c021 	addu	t8,s3,a0
80001918:	a44dfff2 	sh	t5,-14(v0)
8000191c:	026fc821 	addu	t9,s3,t7
80001920:	a44cfff4 	sh	t4,-12(v0)
80001924:	a44bfff6 	sh	t3,-10(v0)
80001928:	a454fff8 	sh	s4,-8(v0)
8000192c:	a457fffa 	sh	s7,-6(v0)
80001930:	a458fffc 	sh	t8,-4(v0)
80001934:	a459fffe 	sh	t9,-2(v0)
80001938:	14e2ffe6 	bne	a3,v0,800018d4 <core_bench_matrix+0x164>
8000193c:	00000000 	nop
80001940:	254a0001 	addiu	t2,t2,1
80001944:	00e01825 	move	v1,a3
80001948:	16aaffa5 	bne	s5,t2,800017e0 <core_bench_matrix+0x70>
8000194c:	00000000 	nop
80001950:	0015a080 	sll	s4,s5,0x2
80001954:	0000f025 	move	s8,zero
80001958:	0240f825 	move	ra,s2
8000195c:	84c20000 	lh	v0,0(a2)
80001960:	268efffc 	addiu	t6,s4,-4
80001964:	029f3821 	addu	a3,s4,ra
80001968:	000e4882 	srl	t1,t6,0x2
8000196c:	00450018 	mult	v0,a1
80001970:	27e20004 	addiu	v0,ra,4
80001974:	312d0007 	andi	t5,t1,0x7
80001978:	24c30002 	addiu	v1,a2,2
8000197c:	00004012 	mflo	t0
80001980:	afe80000 	sw	t0,0(ra)
80001984:	10e20072 	beq	a3,v0,80001b50 <core_bench_matrix+0x3e0>
80001988:	00000000 	nop
8000198c:	11a0003f 	beqz	t5,80001a8c <core_bench_matrix+0x31c>
80001990:	00000000 	nop
80001994:	240c0001 	li	t4,1
80001998:	11ac0034 	beq	t5,t4,80001a6c <core_bench_matrix+0x2fc>
8000199c:	00000000 	nop
800019a0:	24040002 	li	a0,2
800019a4:	11a4002b 	beq	t5,a0,80001a54 <core_bench_matrix+0x2e4>
800019a8:	00000000 	nop
800019ac:	240b0003 	li	t3,3
800019b0:	11ab0022 	beq	t5,t3,80001a3c <core_bench_matrix+0x2cc>
800019b4:	00000000 	nop
800019b8:	240f0004 	li	t7,4
800019bc:	11af0019 	beq	t5,t7,80001a24 <core_bench_matrix+0x2b4>
800019c0:	00000000 	nop
800019c4:	24170005 	li	s7,5
800019c8:	11b70010 	beq	t5,s7,80001a0c <core_bench_matrix+0x29c>
800019cc:	00000000 	nop
800019d0:	24180006 	li	t8,6
800019d4:	11b80007 	beq	t5,t8,800019f4 <core_bench_matrix+0x284>
800019d8:	00000000 	nop
800019dc:	84790000 	lh	t9,0(v1)
800019e0:	24c30004 	addiu	v1,a2,4
800019e4:	03250018 	mult	t9,a1
800019e8:	00005012 	mflo	t2
800019ec:	ac4a0000 	sw	t2,0(v0)
800019f0:	27e20008 	addiu	v0,ra,8
800019f4:	847f0000 	lh	ra,0(v1)
800019f8:	24420004 	addiu	v0,v0,4
800019fc:	24630002 	addiu	v1,v1,2
80001a00:	03e50018 	mult	ra,a1
80001a04:	00007012 	mflo	t6
80001a08:	ac4efffc 	sw	t6,-4(v0)
80001a0c:	84690000 	lh	t1,0(v1)
80001a10:	24420004 	addiu	v0,v0,4
80001a14:	24630002 	addiu	v1,v1,2
80001a18:	01250018 	mult	t1,a1
80001a1c:	00006812 	mflo	t5
80001a20:	ac4dfffc 	sw	t5,-4(v0)
80001a24:	84680000 	lh	t0,0(v1)
80001a28:	24420004 	addiu	v0,v0,4
80001a2c:	24630002 	addiu	v1,v1,2
80001a30:	01050018 	mult	t0,a1
80001a34:	00006012 	mflo	t4
80001a38:	ac4cfffc 	sw	t4,-4(v0)
80001a3c:	84640000 	lh	a0,0(v1)
80001a40:	24420004 	addiu	v0,v0,4
80001a44:	24630002 	addiu	v1,v1,2
80001a48:	00850018 	mult	a0,a1
80001a4c:	00005812 	mflo	t3
80001a50:	ac4bfffc 	sw	t3,-4(v0)
80001a54:	846f0000 	lh	t7,0(v1)
80001a58:	24420004 	addiu	v0,v0,4
80001a5c:	24630002 	addiu	v1,v1,2
80001a60:	01e50018 	mult	t7,a1
80001a64:	0000b812 	mflo	s7
80001a68:	ac57fffc 	sw	s7,-4(v0)
80001a6c:	84780000 	lh	t8,0(v1)
80001a70:	24420004 	addiu	v0,v0,4
80001a74:	24630002 	addiu	v1,v1,2
80001a78:	03050018 	mult	t8,a1
80001a7c:	0000c812 	mflo	t9
80001a80:	ac59fffc 	sw	t9,-4(v0)
80001a84:	10e20032 	beq	a3,v0,80001b50 <core_bench_matrix+0x3e0>
80001a88:	00000000 	nop
80001a8c:	846a0000 	lh	t2,0(v1)
80001a90:	24630010 	addiu	v1,v1,16
80001a94:	847ffff2 	lh	ra,-14(v1)
80001a98:	24420020 	addiu	v0,v0,32
80001a9c:	01450018 	mult	t2,a1
80001aa0:	846dfff4 	lh	t5,-12(v1)
80001aa4:	846cfff6 	lh	t4,-10(v1)
80001aa8:	00005812 	mflo	t3
80001aac:	846ffff8 	lh	t7,-8(v1)
80001ab0:	00000000 	nop
80001ab4:	03e50018 	mult	ra,a1
80001ab8:	8469fffa 	lh	t1,-6(v1)
80001abc:	8468fffc 	lh	t0,-4(v1)
80001ac0:	8464fffe 	lh	a0,-2(v1)
80001ac4:	00007012 	mflo	t6
	...
80001ad0:	01a50018 	mult	t5,a1
80001ad4:	ac4bffe0 	sw	t3,-32(v0)
80001ad8:	0000b812 	mflo	s7
	...
80001ae4:	01850018 	mult	t4,a1
80001ae8:	ac4effe4 	sw	t6,-28(v0)
80001aec:	0000c012 	mflo	t8
	...
80001af8:	01e50018 	mult	t7,a1
80001afc:	ac57ffe8 	sw	s7,-24(v0)
80001b00:	0000c812 	mflo	t9
	...
80001b0c:	01250018 	mult	t1,a1
80001b10:	ac58ffec 	sw	t8,-20(v0)
80001b14:	00005012 	mflo	t2
	...
80001b20:	01050018 	mult	t0,a1
80001b24:	ac59fff0 	sw	t9,-16(v0)
80001b28:	0000f812 	mflo	ra
	...
80001b34:	00850018 	mult	a0,a1
80001b38:	ac4afff4 	sw	t2,-12(v0)
80001b3c:	00006812 	mflo	t5
80001b40:	ac5ffff8 	sw	ra,-8(v0)
80001b44:	ac4dfffc 	sw	t5,-4(v0)
80001b48:	14e2ffd0 	bne	a3,v0,80001a8c <core_bench_matrix+0x31c>
80001b4c:	00000000 	nop
80001b50:	27de0001 	addiu	s8,s8,1
80001b54:	00d03021 	addu	a2,a2,s0
80001b58:	00e0f825 	move	ra,a3
80001b5c:	16beff7f 	bne	s5,s8,8000195c <core_bench_matrix+0x1ec>
80001b60:	00000000 	nop
80001b64:	00003825 	move	a3,zero
80001b68:	00002025 	move	a0,zero
80001b6c:	00004825 	move	t1,zero
80001b70:	00005025 	move	t2,zero
80001b74:	0240b825 	move	s7,s2
80001b78:	02404025 	move	t0,s2
80001b7c:	01202825 	move	a1,t1
80001b80:	8d090000 	lw	t1,0(t0)
80001b84:	309effff 	andi	s8,a0,0xffff
80001b88:	2686fffc 	addiu	a2,s4,-4
80001b8c:	00a9182a 	slt	v1,a1,t1
80001b90:	27c2000a 	addiu	v0,s8,10
80001b94:	03c37821 	addu	t7,s8,v1
80001b98:	012a5821 	addu	t3,t1,t2
80001b9c:	00066082 	srl	t4,a2,0x2
80001ba0:	00022400 	sll	a0,v0,0x10
80001ba4:	000f5400 	sll	t2,t7,0x10
80001ba8:	022b702a 	slt	t6,s1,t3
80001bac:	0288c021 	addu	t8,s4,t0
80001bb0:	31990003 	andi	t9,t4,0x3
80001bb4:	0004fc03 	sra	ra,a0,0x10
80001bb8:	000a6c03 	sra	t5,t2,0x10
80001bbc:	11c00002 	beqz	t6,80001bc8 <core_bench_matrix+0x458>
80001bc0:	00000000 	nop
80001bc4:	00005825 	move	t3,zero
80001bc8:	01605025 	move	t2,t3
80001bcc:	11c00002 	beqz	t6,80001bd8 <core_bench_matrix+0x468>
80001bd0:	00000000 	nop
80001bd4:	03e06825 	move	t5,ra
80001bd8:	25050004 	addiu	a1,t0,4
80001bdc:	000d4400 	sll	t0,t5,0x10
80001be0:	01203025 	move	a2,t1
80001be4:	00082403 	sra	a0,t0,0x10
80001be8:	13050092 	beq	t8,a1,80001e34 <core_bench_matrix+0x6c4>
80001bec:	00000000 	nop
80001bf0:	13200046 	beqz	t9,80001d0c <core_bench_matrix+0x59c>
80001bf4:	00000000 	nop
80001bf8:	241e0001 	li	s8,1
80001bfc:	133e002d 	beq	t9,s8,80001cb4 <core_bench_matrix+0x544>
80001c00:	00000000 	nop
80001c04:	24030002 	li	v1,2
80001c08:	13230015 	beq	t9,v1,80001c60 <core_bench_matrix+0x4f0>
80001c0c:	00000000 	nop
80001c10:	8ca60000 	lw	a2,0(a1)
80001c14:	308cffff 	andi	t4,a0,0xffff
80001c18:	2582000a 	addiu	v0,t4,10
80001c1c:	0126482a 	slt	t1,t1,a2
80001c20:	01897021 	addu	t6,t4,t1
80001c24:	00cb7821 	addu	t7,a2,t3
80001c28:	00022400 	sll	a0,v0,0x10
80001c2c:	000e5400 	sll	t2,t6,0x10
80001c30:	022fc82a 	slt	t9,s1,t7
80001c34:	0004fc03 	sra	ra,a0,0x10
80001c38:	000a5c03 	sra	t3,t2,0x10
80001c3c:	132004f0 	beqz	t9,80003000 <core_bench_matrix+0x1890>
80001c40:	00000000 	nop
80001c44:	00005025 	move	t2,zero
80001c48:	13200002 	beqz	t9,80001c54 <core_bench_matrix+0x4e4>
80001c4c:	00000000 	nop
80001c50:	03e05825 	move	t3,ra
80001c54:	000b6c00 	sll	t5,t3,0x10
80001c58:	24a50004 	addiu	a1,a1,4
80001c5c:	000d2403 	sra	a0,t5,0x10
80001c60:	8ca80000 	lw	t0,0(a1)
80001c64:	309effff 	andi	s8,a0,0xffff
80001c68:	27c3000a 	addiu	v1,s8,10
80001c6c:	00c8302a 	slt	a2,a2,t0
80001c70:	03c66021 	addu	t4,s8,a2
80001c74:	010a5021 	addu	t2,t0,t2
80001c78:	00031400 	sll	v0,v1,0x10
80001c7c:	000c7400 	sll	t6,t4,0x10
80001c80:	022a782a 	slt	t7,s1,t2
80001c84:	00024c03 	sra	t1,v0,0x10
80001c88:	000ecc03 	sra	t9,t6,0x10
80001c8c:	11e00002 	beqz	t7,80001c98 <core_bench_matrix+0x528>
80001c90:	00000000 	nop
80001c94:	00005025 	move	t2,zero
80001c98:	11e00002 	beqz	t7,80001ca4 <core_bench_matrix+0x534>
80001c9c:	00000000 	nop
80001ca0:	0120c825 	move	t9,t1
80001ca4:	00192400 	sll	a0,t9,0x10
80001ca8:	24a50004 	addiu	a1,a1,4
80001cac:	00042403 	sra	a0,a0,0x10
80001cb0:	01003025 	move	a2,t0
80001cb4:	8ca90000 	lw	t1,0(a1)
80001cb8:	309fffff 	andi	ra,a0,0xffff
80001cbc:	27eb000a 	addiu	t3,ra,10
80001cc0:	00c9682a 	slt	t5,a2,t1
80001cc4:	03ed4021 	addu	t0,ra,t5
80001cc8:	012a5021 	addu	t2,t1,t2
80001ccc:	000b1c00 	sll	v1,t3,0x10
80001cd0:	00087c00 	sll	t7,t0,0x10
80001cd4:	022af02a 	slt	s8,s1,t2
80001cd8:	00036403 	sra	t4,v1,0x10
80001cdc:	000f1403 	sra	v0,t7,0x10
80001ce0:	13c00002 	beqz	s8,80001cec <core_bench_matrix+0x57c>
80001ce4:	00000000 	nop
80001ce8:	00005025 	move	t2,zero
80001cec:	13c00002 	beqz	s8,80001cf8 <core_bench_matrix+0x588>
80001cf0:	00000000 	nop
80001cf4:	01801025 	move	v0,t4
80001cf8:	00027400 	sll	t6,v0,0x10
80001cfc:	24a50004 	addiu	a1,a1,4
80001d00:	000e2403 	sra	a0,t6,0x10
80001d04:	1305004b 	beq	t8,a1,80001e34 <core_bench_matrix+0x6c4>
80001d08:	00000000 	nop
80001d0c:	8cb90000 	lw	t9,0(a1)
80001d10:	3084ffff 	andi	a0,a0,0xffff
80001d14:	2486000a 	addiu	a2,a0,10
80001d18:	0139482a 	slt	t1,t1,t9
80001d1c:	0089f821 	addu	ra,a0,t1
80001d20:	032a5021 	addu	t2,t9,t2
80001d24:	00066c00 	sll	t5,a2,0x10
80001d28:	001f4400 	sll	t0,ra,0x10
80001d2c:	022a582a 	slt	t3,s1,t2
80001d30:	000d1c03 	sra	v1,t5,0x10
80001d34:	0008f403 	sra	s8,t0,0x10
80001d38:	11600002 	beqz	t3,80001d44 <core_bench_matrix+0x5d4>
80001d3c:	00000000 	nop
80001d40:	00005025 	move	t2,zero
80001d44:	15600002 	bnez	t3,80001d50 <core_bench_matrix+0x5e0>
80001d48:	00000000 	nop
80001d4c:	03c01825 	move	v1,s8
80001d50:	8cac0004 	lw	t4,4(a1)
80001d54:	306fffff 	andi	t7,v1,0xffff
80001d58:	25ee000a 	addiu	t6,t7,10
80001d5c:	24a50004 	addiu	a1,a1,4
80001d60:	032c102a 	slt	v0,t9,t4
80001d64:	01e2c821 	addu	t9,t7,v0
80001d68:	018a5821 	addu	t3,t4,t2
80001d6c:	000e2400 	sll	a0,t6,0x10
80001d70:	0019fc00 	sll	ra,t9,0x10
80001d74:	022b302a 	slt	a2,s1,t3
80001d78:	00044c03 	sra	t1,a0,0x10
80001d7c:	001f6c03 	sra	t5,ra,0x10
80001d80:	10c00002 	beqz	a2,80001d8c <core_bench_matrix+0x61c>
80001d84:	00000000 	nop
80001d88:	00005825 	move	t3,zero
80001d8c:	10c00002 	beqz	a2,80001d98 <core_bench_matrix+0x628>
80001d90:	00000000 	nop
80001d94:	01206825 	move	t5,t1
80001d98:	8ca80004 	lw	t0,4(a1)
80001d9c:	31beffff 	andi	s8,t5,0xffff
80001da0:	27c3000a 	addiu	v1,s8,10
80001da4:	0188602a 	slt	t4,t4,t0
80001da8:	03cc7821 	addu	t7,s8,t4
80001dac:	010b5021 	addu	t2,t0,t3
80001db0:	00031400 	sll	v0,v1,0x10
80001db4:	000f3400 	sll	a2,t7,0x10
80001db8:	022a702a 	slt	t6,s1,t2
80001dbc:	0002cc03 	sra	t9,v0,0x10
80001dc0:	00062403 	sra	a0,a2,0x10
80001dc4:	11c00002 	beqz	t6,80001dd0 <core_bench_matrix+0x660>
80001dc8:	00000000 	nop
80001dcc:	00005025 	move	t2,zero
80001dd0:	11c00002 	beqz	t6,80001ddc <core_bench_matrix+0x66c>
80001dd4:	00000000 	nop
80001dd8:	03202025 	move	a0,t9
80001ddc:	8ca90008 	lw	t1,8(a1)
80001de0:	309fffff 	andi	ra,a0,0xffff
80001de4:	27eb000a 	addiu	t3,ra,10
80001de8:	0109682a 	slt	t5,t0,t1
80001dec:	03ed4021 	addu	t0,ra,t5
80001df0:	012a5021 	addu	t2,t1,t2
80001df4:	000b1c00 	sll	v1,t3,0x10
80001df8:	00087c00 	sll	t7,t0,0x10
80001dfc:	022af02a 	slt	s8,s1,t2
80001e00:	00036403 	sra	t4,v1,0x10
80001e04:	000f7403 	sra	t6,t7,0x10
80001e08:	13c00002 	beqz	s8,80001e14 <core_bench_matrix+0x6a4>
80001e0c:	00000000 	nop
80001e10:	00005025 	move	t2,zero
80001e14:	13c00002 	beqz	s8,80001e20 <core_bench_matrix+0x6b0>
80001e18:	00000000 	nop
80001e1c:	01807025 	move	t6,t4
80001e20:	000e1400 	sll	v0,t6,0x10
80001e24:	24a5000c 	addiu	a1,a1,12
80001e28:	00022403 	sra	a0,v0,0x10
80001e2c:	1705ffb7 	bne	t8,a1,80001d0c <core_bench_matrix+0x59c>
80001e30:	00000000 	nop
80001e34:	24e70001 	addiu	a3,a3,1
80001e38:	03004025 	move	t0,t8
80001e3c:	16a7ff4f 	bne	s5,a3,80001b7c <core_bench_matrix+0x40c>
80001e40:	00000000 	nop
80001e44:	00002825 	move	a1,zero
80001e48:	0c001cf0 	jal	800073c0 <crc16>
80001e4c:	00000000 	nop
80001e50:	02544821 	addu	t1,s2,s4
80001e54:	8fb90010 	lw	t9,16(sp)
80001e58:	02d05821 	addu	t3,s6,s0
80001e5c:	873f0000 	lh	ra,0(t9)
80001e60:	0176c023 	subu	t8,t3,s6
80001e64:	86cd0000 	lh	t5,0(s6)
80001e68:	26c30002 	addiu	v1,s6,2
80001e6c:	2706fffe 	addiu	a2,t8,-2
80001e70:	27240002 	addiu	a0,t9,2
80001e74:	03ed0018 	mult	ra,t5
80001e78:	0006f042 	srl	s8,a2,0x1
80001e7c:	33cc0007 	andi	t4,s8,0x7
80001e80:	00002812 	mflo	a1
80001e84:	11630081 	beq	t3,v1,8000208c <core_bench_matrix+0x91c>
80001e88:	00000000 	nop
80001e8c:	11800046 	beqz	t4,80001fa8 <core_bench_matrix+0x838>
80001e90:	00000000 	nop
80001e94:	240f0001 	li	t7,1
80001e98:	118f003a 	beq	t4,t7,80001f84 <core_bench_matrix+0x814>
80001e9c:	00000000 	nop
80001ea0:	240a0002 	li	t2,2
80001ea4:	118a0030 	beq	t4,t2,80001f68 <core_bench_matrix+0x7f8>
80001ea8:	00000000 	nop
80001eac:	240e0003 	li	t6,3
80001eb0:	118e0026 	beq	t4,t6,80001f4c <core_bench_matrix+0x7dc>
80001eb4:	00000000 	nop
80001eb8:	24070004 	li	a3,4
80001ebc:	1187001c 	beq	t4,a3,80001f30 <core_bench_matrix+0x7c0>
80001ec0:	00000000 	nop
80001ec4:	24080005 	li	t0,5
80001ec8:	11880012 	beq	t4,t0,80001f14 <core_bench_matrix+0x7a4>
80001ecc:	00000000 	nop
80001ed0:	24180006 	li	t8,6
80001ed4:	11980008 	beq	t4,t8,80001ef8 <core_bench_matrix+0x788>
80001ed8:	00000000 	nop
80001edc:	849f0000 	lh	ra,0(a0)
80001ee0:	26c30004 	addiu	v1,s6,4
80001ee4:	86cd0002 	lh	t5,2(s6)
80001ee8:	27240004 	addiu	a0,t9,4
80001eec:	03ed0018 	mult	ra,t5
80001ef0:	00003012 	mflo	a2
80001ef4:	00a62821 	addu	a1,a1,a2
80001ef8:	849e0000 	lh	s8,0(a0)
80001efc:	24630002 	addiu	v1,v1,2
80001f00:	846cfffe 	lh	t4,-2(v1)
80001f04:	24840002 	addiu	a0,a0,2
80001f08:	03cc0018 	mult	s8,t4
80001f0c:	00007812 	mflo	t7
80001f10:	00af2821 	addu	a1,a1,t7
80001f14:	848a0000 	lh	t2,0(a0)
80001f18:	24630002 	addiu	v1,v1,2
80001f1c:	846efffe 	lh	t6,-2(v1)
80001f20:	24840002 	addiu	a0,a0,2
80001f24:	014e0018 	mult	t2,t6
80001f28:	00003812 	mflo	a3
80001f2c:	00a72821 	addu	a1,a1,a3
80001f30:	84880000 	lh	t0,0(a0)
80001f34:	24630002 	addiu	v1,v1,2
80001f38:	8478fffe 	lh	t8,-2(v1)
80001f3c:	24840002 	addiu	a0,a0,2
80001f40:	01180018 	mult	t0,t8
80001f44:	0000f812 	mflo	ra
80001f48:	00bf2821 	addu	a1,a1,ra
80001f4c:	848d0000 	lh	t5,0(a0)
80001f50:	24630002 	addiu	v1,v1,2
80001f54:	8466fffe 	lh	a2,-2(v1)
80001f58:	24840002 	addiu	a0,a0,2
80001f5c:	01a60018 	mult	t5,a2
80001f60:	0000f012 	mflo	s8
80001f64:	00be2821 	addu	a1,a1,s8
80001f68:	848c0000 	lh	t4,0(a0)
80001f6c:	24630002 	addiu	v1,v1,2
80001f70:	846ffffe 	lh	t7,-2(v1)
80001f74:	24840002 	addiu	a0,a0,2
80001f78:	018f0018 	mult	t4,t7
80001f7c:	00005012 	mflo	t2
80001f80:	00aa2821 	addu	a1,a1,t2
80001f84:	24630002 	addiu	v1,v1,2
80001f88:	848e0000 	lh	t6,0(a0)
80001f8c:	8467fffe 	lh	a3,-2(v1)
80001f90:	24840002 	addiu	a0,a0,2
80001f94:	01c70018 	mult	t6,a3
80001f98:	00004012 	mflo	t0
80001f9c:	00a82821 	addu	a1,a1,t0
80001fa0:	1163003a 	beq	t3,v1,8000208c <core_bench_matrix+0x91c>
80001fa4:	00000000 	nop
80001fa8:	24630010 	addiu	v1,v1,16
80001fac:	84980000 	lh	t8,0(a0)
80001fb0:	847ffff0 	lh	ra,-16(v1)
80001fb4:	24840010 	addiu	a0,a0,16
80001fb8:	846dfff2 	lh	t5,-14(v1)
80001fbc:	846cfff4 	lh	t4,-12(v1)
80001fc0:	031f0018 	mult	t8,ra
80001fc4:	849efff2 	lh	s8,-14(a0)
80001fc8:	848afff4 	lh	t2,-12(a0)
80001fcc:	8498fff6 	lh	t8,-10(a0)
80001fd0:	8468fff6 	lh	t0,-10(v1)
80001fd4:	00003012 	mflo	a2
80001fd8:	848ffff8 	lh	t7,-8(a0)
80001fdc:	00000000 	nop
80001fe0:	03cd0018 	mult	s8,t5
80001fe4:	8467fff8 	lh	a3,-8(v1)
80001fe8:	00007012 	mflo	t6
	...
80001ff4:	014c0018 	mult	t2,t4
80001ff8:	848afffa 	lh	t2,-6(a0)
80001ffc:	00a62821 	addu	a1,a1,a2
80002000:	8466fffa 	lh	a2,-6(v1)
80002004:	0000f812 	mflo	ra
	...
80002010:	03080018 	mult	t8,t0
80002014:	8488fffc 	lh	t0,-4(a0)
80002018:	00aef021 	addu	s8,a1,t6
8000201c:	8465fffc 	lh	a1,-4(v1)
80002020:	848efffe 	lh	t6,-2(a0)
80002024:	00006012 	mflo	t4
	...
80002030:	01e70018 	mult	t7,a3
80002034:	8467fffe 	lh	a3,-2(v1)
80002038:	03df6821 	addu	t5,s8,ra
8000203c:	0000c012 	mflo	t8
	...
80002048:	01460018 	mult	t2,a2
8000204c:	01acf821 	addu	ra,t5,t4
80002050:	00007812 	mflo	t7
	...
8000205c:	01050018 	mult	t0,a1
80002060:	03f85021 	addu	t2,ra,t8
80002064:	0000f012 	mflo	s8
	...
80002070:	01c70018 	mult	t6,a3
80002074:	014f3021 	addu	a2,t2,t7
80002078:	00006012 	mflo	t4
8000207c:	00dec021 	addu	t8,a2,s8
80002080:	030c2821 	addu	a1,t8,t4
80002084:	1563ffc8 	bne	t3,v1,80001fa8 <core_bench_matrix+0x838>
80002088:	00000000 	nop
8000208c:	aee50000 	sw	a1,0(s7)
80002090:	26f70004 	addiu	s7,s7,4
80002094:	0330c821 	addu	t9,t9,s0
80002098:	16e9ff70 	bne	s7,t1,80001e5c <core_bench_matrix+0x6ec>
8000209c:	00000000 	nop
800020a0:	00004025 	move	t0,zero
800020a4:	00004825 	move	t1,zero
800020a8:	00002025 	move	a0,zero
800020ac:	00005025 	move	t2,zero
800020b0:	0240b825 	move	s7,s2
800020b4:	02402825 	move	a1,s2
800020b8:	0120c825 	move	t9,t1
800020bc:	8ca90000 	lw	t1,0(a1)
800020c0:	3084ffff 	andi	a0,a0,0xffff
800020c4:	268bfffc 	addiu	t3,s4,-4
800020c8:	0329682a 	slt	t5,t9,t1
800020cc:	2483000a 	addiu	v1,a0,10
800020d0:	008df821 	addu	ra,a0,t5
800020d4:	012a7821 	addu	t7,t1,t2
800020d8:	000b7082 	srl	t6,t3,0x2
800020dc:	00035400 	sll	t2,v1,0x10
800020e0:	001fc400 	sll	t8,ra,0x10
800020e4:	022f382a 	slt	a3,s1,t7
800020e8:	0285f021 	addu	s8,s4,a1
800020ec:	31cc0003 	andi	t4,t6,0x3
800020f0:	000a3403 	sra	a2,t2,0x10
800020f4:	00185c03 	sra	t3,t8,0x10
800020f8:	10e003bd 	beqz	a3,80002ff0 <core_bench_matrix+0x1880>
800020fc:	00000000 	nop
80002100:	0000c825 	move	t9,zero
80002104:	03205025 	move	t2,t9
80002108:	10e00002 	beqz	a3,80002114 <core_bench_matrix+0x9a4>
8000210c:	00000000 	nop
80002110:	00c05825 	move	t3,a2
80002114:	000b2400 	sll	a0,t3,0x10
80002118:	24a50004 	addiu	a1,a1,4
8000211c:	00042403 	sra	a0,a0,0x10
80002120:	01203825 	move	a3,t1
80002124:	13c50092 	beq	s8,a1,80002370 <core_bench_matrix+0xc00>
80002128:	00000000 	nop
8000212c:	11800046 	beqz	t4,80002248 <core_bench_matrix+0xad8>
80002130:	00000000 	nop
80002134:	240f0001 	li	t7,1
80002138:	118f002d 	beq	t4,t7,800021f0 <core_bench_matrix+0xa80>
8000213c:	00000000 	nop
80002140:	240d0002 	li	t5,2
80002144:	118d0015 	beq	t4,t5,8000219c <core_bench_matrix+0xa2c>
80002148:	00000000 	nop
8000214c:	8ca70000 	lw	a3,0(a1)
80002150:	308effff 	andi	t6,a0,0xffff
80002154:	25c3000a 	addiu	v1,t6,10
80002158:	0127482a 	slt	t1,t1,a3
8000215c:	01c9f821 	addu	ra,t6,t1
80002160:	00f95021 	addu	t2,a3,t9
80002164:	00033400 	sll	a2,v1,0x10
80002168:	001fcc00 	sll	t9,ra,0x10
8000216c:	022a602a 	slt	t4,s1,t2
80002170:	0006c403 	sra	t8,a2,0x10
80002174:	00195c03 	sra	t3,t9,0x10
80002178:	11800002 	beqz	t4,80002184 <core_bench_matrix+0xa14>
8000217c:	00000000 	nop
80002180:	00005025 	move	t2,zero
80002184:	11800002 	beqz	t4,80002190 <core_bench_matrix+0xa20>
80002188:	00000000 	nop
8000218c:	03005825 	move	t3,t8
80002190:	000b2400 	sll	a0,t3,0x10
80002194:	24a50004 	addiu	a1,a1,4
80002198:	00042403 	sra	a0,a0,0x10
8000219c:	8caf0000 	lw	t7,0(a1)
800021a0:	308dffff 	andi	t5,a0,0xffff
800021a4:	25ae000a 	addiu	t6,t5,10
800021a8:	00ef382a 	slt	a3,a3,t7
800021ac:	01a74821 	addu	t1,t5,a3
800021b0:	01ea5021 	addu	t2,t7,t2
800021b4:	000e1c00 	sll	v1,t6,0x10
800021b8:	00093400 	sll	a2,t1,0x10
800021bc:	022af82a 	slt	ra,s1,t2
800021c0:	00036403 	sra	t4,v1,0x10
800021c4:	0006c403 	sra	t8,a2,0x10
800021c8:	13e00002 	beqz	ra,800021d4 <core_bench_matrix+0xa64>
800021cc:	00000000 	nop
800021d0:	00005025 	move	t2,zero
800021d4:	13e00002 	beqz	ra,800021e0 <core_bench_matrix+0xa70>
800021d8:	00000000 	nop
800021dc:	0180c025 	move	t8,t4
800021e0:	0018cc00 	sll	t9,t8,0x10
800021e4:	24a50004 	addiu	a1,a1,4
800021e8:	00192403 	sra	a0,t9,0x10
800021ec:	01e03825 	move	a3,t7
800021f0:	8ca90000 	lw	t1,0(a1)
800021f4:	308bffff 	andi	t3,a0,0xffff
800021f8:	256f000a 	addiu	t7,t3,10
800021fc:	00e9202a 	slt	a0,a3,t1
80002200:	01646821 	addu	t5,t3,a0
80002204:	012a5021 	addu	t2,t1,t2
80002208:	000ffc00 	sll	ra,t7,0x10
8000220c:	000d6400 	sll	t4,t5,0x10
80002210:	022a702a 	slt	t6,s1,t2
80002214:	001f1c03 	sra	v1,ra,0x10
80002218:	000c3403 	sra	a2,t4,0x10
8000221c:	11c00002 	beqz	t6,80002228 <core_bench_matrix+0xab8>
80002220:	00000000 	nop
80002224:	00005025 	move	t2,zero
80002228:	11c00002 	beqz	t6,80002234 <core_bench_matrix+0xac4>
8000222c:	00000000 	nop
80002230:	00603025 	move	a2,v1
80002234:	0006c400 	sll	t8,a2,0x10
80002238:	24a50004 	addiu	a1,a1,4
8000223c:	00182403 	sra	a0,t8,0x10
80002240:	13c5004b 	beq	s8,a1,80002370 <core_bench_matrix+0xc00>
80002244:	00000000 	nop
80002248:	8cb90000 	lw	t9,0(a1)
8000224c:	3087ffff 	andi	a3,a0,0xffff
80002250:	24eb000a 	addiu	t3,a3,10
80002254:	0139482a 	slt	t1,t1,t9
80002258:	00e97821 	addu	t7,a3,t1
8000225c:	032a5021 	addu	t2,t9,t2
80002260:	000b2400 	sll	a0,t3,0x10
80002264:	000f7400 	sll	t6,t7,0x10
80002268:	022a682a 	slt	t5,s1,t2
8000226c:	00041c03 	sra	v1,a0,0x10
80002270:	000efc03 	sra	ra,t6,0x10
80002274:	11a00002 	beqz	t5,80002280 <core_bench_matrix+0xb10>
80002278:	00000000 	nop
8000227c:	00005025 	move	t2,zero
80002280:	15a00002 	bnez	t5,8000228c <core_bench_matrix+0xb1c>
80002284:	00000000 	nop
80002288:	03e01825 	move	v1,ra
8000228c:	8cac0004 	lw	t4,4(a1)
80002290:	3066ffff 	andi	a2,v1,0xffff
80002294:	24d8000a 	addiu	t8,a2,10
80002298:	24a50004 	addiu	a1,a1,4
8000229c:	032cc82a 	slt	t9,t9,t4
800022a0:	00d95821 	addu	t3,a2,t9
800022a4:	018a2021 	addu	a0,t4,t2
800022a8:	00184c00 	sll	t1,t8,0x10
800022ac:	000b6c00 	sll	t5,t3,0x10
800022b0:	0224382a 	slt	a3,s1,a0
800022b4:	00097c03 	sra	t7,t1,0x10
800022b8:	000d7403 	sra	t6,t5,0x10
800022bc:	10e00002 	beqz	a3,800022c8 <core_bench_matrix+0xb58>
800022c0:	00000000 	nop
800022c4:	00002025 	move	a0,zero
800022c8:	10e00002 	beqz	a3,800022d4 <core_bench_matrix+0xb64>
800022cc:	00000000 	nop
800022d0:	01e07025 	move	t6,t7
800022d4:	8cbf0004 	lw	ra,4(a1)
800022d8:	31c3ffff 	andi	v1,t6,0xffff
800022dc:	2466000a 	addiu	a2,v1,10
800022e0:	019f602a 	slt	t4,t4,ra
800022e4:	006cc021 	addu	t8,v1,t4
800022e8:	03e45021 	addu	t2,ra,a0
800022ec:	00065c00 	sll	t3,a2,0x10
800022f0:	00184c00 	sll	t1,t8,0x10
800022f4:	022ac82a 	slt	t9,s1,t2
800022f8:	000b3c03 	sra	a3,t3,0x10
800022fc:	00097c03 	sra	t7,t1,0x10
80002300:	13200002 	beqz	t9,8000230c <core_bench_matrix+0xb9c>
80002304:	00000000 	nop
80002308:	00005025 	move	t2,zero
8000230c:	13200002 	beqz	t9,80002318 <core_bench_matrix+0xba8>
80002310:	00000000 	nop
80002314:	00e07825 	move	t7,a3
80002318:	8ca90008 	lw	t1,8(a1)
8000231c:	31edffff 	andi	t5,t7,0xffff
80002320:	25ae000a 	addiu	t6,t5,10
80002324:	03e9202a 	slt	a0,ra,t1
80002328:	01a4f821 	addu	ra,t5,a0
8000232c:	012a5021 	addu	t2,t1,t2
80002330:	000e1c00 	sll	v1,t6,0x10
80002334:	001fc400 	sll	t8,ra,0x10
80002338:	022a302a 	slt	a2,s1,t2
8000233c:	00036403 	sra	t4,v1,0x10
80002340:	0018cc03 	sra	t9,t8,0x10
80002344:	10c00002 	beqz	a2,80002350 <core_bench_matrix+0xbe0>
80002348:	00000000 	nop
8000234c:	00005025 	move	t2,zero
80002350:	10c00002 	beqz	a2,8000235c <core_bench_matrix+0xbec>
80002354:	00000000 	nop
80002358:	0180c825 	move	t9,t4
8000235c:	00195c00 	sll	t3,t9,0x10
80002360:	24a5000c 	addiu	a1,a1,12
80002364:	000b2403 	sra	a0,t3,0x10
80002368:	17c5ffb7 	bne	s8,a1,80002248 <core_bench_matrix+0xad8>
8000236c:	00000000 	nop
80002370:	25080001 	addiu	t0,t0,1
80002374:	03c02825 	move	a1,s8
80002378:	16a8ff4f 	bne	s5,t0,800020b8 <core_bench_matrix+0x948>
8000237c:	00000000 	nop
80002380:	00402825 	move	a1,v0
80002384:	0c001cf0 	jal	800073c0 <crc16>
80002388:	00000000 	nop
8000238c:	0000f025 	move	s8,zero
80002390:	8faf0010 	lw	t7,16(sp)
80002394:	02d0f821 	addu	ra,s6,s0
80002398:	afa20014 	sw	v0,20(sp)
8000239c:	020f6021 	addu	t4,s0,t7
800023a0:	02c05825 	move	t3,s6
800023a4:	02e06825 	move	t5,s7
800023a8:	85620000 	lh	v0,0(t3)
800023ac:	018f3823 	subu	a3,t4,t7
800023b0:	85e90000 	lh	t1,0(t7)
800023b4:	25ea0002 	addiu	t2,t7,2
800023b8:	24e4fffe 	addiu	a0,a3,-2
800023bc:	01707021 	addu	t6,t3,s0
800023c0:	01220018 	mult	t1,v0
800023c4:	00043042 	srl	a2,a0,0x1
800023c8:	30c30007 	andi	v1,a2,0x7
800023cc:	00001012 	mflo	v0
800023d0:	114c0087 	beq	t2,t4,800025f0 <core_bench_matrix+0xe80>
800023d4:	00000000 	nop
800023d8:	10600046 	beqz	v1,800024f4 <core_bench_matrix+0xd84>
800023dc:	00000000 	nop
800023e0:	24180001 	li	t8,1
800023e4:	1078003a 	beq	v1,t8,800024d0 <core_bench_matrix+0xd60>
800023e8:	00000000 	nop
800023ec:	24190002 	li	t9,2
800023f0:	10790030 	beq	v1,t9,800024b4 <core_bench_matrix+0xd44>
800023f4:	00000000 	nop
800023f8:	24080003 	li	t0,3
800023fc:	10680026 	beq	v1,t0,80002498 <core_bench_matrix+0xd28>
80002400:	00000000 	nop
80002404:	24050004 	li	a1,4
80002408:	1065001c 	beq	v1,a1,8000247c <core_bench_matrix+0xd0c>
8000240c:	00000000 	nop
80002410:	24070005 	li	a3,5
80002414:	10670012 	beq	v1,a3,80002460 <core_bench_matrix+0xcf0>
80002418:	00000000 	nop
8000241c:	24090006 	li	t1,6
80002420:	10690008 	beq	v1,t1,80002444 <core_bench_matrix+0xcd4>
80002424:	00000000 	nop
80002428:	85460000 	lh	a2,0(t2)
8000242c:	25ea0004 	addiu	t2,t7,4
80002430:	85c40000 	lh	a0,0(t6)
80002434:	01d07021 	addu	t6,t6,s0
80002438:	00c40018 	mult	a2,a0
8000243c:	00001812 	mflo	v1
80002440:	00431021 	addu	v0,v0,v1
80002444:	85580000 	lh	t8,0(t2)
80002448:	254a0002 	addiu	t2,t2,2
8000244c:	85d90000 	lh	t9,0(t6)
80002450:	01d07021 	addu	t6,t6,s0
80002454:	03190018 	mult	t8,t9
80002458:	00004012 	mflo	t0
8000245c:	00481021 	addu	v0,v0,t0
80002460:	85450000 	lh	a1,0(t2)
80002464:	254a0002 	addiu	t2,t2,2
80002468:	85c70000 	lh	a3,0(t6)
8000246c:	01d07021 	addu	t6,t6,s0
80002470:	00a70018 	mult	a1,a3
80002474:	00004812 	mflo	t1
80002478:	00491021 	addu	v0,v0,t1
8000247c:	85460000 	lh	a2,0(t2)
80002480:	254a0002 	addiu	t2,t2,2
80002484:	85c40000 	lh	a0,0(t6)
80002488:	01d07021 	addu	t6,t6,s0
8000248c:	00c40018 	mult	a2,a0
80002490:	00001812 	mflo	v1
80002494:	00431021 	addu	v0,v0,v1
80002498:	85580000 	lh	t8,0(t2)
8000249c:	254a0002 	addiu	t2,t2,2
800024a0:	85d90000 	lh	t9,0(t6)
800024a4:	01d07021 	addu	t6,t6,s0
800024a8:	03190018 	mult	t8,t9
800024ac:	00004012 	mflo	t0
800024b0:	00481021 	addu	v0,v0,t0
800024b4:	85450000 	lh	a1,0(t2)
800024b8:	254a0002 	addiu	t2,t2,2
800024bc:	85c70000 	lh	a3,0(t6)
800024c0:	01d07021 	addu	t6,t6,s0
800024c4:	00a70018 	mult	a1,a3
800024c8:	00004812 	mflo	t1
800024cc:	00491021 	addu	v0,v0,t1
800024d0:	85460000 	lh	a2,0(t2)
800024d4:	254a0002 	addiu	t2,t2,2
800024d8:	85c40000 	lh	a0,0(t6)
800024dc:	01d07021 	addu	t6,t6,s0
800024e0:	00c40018 	mult	a2,a0
800024e4:	00001812 	mflo	v1
800024e8:	00431021 	addu	v0,v0,v1
800024ec:	114c0040 	beq	t2,t4,800025f0 <core_bench_matrix+0xe80>
800024f0:	00000000 	nop
800024f4:	85580000 	lh	t8,0(t2)
800024f8:	01d0c821 	addu	t9,t6,s0
800024fc:	85c80000 	lh	t0,0(t6)
80002500:	254a0010 	addiu	t2,t2,16
80002504:	03304821 	addu	t1,t9,s0
80002508:	87250000 	lh	a1,0(t9)
8000250c:	03080018 	mult	t8,t0
80002510:	8546fff2 	lh	a2,-14(t2)
80002514:	85390000 	lh	t9,0(t1)
80002518:	01302021 	addu	a0,t1,s0
8000251c:	8547fff4 	lh	a3,-12(t2)
80002520:	854efff6 	lh	t6,-10(t2)
80002524:	00901821 	addu	v1,a0,s0
80002528:	0000c012 	mflo	t8
8000252c:	84890000 	lh	t1,0(a0)
80002530:	00000000 	nop
80002534:	00c50018 	mult	a2,a1
80002538:	8545fff8 	lh	a1,-8(t2)
8000253c:	00703021 	addu	a2,v1,s0
80002540:	84630000 	lh	v1,0(v1)
80002544:	00004012 	mflo	t0
80002548:	84c40000 	lh	a0,0(a2)
8000254c:	00000000 	nop
80002550:	00f90018 	mult	a3,t9
80002554:	8559fffa 	lh	t9,-6(t2)
80002558:	0058c021 	addu	t8,v0,t8
8000255c:	00d01021 	addu	v0,a2,s0
80002560:	00003812 	mflo	a3
	...
8000256c:	01c90018 	mult	t6,t1
80002570:	8549fffe 	lh	t1,-2(t2)
80002574:	03084021 	addu	t0,t8,t0
80002578:	8558fffc 	lh	t8,-4(t2)
8000257c:	00507021 	addu	t6,v0,s0
80002580:	84420000 	lh	v0,0(v0)
80002584:	00003012 	mflo	a2
	...
80002590:	00a30018 	mult	a1,v1
80002594:	01073821 	addu	a3,t0,a3
80002598:	85c80000 	lh	t0,0(t6)
8000259c:	01d07021 	addu	t6,t6,s0
800025a0:	00002812 	mflo	a1
	...
800025ac:	03240018 	mult	t9,a0
800025b0:	00e61821 	addu	v1,a3,a2
800025b4:	0000c812 	mflo	t9
	...
800025c0:	03020018 	mult	t8,v0
800025c4:	00652021 	addu	a0,v1,a1
800025c8:	0000c012 	mflo	t8
	...
800025d4:	01280018 	mult	t1,t0
800025d8:	00994821 	addu	t1,a0,t9
800025dc:	00003012 	mflo	a2
800025e0:	01381021 	addu	v0,t1,t8
800025e4:	00461021 	addu	v0,v0,a2
800025e8:	154cffc2 	bne	t2,t4,800024f4 <core_bench_matrix+0xd84>
800025ec:	00000000 	nop
800025f0:	256b0002 	addiu	t3,t3,2
800025f4:	ada20000 	sw	v0,0(t5)
800025f8:	25ad0004 	addiu	t5,t5,4
800025fc:	157fff6a 	bne	t3,ra,800023a8 <core_bench_matrix+0xc38>
80002600:	00000000 	nop
80002604:	27de0001 	addiu	s8,s8,1
80002608:	02f4b821 	addu	s7,s7,s4
8000260c:	01407825 	move	t7,t2
80002610:	16beff62 	bne	s5,s8,8000239c <core_bench_matrix+0xc2c>
80002614:	00000000 	nop
80002618:	00003025 	move	a2,zero
8000261c:	00004825 	move	t1,zero
80002620:	00002025 	move	a0,zero
80002624:	00005025 	move	t2,zero
80002628:	0240b825 	move	s7,s2
8000262c:	02403825 	move	a3,s2
80002630:	01206025 	move	t4,t1
80002634:	8ce90000 	lw	t1,0(a3)
80002638:	308effff 	andi	t6,a0,0xffff
8000263c:	269ffffc 	addiu	ra,s4,-4
80002640:	012a4021 	addu	t0,t1,t2
80002644:	0189502a 	slt	t2,t4,t1
80002648:	25d8000a 	addiu	t8,t6,10
8000264c:	01ca2021 	addu	a0,t6,t2
80002650:	001fc882 	srl	t9,ra,0x2
80002654:	00181400 	sll	v0,t8,0x10
80002658:	0004f400 	sll	s8,a0,0x10
8000265c:	0228282a 	slt	a1,s1,t0
80002660:	02871821 	addu	v1,s4,a3
80002664:	332b0003 	andi	t3,t9,0x3
80002668:	00026c03 	sra	t5,v0,0x10
8000266c:	001e7c03 	sra	t7,s8,0x10
80002670:	10a00002 	beqz	a1,8000267c <core_bench_matrix+0xf0c>
80002674:	00000000 	nop
80002678:	00004025 	move	t0,zero
8000267c:	01005025 	move	t2,t0
80002680:	10a00002 	beqz	a1,8000268c <core_bench_matrix+0xf1c>
80002684:	00000000 	nop
80002688:	01a07825 	move	t7,t5
8000268c:	24e50004 	addiu	a1,a3,4
80002690:	000f3c00 	sll	a3,t7,0x10
80002694:	00072403 	sra	a0,a3,0x10
80002698:	01203825 	move	a3,t1
8000269c:	10650092 	beq	v1,a1,800028e8 <core_bench_matrix+0x1178>
800026a0:	00000000 	nop
800026a4:	11600046 	beqz	t3,800027c0 <core_bench_matrix+0x1050>
800026a8:	00000000 	nop
800026ac:	240c0001 	li	t4,1
800026b0:	116c002d 	beq	t3,t4,80002768 <core_bench_matrix+0xff8>
800026b4:	00000000 	nop
800026b8:	241f0002 	li	ra,2
800026bc:	117f0015 	beq	t3,ra,80002714 <core_bench_matrix+0xfa4>
800026c0:	00000000 	nop
800026c4:	8ca70000 	lw	a3,0(a1)
800026c8:	308effff 	andi	t6,a0,0xffff
800026cc:	25d9000a 	addiu	t9,t6,10
800026d0:	0127482a 	slt	t1,t1,a3
800026d4:	01c9c021 	addu	t8,t6,t1
800026d8:	00e85021 	addu	t2,a3,t0
800026dc:	00192400 	sll	a0,t9,0x10
800026e0:	00186c00 	sll	t5,t8,0x10
800026e4:	022a582a 	slt	t3,s1,t2
800026e8:	00041403 	sra	v0,a0,0x10
800026ec:	000df403 	sra	s8,t5,0x10
800026f0:	11600002 	beqz	t3,800026fc <core_bench_matrix+0xf8c>
800026f4:	00000000 	nop
800026f8:	00005025 	move	t2,zero
800026fc:	11600002 	beqz	t3,80002708 <core_bench_matrix+0xf98>
80002700:	00000000 	nop
80002704:	0040f025 	move	s8,v0
80002708:	001e4400 	sll	t0,s8,0x10
8000270c:	24a50004 	addiu	a1,a1,4
80002710:	00082403 	sra	a0,t0,0x10
80002714:	8caf0000 	lw	t7,0(a1)
80002718:	308cffff 	andi	t4,a0,0xffff
8000271c:	259f000a 	addiu	ra,t4,10
80002720:	00ef382a 	slt	a3,a3,t7
80002724:	01877021 	addu	t6,t4,a3
80002728:	01ea5021 	addu	t2,t7,t2
8000272c:	001f4c00 	sll	t1,ra,0x10
80002730:	000e5c00 	sll	t3,t6,0x10
80002734:	022ac82a 	slt	t9,s1,t2
80002738:	0009c403 	sra	t8,t1,0x10
8000273c:	000b2403 	sra	a0,t3,0x10
80002740:	13200002 	beqz	t9,8000274c <core_bench_matrix+0xfdc>
80002744:	00000000 	nop
80002748:	00005025 	move	t2,zero
8000274c:	13200002 	beqz	t9,80002758 <core_bench_matrix+0xfe8>
80002750:	00000000 	nop
80002754:	03002025 	move	a0,t8
80002758:	00041400 	sll	v0,a0,0x10
8000275c:	24a50004 	addiu	a1,a1,4
80002760:	00022403 	sra	a0,v0,0x10
80002764:	01e03825 	move	a3,t7
80002768:	8ca90000 	lw	t1,0(a1)
8000276c:	308dffff 	andi	t5,a0,0xffff
80002770:	25be000a 	addiu	s8,t5,10
80002774:	00e9402a 	slt	t0,a3,t1
80002778:	01a87821 	addu	t7,t5,t0
8000277c:	012a5021 	addu	t2,t1,t2
80002780:	001efc00 	sll	ra,s8,0x10
80002784:	000fcc00 	sll	t9,t7,0x10
80002788:	022a602a 	slt	t4,s1,t2
8000278c:	001f7403 	sra	t6,ra,0x10
80002790:	0019c403 	sra	t8,t9,0x10
80002794:	11800002 	beqz	t4,800027a0 <core_bench_matrix+0x1030>
80002798:	00000000 	nop
8000279c:	00005025 	move	t2,zero
800027a0:	11800002 	beqz	t4,800027ac <core_bench_matrix+0x103c>
800027a4:	00000000 	nop
800027a8:	01c0c025 	move	t8,t6
800027ac:	00185c00 	sll	t3,t8,0x10
800027b0:	24a50004 	addiu	a1,a1,4
800027b4:	000b2403 	sra	a0,t3,0x10
800027b8:	1065004b 	beq	v1,a1,800028e8 <core_bench_matrix+0x1178>
800027bc:	00000000 	nop
800027c0:	8ca70000 	lw	a3,0(a1)
800027c4:	3084ffff 	andi	a0,a0,0xffff
800027c8:	2482000a 	addiu	v0,a0,10
800027cc:	0127482a 	slt	t1,t1,a3
800027d0:	00896821 	addu	t5,a0,t1
800027d4:	00ea5021 	addu	t2,a3,t2
800027d8:	00024400 	sll	t0,v0,0x10
800027dc:	000d7c00 	sll	t7,t5,0x10
800027e0:	022af02a 	slt	s8,s1,t2
800027e4:	0008fc03 	sra	ra,t0,0x10
800027e8:	000f6403 	sra	t4,t7,0x10
800027ec:	13c00002 	beqz	s8,800027f8 <core_bench_matrix+0x1088>
800027f0:	00000000 	nop
800027f4:	00005025 	move	t2,zero
800027f8:	17c00002 	bnez	s8,80002804 <core_bench_matrix+0x1094>
800027fc:	00000000 	nop
80002800:	0180f825 	move	ra,t4
80002804:	8cae0004 	lw	t6,4(a1)
80002808:	33f9ffff 	andi	t9,ra,0xffff
8000280c:	2738000a 	addiu	t8,t9,10
80002810:	24a50004 	addiu	a1,a1,4
80002814:	00ee582a 	slt	t3,a3,t6
80002818:	032b1021 	addu	v0,t9,t3
8000281c:	01caf021 	addu	s8,t6,t2
80002820:	00182400 	sll	a0,t8,0x10
80002824:	00026c00 	sll	t5,v0,0x10
80002828:	023e382a 	slt	a3,s1,s8
8000282c:	00044c03 	sra	t1,a0,0x10
80002830:	000d7c03 	sra	t7,t5,0x10
80002834:	10e00002 	beqz	a3,80002840 <core_bench_matrix+0x10d0>
80002838:	00000000 	nop
8000283c:	0000f025 	move	s8,zero
80002840:	10e00002 	beqz	a3,8000284c <core_bench_matrix+0x10dc>
80002844:	00000000 	nop
80002848:	01207825 	move	t7,t1
8000284c:	8ca80004 	lw	t0,4(a1)
80002850:	31ecffff 	andi	t4,t7,0xffff
80002854:	259f000a 	addiu	ra,t4,10
80002858:	01c8702a 	slt	t6,t6,t0
8000285c:	018ec821 	addu	t9,t4,t6
80002860:	011e5021 	addu	t2,t0,s8
80002864:	001f5c00 	sll	t3,ra,0x10
80002868:	00193c00 	sll	a3,t9,0x10
8000286c:	022ac02a 	slt	t8,s1,t2
80002870:	000b1403 	sra	v0,t3,0x10
80002874:	00072403 	sra	a0,a3,0x10
80002878:	13000002 	beqz	t8,80002884 <core_bench_matrix+0x1114>
8000287c:	00000000 	nop
80002880:	00005025 	move	t2,zero
80002884:	13000002 	beqz	t8,80002890 <core_bench_matrix+0x1120>
80002888:	00000000 	nop
8000288c:	00402025 	move	a0,v0
80002890:	8ca90008 	lw	t1,8(a1)
80002894:	308dffff 	andi	t5,a0,0xffff
80002898:	25be000a 	addiu	s8,t5,10
8000289c:	0109782a 	slt	t7,t0,t1
800028a0:	01af4021 	addu	t0,t5,t7
800028a4:	012a5021 	addu	t2,t1,t2
800028a8:	001efc00 	sll	ra,s8,0x10
800028ac:	0008cc00 	sll	t9,t0,0x10
800028b0:	022a602a 	slt	t4,s1,t2
800028b4:	001f7403 	sra	t6,ra,0x10
800028b8:	0019c403 	sra	t8,t9,0x10
800028bc:	11800002 	beqz	t4,800028c8 <core_bench_matrix+0x1158>
800028c0:	00000000 	nop
800028c4:	00005025 	move	t2,zero
800028c8:	11800002 	beqz	t4,800028d4 <core_bench_matrix+0x1164>
800028cc:	00000000 	nop
800028d0:	01c0c025 	move	t8,t6
800028d4:	00185c00 	sll	t3,t8,0x10
800028d8:	24a5000c 	addiu	a1,a1,12
800028dc:	000b2403 	sra	a0,t3,0x10
800028e0:	1465ffb7 	bne	v1,a1,800027c0 <core_bench_matrix+0x1050>
800028e4:	00000000 	nop
800028e8:	24c60001 	addiu	a2,a2,1
800028ec:	00603825 	move	a3,v1
800028f0:	16a6ff4f 	bne	s5,a2,80002630 <core_bench_matrix+0xec0>
800028f4:	00000000 	nop
800028f8:	8fa50014 	lw	a1,20(sp)
800028fc:	0c001cf0 	jal	800073c0 <crc16>
80002900:	00000000 	nop
80002904:	02d07021 	addu	t6,s6,s0
80002908:	8fbe0010 	lw	s8,16(sp)
8000290c:	0000c825 	move	t9,zero
80002910:	021e5021 	addu	t2,s0,s8
80002914:	02c05825 	move	t3,s6
80002918:	02e06025 	move	t4,s7
8000291c:	87c30000 	lh	v1,0(s8)
80002920:	015e2023 	subu	a0,t2,s8
80002924:	856d0000 	lh	t5,0(t3)
80002928:	27c60002 	addiu	a2,s8,2
8000292c:	248ffffe 	addiu	t7,a0,-2
80002930:	01704821 	addu	t1,t3,s0
80002934:	006d0018 	mult	v1,t5
80002938:	000f4042 	srl	t0,t7,0x1
8000293c:	311f0003 	andi	ra,t0,0x3
80002940:	00001812 	mflo	v1
80002944:	00032883 	sra	a1,v1,0x2
80002948:	00033943 	sra	a3,v1,0x5
8000294c:	30b8000f 	andi	t8,a1,0xf
80002950:	30e4007f 	andi	a0,a3,0x7f
80002954:	03040018 	mult	t8,a0
80002958:	00007812 	mflo	t7
8000295c:	11460072 	beq	t2,a2,80002b28 <core_bench_matrix+0x13b8>
80002960:	00000000 	nop
80002964:	13e00030 	beqz	ra,80002a28 <core_bench_matrix+0x12b8>
80002968:	00000000 	nop
8000296c:	240d0001 	li	t5,1
80002970:	13ed001e 	beq	ra,t5,800029ec <core_bench_matrix+0x127c>
80002974:	00000000 	nop
80002978:	24030002 	li	v1,2
8000297c:	13e3000e 	beq	ra,v1,800029b8 <core_bench_matrix+0x1248>
80002980:	00000000 	nop
80002984:	84c80000 	lh	t0,0(a2)
80002988:	27c60004 	addiu	a2,s8,4
8000298c:	853f0000 	lh	ra,0(t1)
80002990:	01304821 	addu	t1,t1,s0
80002994:	011f0018 	mult	t0,ra
80002998:	00002812 	mflo	a1
8000299c:	00053883 	sra	a3,a1,0x2
800029a0:	00051943 	sra	v1,a1,0x5
800029a4:	30f8000f 	andi	t8,a3,0xf
800029a8:	3064007f 	andi	a0,v1,0x7f
800029ac:	03040018 	mult	t8,a0
800029b0:	00006812 	mflo	t5
800029b4:	01ed7821 	addu	t7,t7,t5
800029b8:	84c80000 	lh	t0,0(a2)
800029bc:	24c60002 	addiu	a2,a2,2
800029c0:	853f0000 	lh	ra,0(t1)
800029c4:	01304821 	addu	t1,t1,s0
800029c8:	011f0018 	mult	t0,ra
800029cc:	00002812 	mflo	a1
800029d0:	00053883 	sra	a3,a1,0x2
800029d4:	00051943 	sra	v1,a1,0x5
800029d8:	30f8000f 	andi	t8,a3,0xf
800029dc:	3064007f 	andi	a0,v1,0x7f
800029e0:	03040018 	mult	t8,a0
800029e4:	00006812 	mflo	t5
800029e8:	01ed7821 	addu	t7,t7,t5
800029ec:	84c80000 	lh	t0,0(a2)
800029f0:	24c60002 	addiu	a2,a2,2
800029f4:	853f0000 	lh	ra,0(t1)
800029f8:	01304821 	addu	t1,t1,s0
800029fc:	011f0018 	mult	t0,ra
80002a00:	00002812 	mflo	a1
80002a04:	00053883 	sra	a3,a1,0x2
80002a08:	00051943 	sra	v1,a1,0x5
80002a0c:	30f8000f 	andi	t8,a3,0xf
80002a10:	3064007f 	andi	a0,v1,0x7f
80002a14:	03040018 	mult	t8,a0
80002a18:	00006812 	mflo	t5
80002a1c:	01ed7821 	addu	t7,t7,t5
80002a20:	11460041 	beq	t2,a2,80002b28 <core_bench_matrix+0x13b8>
80002a24:	00000000 	nop
80002a28:	84c80000 	lh	t0,0(a2)
80002a2c:	0130f821 	addu	ra,t1,s0
80002a30:	85250000 	lh	a1,0(t1)
80002a34:	24c60008 	addiu	a2,a2,8
80002a38:	03f03821 	addu	a3,ra,s0
80002a3c:	87e30000 	lh	v1,0(ra)
80002a40:	01050018 	mult	t0,a1
80002a44:	84c9fffa 	lh	t1,-6(a2)
80002a48:	84e80000 	lh	t0,0(a3)
80002a4c:	00f0f821 	addu	ra,a3,s0
80002a50:	84d8fffc 	lh	t8,-4(a2)
80002a54:	84cdfffe 	lh	t5,-2(a2)
80002a58:	00002012 	mflo	a0
80002a5c:	87e70000 	lh	a3,0(ra)
80002a60:	00000000 	nop
80002a64:	01230018 	mult	t1,v1
80002a68:	03f04821 	addu	t1,ra,s0
80002a6c:	00001812 	mflo	v1
	...
80002a78:	03080018 	mult	t8,t0
80002a7c:	00042883 	sra	a1,a0,0x2
80002a80:	00042143 	sra	a0,a0,0x5
80002a84:	30bf000f 	andi	ra,a1,0xf
80002a88:	0000c012 	mflo	t8
	...
80002a94:	01a70018 	mult	t5,a3
80002a98:	3088007f 	andi	t0,a0,0x7f
80002a9c:	00036883 	sra	t5,v1,0x2
80002aa0:	00031943 	sra	v1,v1,0x5
80002aa4:	00003812 	mflo	a3
	...
80002ab0:	03e80018 	mult	ra,t0
80002ab4:	31a4000f 	andi	a0,t5,0xf
80002ab8:	307f007f 	andi	ra,v1,0x7f
80002abc:	00186883 	sra	t5,t8,0x2
80002ac0:	00002812 	mflo	a1
	...
80002acc:	009f0018 	mult	a0,ra
80002ad0:	0018c143 	sra	t8,t8,0x5
80002ad4:	31a3000f 	andi	v1,t5,0xf
80002ad8:	3308007f 	andi	t0,t8,0x7f
80002adc:	00002012 	mflo	a0
	...
80002ae8:	00680018 	mult	v1,t0
80002aec:	0007f883 	sra	ra,a3,0x2
80002af0:	00073943 	sra	a3,a3,0x5
80002af4:	01e57821 	addu	t7,t7,a1
80002af8:	30f8007f 	andi	t8,a3,0x7f
80002afc:	33e5000f 	andi	a1,ra,0xf
80002b00:	00006812 	mflo	t5
	...
80002b0c:	00b80018 	mult	a1,t8
80002b10:	01e42021 	addu	a0,t7,a0
80002b14:	00004012 	mflo	t0
80002b18:	008d1821 	addu	v1,a0,t5
80002b1c:	00687821 	addu	t7,v1,t0
80002b20:	1546ffc1 	bne	t2,a2,80002a28 <core_bench_matrix+0x12b8>
80002b24:	00000000 	nop
80002b28:	256b0002 	addiu	t3,t3,2
80002b2c:	ad8f0000 	sw	t7,0(t4)
80002b30:	258c0004 	addiu	t4,t4,4
80002b34:	156eff79 	bne	t3,t6,8000291c <core_bench_matrix+0x11ac>
80002b38:	00000000 	nop
80002b3c:	27390001 	addiu	t9,t9,1
80002b40:	02f4b821 	addu	s7,s7,s4
80002b44:	0140f025 	move	s8,t2
80002b48:	16b9ff71 	bne	s5,t9,80002910 <core_bench_matrix+0x11a0>
80002b4c:	00000000 	nop
80002b50:	00003825 	move	a3,zero
80002b54:	00005025 	move	t2,zero
80002b58:	00002025 	move	a0,zero
80002b5c:	00005825 	move	t3,zero
80002b60:	02404825 	move	t1,s2
80002b64:	01409025 	move	s2,t2
80002b68:	8d2a0000 	lw	t2,0(t1)
80002b6c:	3097ffff 	andi	s7,a0,0xffff
80002b70:	2696fffc 	addiu	s6,s4,-4
80002b74:	024af02a 	slt	s8,s2,t2
80002b78:	26f9000a 	addiu	t9,s7,10
80002b7c:	02fef821 	addu	ra,s7,s8
80002b80:	014b6021 	addu	t4,t2,t3
80002b84:	00167082 	srl	t6,s6,0x2
80002b88:	00192c00 	sll	a1,t9,0x10
80002b8c:	001f2400 	sll	a0,ra,0x10
80002b90:	022c302a 	slt	a2,s1,t4
80002b94:	02897821 	addu	t7,s4,t1
80002b98:	31cd0003 	andi	t5,t6,0x3
80002b9c:	0005c403 	sra	t8,a1,0x10
80002ba0:	00044403 	sra	t0,a0,0x10
80002ba4:	10c00002 	beqz	a2,80002bb0 <core_bench_matrix+0x1440>
80002ba8:	00000000 	nop
80002bac:	00006025 	move	t4,zero
80002bb0:	01805825 	move	t3,t4
80002bb4:	10c00002 	beqz	a2,80002bc0 <core_bench_matrix+0x1450>
80002bb8:	00000000 	nop
80002bbc:	03004025 	move	t0,t8
80002bc0:	25260004 	addiu	a2,t1,4
80002bc4:	00084c00 	sll	t1,t0,0x10
80002bc8:	01404025 	move	t0,t2
80002bcc:	00092403 	sra	a0,t1,0x10
80002bd0:	11e60092 	beq	t7,a2,80002e1c <core_bench_matrix+0x16ac>
80002bd4:	00000000 	nop
80002bd8:	11a00046 	beqz	t5,80002cf4 <core_bench_matrix+0x1584>
80002bdc:	00000000 	nop
80002be0:	24030001 	li	v1,1
80002be4:	11a3002d 	beq	t5,v1,80002c9c <core_bench_matrix+0x152c>
80002be8:	00000000 	nop
80002bec:	24120002 	li	s2,2
80002bf0:	11b20015 	beq	t5,s2,80002c48 <core_bench_matrix+0x14d8>
80002bf4:	00000000 	nop
80002bf8:	8cc80000 	lw	t0,0(a2)
80002bfc:	3096ffff 	andi	s6,a0,0xffff
80002c00:	26d7000a 	addiu	s7,s6,10
80002c04:	0148502a 	slt	t2,t2,t0
80002c08:	02caf021 	addu	s8,s6,t2
80002c0c:	010c5821 	addu	t3,t0,t4
80002c10:	0017cc00 	sll	t9,s7,0x10
80002c14:	001e6c00 	sll	t5,s8,0x10
80002c18:	022b702a 	slt	t6,s1,t3
80002c1c:	0019fc03 	sra	ra,t9,0x10
80002c20:	000d2c03 	sra	a1,t5,0x10
80002c24:	11c00002 	beqz	t6,80002c30 <core_bench_matrix+0x14c0>
80002c28:	00000000 	nop
80002c2c:	00005825 	move	t3,zero
80002c30:	11c00002 	beqz	t6,80002c3c <core_bench_matrix+0x14cc>
80002c34:	00000000 	nop
80002c38:	03e02825 	move	a1,ra
80002c3c:	0005c400 	sll	t8,a1,0x10
80002c40:	24c60004 	addiu	a2,a2,4
80002c44:	00182403 	sra	a0,t8,0x10
80002c48:	8ccc0000 	lw	t4,0(a2)
80002c4c:	3084ffff 	andi	a0,a0,0xffff
80002c50:	2489000a 	addiu	t1,a0,10
80002c54:	010c402a 	slt	t0,t0,t4
80002c58:	00889021 	addu	s2,a0,t0
80002c5c:	018b5821 	addu	t3,t4,t3
80002c60:	00091c00 	sll	v1,t1,0x10
80002c64:	00125400 	sll	t2,s2,0x10
80002c68:	022bb02a 	slt	s6,s1,t3
80002c6c:	0003bc03 	sra	s7,v1,0x10
80002c70:	000af403 	sra	s8,t2,0x10
80002c74:	12c00002 	beqz	s6,80002c80 <core_bench_matrix+0x1510>
80002c78:	00000000 	nop
80002c7c:	00005825 	move	t3,zero
80002c80:	12c00002 	beqz	s6,80002c8c <core_bench_matrix+0x151c>
80002c84:	00000000 	nop
80002c88:	02e0f025 	move	s8,s7
80002c8c:	001e7400 	sll	t6,s8,0x10
80002c90:	24c60004 	addiu	a2,a2,4
80002c94:	000e2403 	sra	a0,t6,0x10
80002c98:	01804025 	move	t0,t4
80002c9c:	8cca0000 	lw	t2,0(a2)
80002ca0:	3099ffff 	andi	t9,a0,0xffff
80002ca4:	273f000a 	addiu	ra,t9,10
80002ca8:	010a682a 	slt	t5,t0,t2
80002cac:	032d2821 	addu	a1,t9,t5
80002cb0:	014b5821 	addu	t3,t2,t3
80002cb4:	001f6400 	sll	t4,ra,0x10
80002cb8:	00052400 	sll	a0,a1,0x10
80002cbc:	022bc02a 	slt	t8,s1,t3
80002cc0:	000c4c03 	sra	t1,t4,0x10
80002cc4:	00049403 	sra	s2,a0,0x10
80002cc8:	13000002 	beqz	t8,80002cd4 <core_bench_matrix+0x1564>
80002ccc:	00000000 	nop
80002cd0:	00005825 	move	t3,zero
80002cd4:	13000002 	beqz	t8,80002ce0 <core_bench_matrix+0x1570>
80002cd8:	00000000 	nop
80002cdc:	01209025 	move	s2,t1
80002ce0:	0012b400 	sll	s6,s2,0x10
80002ce4:	24c60004 	addiu	a2,a2,4
80002ce8:	00162403 	sra	a0,s6,0x10
80002cec:	11e6004b 	beq	t7,a2,80002e1c <core_bench_matrix+0x16ac>
80002cf0:	00000000 	nop
80002cf4:	8cd70000 	lw	s7,0(a2)
80002cf8:	309effff 	andi	s8,a0,0xffff
80002cfc:	27c3000a 	addiu	v1,s8,10
80002d00:	0157502a 	slt	t2,t2,s7
80002d04:	03ca7021 	addu	t6,s8,t2
80002d08:	02eb5821 	addu	t3,s7,t3
80002d0c:	0003cc00 	sll	t9,v1,0x10
80002d10:	000efc00 	sll	ra,t6,0x10
80002d14:	022b402a 	slt	t0,s1,t3
80002d18:	00192c03 	sra	a1,t9,0x10
80002d1c:	001f6c03 	sra	t5,ra,0x10
80002d20:	11000002 	beqz	t0,80002d2c <core_bench_matrix+0x15bc>
80002d24:	00000000 	nop
80002d28:	00005825 	move	t3,zero
80002d2c:	15000002 	bnez	t0,80002d38 <core_bench_matrix+0x15c8>
80002d30:	00000000 	nop
80002d34:	01a02825 	move	a1,t5
80002d38:	8cd80004 	lw	t8,4(a2)
80002d3c:	30acffff 	andi	t4,a1,0xffff
80002d40:	2589000a 	addiu	t1,t4,10
80002d44:	24c60004 	addiu	a2,a2,4
80002d48:	02f8202a 	slt	a0,s7,t8
80002d4c:	01849021 	addu	s2,t4,a0
80002d50:	030b5021 	addu	t2,t8,t3
80002d54:	0009bc00 	sll	s7,t1,0x10
80002d58:	00121c00 	sll	v1,s2,0x10
80002d5c:	022ab02a 	slt	s6,s1,t2
80002d60:	0017f403 	sra	s8,s7,0x10
80002d64:	00037403 	sra	t6,v1,0x10
80002d68:	12c00002 	beqz	s6,80002d74 <core_bench_matrix+0x1604>
80002d6c:	00000000 	nop
80002d70:	00005025 	move	t2,zero
80002d74:	12c00002 	beqz	s6,80002d80 <core_bench_matrix+0x1610>
80002d78:	00000000 	nop
80002d7c:	03c07025 	move	t6,s8
80002d80:	8cd90004 	lw	t9,4(a2)
80002d84:	31dfffff 	andi	ra,t6,0xffff
80002d88:	27e8000a 	addiu	t0,ra,10
80002d8c:	0319682a 	slt	t5,t8,t9
80002d90:	03ed2821 	addu	a1,ra,t5
80002d94:	032a5821 	addu	t3,t9,t2
80002d98:	00086400 	sll	t4,t0,0x10
80002d9c:	00052400 	sll	a0,a1,0x10
80002da0:	022bc02a 	slt	t8,s1,t3
80002da4:	000c4c03 	sra	t1,t4,0x10
80002da8:	00049403 	sra	s2,a0,0x10
80002dac:	13000002 	beqz	t8,80002db8 <core_bench_matrix+0x1648>
80002db0:	00000000 	nop
80002db4:	00005825 	move	t3,zero
80002db8:	13000002 	beqz	t8,80002dc4 <core_bench_matrix+0x1654>
80002dbc:	00000000 	nop
80002dc0:	01209025 	move	s2,t1
80002dc4:	8cca0008 	lw	t2,8(a2)
80002dc8:	3256ffff 	andi	s6,s2,0xffff
80002dcc:	26d7000a 	addiu	s7,s6,10
80002dd0:	032af02a 	slt	s8,t9,t2
80002dd4:	02de7021 	addu	t6,s6,s8
80002dd8:	014b5821 	addu	t3,t2,t3
80002ddc:	00171c00 	sll	v1,s7,0x10
80002de0:	000e4400 	sll	t0,t6,0x10
80002de4:	022bc82a 	slt	t9,s1,t3
80002de8:	0003fc03 	sra	ra,v1,0x10
80002dec:	00086c03 	sra	t5,t0,0x10
80002df0:	13200002 	beqz	t9,80002dfc <core_bench_matrix+0x168c>
80002df4:	00000000 	nop
80002df8:	00005825 	move	t3,zero
80002dfc:	13200002 	beqz	t9,80002e08 <core_bench_matrix+0x1698>
80002e00:	00000000 	nop
80002e04:	03e06825 	move	t5,ra
80002e08:	000d2c00 	sll	a1,t5,0x10
80002e0c:	24c6000c 	addiu	a2,a2,12
80002e10:	00052403 	sra	a0,a1,0x10
80002e14:	15e6ffb7 	bne	t7,a2,80002cf4 <core_bench_matrix+0x1584>
80002e18:	00000000 	nop
80002e1c:	24e70001 	addiu	a3,a3,1
80002e20:	01e04825 	move	t1,t7
80002e24:	16a7ff4f 	bne	s5,a3,80002b64 <core_bench_matrix+0x13f4>
80002e28:	00000000 	nop
80002e2c:	00402825 	move	a1,v0
80002e30:	0c001cf0 	jal	800073c0 <crc16>
80002e34:	00000000 	nop
80002e38:	00002025 	move	a0,zero
80002e3c:	8fa50010 	lw	a1,16(sp)
80002e40:	00000000 	nop
80002e44:	94b10000 	lhu	s1,0(a1)
80002e48:	2614fffe 	addiu	s4,s0,-2
80002e4c:	02057821 	addu	t7,s0,a1
80002e50:	0014c042 	srl	t8,s4,0x1
80002e54:	02336023 	subu	t4,s1,s3
80002e58:	24a50002 	addiu	a1,a1,2
80002e5c:	33120007 	andi	s2,t8,0x7
80002e60:	a4acfffe 	sh	t4,-2(a1)
80002e64:	11e5004e 	beq	t7,a1,80002fa0 <core_bench_matrix+0x1830>
80002e68:	00000000 	nop
80002e6c:	12400031 	beqz	s2,80002f34 <core_bench_matrix+0x17c4>
80002e70:	00000000 	nop
80002e74:	240a0001 	li	t2,1
80002e78:	124a0028 	beq	s2,t2,80002f1c <core_bench_matrix+0x17ac>
80002e7c:	00000000 	nop
80002e80:	24160002 	li	s6,2
80002e84:	12560021 	beq	s2,s6,80002f0c <core_bench_matrix+0x179c>
80002e88:	00000000 	nop
80002e8c:	24170003 	li	s7,3
80002e90:	1257001a 	beq	s2,s7,80002efc <core_bench_matrix+0x178c>
80002e94:	00000000 	nop
80002e98:	241e0004 	li	s8,4
80002e9c:	125e0013 	beq	s2,s8,80002eec <core_bench_matrix+0x177c>
80002ea0:	00000000 	nop
80002ea4:	240e0005 	li	t6,5
80002ea8:	124e000c 	beq	s2,t6,80002edc <core_bench_matrix+0x176c>
80002eac:	00000000 	nop
80002eb0:	24190006 	li	t9,6
80002eb4:	12590005 	beq	s2,t9,80002ecc <core_bench_matrix+0x175c>
80002eb8:	00000000 	nop
80002ebc:	94a30000 	lhu	v1,0(a1)
80002ec0:	24a50002 	addiu	a1,a1,2
80002ec4:	0073f823 	subu	ra,v1,s3
80002ec8:	a4bffffe 	sh	ra,-2(a1)
80002ecc:	94a80000 	lhu	t0,0(a1)
80002ed0:	24a50002 	addiu	a1,a1,2
80002ed4:	01135823 	subu	t3,t0,s3
80002ed8:	a4abfffe 	sh	t3,-2(a1)
80002edc:	94ad0000 	lhu	t5,0(a1)
80002ee0:	24a50002 	addiu	a1,a1,2
80002ee4:	01b33023 	subu	a2,t5,s3
80002ee8:	a4a6fffe 	sh	a2,-2(a1)
80002eec:	94a70000 	lhu	a3,0(a1)
80002ef0:	24a50002 	addiu	a1,a1,2
80002ef4:	00f34823 	subu	t1,a3,s3
80002ef8:	a4a9fffe 	sh	t1,-2(a1)
80002efc:	94b10000 	lhu	s1,0(a1)
80002f00:	24a50002 	addiu	a1,a1,2
80002f04:	0233a023 	subu	s4,s1,s3
80002f08:	a4b4fffe 	sh	s4,-2(a1)
80002f0c:	94b80000 	lhu	t8,0(a1)
80002f10:	24a50002 	addiu	a1,a1,2
80002f14:	03136023 	subu	t4,t8,s3
80002f18:	a4acfffe 	sh	t4,-2(a1)
80002f1c:	94b20000 	lhu	s2,0(a1)
80002f20:	24a50002 	addiu	a1,a1,2
80002f24:	02535023 	subu	t2,s2,s3
80002f28:	a4aafffe 	sh	t2,-2(a1)
80002f2c:	11e5001c 	beq	t7,a1,80002fa0 <core_bench_matrix+0x1830>
80002f30:	00000000 	nop
80002f34:	94b60000 	lhu	s6,0(a1)
80002f38:	24a50010 	addiu	a1,a1,16
80002f3c:	02d3c823 	subu	t9,s6,s3
80002f40:	94b7fff2 	lhu	s7,-14(a1)
80002f44:	94befff4 	lhu	s8,-12(a1)
80002f48:	94aefff6 	lhu	t6,-10(a1)
80002f4c:	94bffff8 	lhu	ra,-8(a1)
80002f50:	02f35823 	subu	t3,s7,s3
80002f54:	94adfffa 	lhu	t5,-6(a1)
80002f58:	03d38823 	subu	s1,s8,s3
80002f5c:	94a6fffc 	lhu	a2,-4(a1)
80002f60:	01d34823 	subu	t1,t6,s3
80002f64:	94a3fffe 	lhu	v1,-2(a1)
80002f68:	03f34023 	subu	t0,ra,s3
80002f6c:	01b33823 	subu	a3,t5,s3
80002f70:	a4b9fff0 	sh	t9,-16(a1)
80002f74:	00d3a023 	subu	s4,a2,s3
80002f78:	a4abfff2 	sh	t3,-14(a1)
80002f7c:	0073c023 	subu	t8,v1,s3
80002f80:	a4b1fff4 	sh	s1,-12(a1)
80002f84:	a4a9fff6 	sh	t1,-10(a1)
80002f88:	a4a8fff8 	sh	t0,-8(a1)
80002f8c:	a4a7fffa 	sh	a3,-6(a1)
80002f90:	a4b4fffc 	sh	s4,-4(a1)
80002f94:	a4b8fffe 	sh	t8,-2(a1)
80002f98:	15e5ffe6 	bne	t7,a1,80002f34 <core_bench_matrix+0x17c4>
80002f9c:	00000000 	nop
80002fa0:	24840001 	addiu	a0,a0,1
80002fa4:	16a4ffa7 	bne	s5,a0,80002e44 <core_bench_matrix+0x16d4>
80002fa8:	00000000 	nop
80002fac:	00028400 	sll	s0,v0,0x10
80002fb0:	8fa50018 	lw	a1,24(sp)
80002fb4:	8fbf0044 	lw	ra,68(sp)
80002fb8:	8fbe0040 	lw	s8,64(sp)
80002fbc:	00102403 	sra	a0,s0,0x10
80002fc0:	8fb7003c 	lw	s7,60(sp)
80002fc4:	8fb60038 	lw	s6,56(sp)
80002fc8:	8fb50034 	lw	s5,52(sp)
80002fcc:	8fb40030 	lw	s4,48(sp)
80002fd0:	8fb3002c 	lw	s3,44(sp)
80002fd4:	8fb20028 	lw	s2,40(sp)
80002fd8:	8fb10024 	lw	s1,36(sp)
80002fdc:	8fb00020 	lw	s0,32(sp)
80002fe0:	27bd0048 	addiu	sp,sp,72
80002fe4:	08001cf0 	j	800073c0 <crc16>
80002fe8:	00000000 	nop
80002fec:	00000000 	nop
80002ff0:	01e0c825 	move	t9,t7
80002ff4:	1000fc43 	b	80002104 <core_bench_matrix+0x994>
80002ff8:	00000000 	nop
80002ffc:	00000000 	nop
80003000:	01e05025 	move	t2,t7
80003004:	1000fb10 	b	80001c48 <core_bench_matrix+0x4d8>
80003008:	00000000 	nop
8000300c:	00002025 	move	a0,zero
80003010:	00002825 	move	a1,zero
80003014:	0c001cf0 	jal	800073c0 <crc16>
80003018:	00000000 	nop
8000301c:	00002025 	move	a0,zero
80003020:	00402825 	move	a1,v0
80003024:	0c001cf0 	jal	800073c0 <crc16>
80003028:	00000000 	nop
8000302c:	00002025 	move	a0,zero
80003030:	00402825 	move	a1,v0
80003034:	0c001cf0 	jal	800073c0 <crc16>
80003038:	00000000 	nop
8000303c:	00002025 	move	a0,zero
80003040:	00402825 	move	a1,v0
80003044:	0c001cf0 	jal	800073c0 <crc16>
80003048:	00000000 	nop
8000304c:	1000ffd7 	b	80002fac <core_bench_matrix+0x183c>
80003050:	00000000 	nop
	...

80003060 <matrix_test>:
matrix_test():
80003060:	27bdffc0 	addiu	sp,sp,-64
80003064:	afb1001c 	sw	s1,28(sp)
80003068:	2411f000 	li	s1,-4096
8000306c:	afbf003c 	sw	ra,60(sp)
80003070:	afbe0038 	sw	s8,56(sp)
80003074:	afb70034 	sw	s7,52(sp)
80003078:	afb60030 	sw	s6,48(sp)
8000307c:	afb5002c 	sw	s5,44(sp)
80003080:	afb40028 	sw	s4,40(sp)
80003084:	afb30024 	sw	s3,36(sp)
80003088:	afb20020 	sw	s2,32(sp)
8000308c:	afb00018 	sw	s0,24(sp)
80003090:	afa60048 	sw	a2,72(sp)
80003094:	87a80050 	lh	t0,80(sp)
80003098:	00000000 	nop
8000309c:	01118825 	or	s1,t0,s1
800030a0:	10800616 	beqz	a0,800048fc <matrix_test+0x189c>
800030a4:	00000000 	nop
800030a8:	00048040 	sll	s0,a0,0x1
800030ac:	00005825 	move	t3,zero
800030b0:	00a09025 	move	s2,a1
800030b4:	0080a825 	move	s5,a0
800030b8:	00e0b025 	move	s6,a3
800030bc:	3113ffff 	andi	s3,t0,0xffff
800030c0:	00c02825 	move	a1,a2
800030c4:	00c01825 	move	v1,a2
800030c8:	94640000 	lhu	a0,0(v1)
800030cc:	2602fffe 	addiu	v0,s0,-2
800030d0:	00705021 	addu	t2,v1,s0
800030d4:	00023042 	srl	a2,v0,0x1
800030d8:	02643821 	addu	a3,s3,a0
800030dc:	24630002 	addiu	v1,v1,2
800030e0:	30c90007 	andi	t1,a2,0x7
800030e4:	a467fffe 	sh	a3,-2(v1)
800030e8:	106a004e 	beq	v1,t2,80003224 <matrix_test+0x1c4>
800030ec:	00000000 	nop
800030f0:	11200031 	beqz	t1,800031b8 <matrix_test+0x158>
800030f4:	00000000 	nop
800030f8:	240c0001 	li	t4,1
800030fc:	112c0028 	beq	t1,t4,800031a0 <matrix_test+0x140>
80003100:	00000000 	nop
80003104:	240d0002 	li	t5,2
80003108:	112d0021 	beq	t1,t5,80003190 <matrix_test+0x130>
8000310c:	00000000 	nop
80003110:	240e0003 	li	t6,3
80003114:	112e001a 	beq	t1,t6,80003180 <matrix_test+0x120>
80003118:	00000000 	nop
8000311c:	240f0004 	li	t7,4
80003120:	112f0013 	beq	t1,t7,80003170 <matrix_test+0x110>
80003124:	00000000 	nop
80003128:	24140005 	li	s4,5
8000312c:	1134000c 	beq	t1,s4,80003160 <matrix_test+0x100>
80003130:	00000000 	nop
80003134:	24170006 	li	s7,6
80003138:	11370005 	beq	t1,s7,80003150 <matrix_test+0xf0>
8000313c:	00000000 	nop
80003140:	94780000 	lhu	t8,0(v1)
80003144:	24630002 	addiu	v1,v1,2
80003148:	0278c821 	addu	t9,s3,t8
8000314c:	a479fffe 	sh	t9,-2(v1)
80003150:	947e0000 	lhu	s8,0(v1)
80003154:	24630002 	addiu	v1,v1,2
80003158:	027ef821 	addu	ra,s3,s8
8000315c:	a47ffffe 	sh	ra,-2(v1)
80003160:	94640000 	lhu	a0,0(v1)
80003164:	24630002 	addiu	v1,v1,2
80003168:	02641021 	addu	v0,s3,a0
8000316c:	a462fffe 	sh	v0,-2(v1)
80003170:	94660000 	lhu	a2,0(v1)
80003174:	24630002 	addiu	v1,v1,2
80003178:	02663821 	addu	a3,s3,a2
8000317c:	a467fffe 	sh	a3,-2(v1)
80003180:	94690000 	lhu	t1,0(v1)
80003184:	24630002 	addiu	v1,v1,2
80003188:	02696021 	addu	t4,s3,t1
8000318c:	a46cfffe 	sh	t4,-2(v1)
80003190:	946d0000 	lhu	t5,0(v1)
80003194:	24630002 	addiu	v1,v1,2
80003198:	026d7021 	addu	t6,s3,t5
8000319c:	a46efffe 	sh	t6,-2(v1)
800031a0:	946f0000 	lhu	t7,0(v1)
800031a4:	24630002 	addiu	v1,v1,2
800031a8:	026fa021 	addu	s4,s3,t7
800031ac:	a474fffe 	sh	s4,-2(v1)
800031b0:	106a001c 	beq	v1,t2,80003224 <matrix_test+0x1c4>
800031b4:	00000000 	nop
800031b8:	94770000 	lhu	s7,0(v1)
800031bc:	24630010 	addiu	v1,v1,16
800031c0:	0277f821 	addu	ra,s3,s7
800031c4:	9478fff2 	lhu	t8,-14(v1)
800031c8:	9479fff4 	lhu	t9,-12(v1)
800031cc:	947efff6 	lhu	s8,-10(v1)
800031d0:	9467fff8 	lhu	a3,-8(v1)
800031d4:	02786821 	addu	t5,s3,t8
800031d8:	9466fffa 	lhu	a2,-6(v1)
800031dc:	02796021 	addu	t4,s3,t9
800031e0:	9464fffc 	lhu	a0,-4(v1)
800031e4:	027e4821 	addu	t1,s3,s8
800031e8:	9462fffe 	lhu	v0,-2(v1)
800031ec:	02677021 	addu	t6,s3,a3
800031f0:	02667821 	addu	t7,s3,a2
800031f4:	a47ffff0 	sh	ra,-16(v1)
800031f8:	0264a021 	addu	s4,s3,a0
800031fc:	a46dfff2 	sh	t5,-14(v1)
80003200:	0262b821 	addu	s7,s3,v0
80003204:	a46cfff4 	sh	t4,-12(v1)
80003208:	a469fff6 	sh	t1,-10(v1)
8000320c:	a46efff8 	sh	t6,-8(v1)
80003210:	a46ffffa 	sh	t7,-6(v1)
80003214:	a474fffc 	sh	s4,-4(v1)
80003218:	a477fffe 	sh	s7,-2(v1)
8000321c:	146affe6 	bne	v1,t2,800031b8 <matrix_test+0x158>
80003220:	00000000 	nop
80003224:	256b0001 	addiu	t3,t3,1
80003228:	16abffa7 	bne	s5,t3,800030c8 <matrix_test+0x68>
8000322c:	00000000 	nop
80003230:	0015a080 	sll	s4,s5,0x2
80003234:	0000c025 	move	t8,zero
80003238:	02405025 	move	t2,s2
8000323c:	84a30000 	lh	v1,0(a1)
80003240:	2699fffc 	addiu	t9,s4,-4
80003244:	028af021 	addu	s8,s4,t2
80003248:	0019f882 	srl	ra,t9,0x2
8000324c:	00680018 	mult	v1,t0
80003250:	25430004 	addiu	v1,t2,4
80003254:	33e70007 	andi	a3,ra,0x7
80003258:	24a40002 	addiu	a0,a1,2
8000325c:	00006812 	mflo	t5
80003260:	ad4d0000 	sw	t5,0(t2)
80003264:	13c30072 	beq	s8,v1,80003430 <matrix_test+0x3d0>
80003268:	00000000 	nop
8000326c:	10e0003f 	beqz	a3,8000336c <matrix_test+0x30c>
80003270:	00000000 	nop
80003274:	24060001 	li	a2,1
80003278:	10e60034 	beq	a3,a2,8000334c <matrix_test+0x2ec>
8000327c:	00000000 	nop
80003280:	240c0002 	li	t4,2
80003284:	10ec002b 	beq	a3,t4,80003334 <matrix_test+0x2d4>
80003288:	00000000 	nop
8000328c:	24090003 	li	t1,3
80003290:	10e90022 	beq	a3,t1,8000331c <matrix_test+0x2bc>
80003294:	00000000 	nop
80003298:	24020004 	li	v0,4
8000329c:	10e20019 	beq	a3,v0,80003304 <matrix_test+0x2a4>
800032a0:	00000000 	nop
800032a4:	240e0005 	li	t6,5
800032a8:	10ee0010 	beq	a3,t6,800032ec <matrix_test+0x28c>
800032ac:	00000000 	nop
800032b0:	240f0006 	li	t7,6
800032b4:	10ef0007 	beq	a3,t7,800032d4 <matrix_test+0x274>
800032b8:	00000000 	nop
800032bc:	84970000 	lh	s7,0(a0)
800032c0:	24a40004 	addiu	a0,a1,4
800032c4:	02e80018 	mult	s7,t0
800032c8:	00005812 	mflo	t3
800032cc:	ac6b0000 	sw	t3,0(v1)
800032d0:	25430008 	addiu	v1,t2,8
800032d4:	848a0000 	lh	t2,0(a0)
800032d8:	24630004 	addiu	v1,v1,4
800032dc:	24840002 	addiu	a0,a0,2
800032e0:	01480018 	mult	t2,t0
800032e4:	0000c812 	mflo	t9
800032e8:	ac79fffc 	sw	t9,-4(v1)
800032ec:	849f0000 	lh	ra,0(a0)
800032f0:	24630004 	addiu	v1,v1,4
800032f4:	24840002 	addiu	a0,a0,2
800032f8:	03e80018 	mult	ra,t0
800032fc:	00003812 	mflo	a3
80003300:	ac67fffc 	sw	a3,-4(v1)
80003304:	848d0000 	lh	t5,0(a0)
80003308:	24630004 	addiu	v1,v1,4
8000330c:	24840002 	addiu	a0,a0,2
80003310:	01a80018 	mult	t5,t0
80003314:	00003012 	mflo	a2
80003318:	ac66fffc 	sw	a2,-4(v1)
8000331c:	848c0000 	lh	t4,0(a0)
80003320:	24630004 	addiu	v1,v1,4
80003324:	24840002 	addiu	a0,a0,2
80003328:	01880018 	mult	t4,t0
8000332c:	00004812 	mflo	t1
80003330:	ac69fffc 	sw	t1,-4(v1)
80003334:	84820000 	lh	v0,0(a0)
80003338:	24630004 	addiu	v1,v1,4
8000333c:	24840002 	addiu	a0,a0,2
80003340:	00480018 	mult	v0,t0
80003344:	00007012 	mflo	t6
80003348:	ac6efffc 	sw	t6,-4(v1)
8000334c:	848f0000 	lh	t7,0(a0)
80003350:	24630004 	addiu	v1,v1,4
80003354:	24840002 	addiu	a0,a0,2
80003358:	01e80018 	mult	t7,t0
8000335c:	0000b812 	mflo	s7
80003360:	ac77fffc 	sw	s7,-4(v1)
80003364:	13c30032 	beq	s8,v1,80003430 <matrix_test+0x3d0>
80003368:	00000000 	nop
8000336c:	848b0000 	lh	t3,0(a0)
80003370:	24840010 	addiu	a0,a0,16
80003374:	8499fff2 	lh	t9,-14(a0)
80003378:	24630020 	addiu	v1,v1,32
8000337c:	01680018 	mult	t3,t0
80003380:	849ffff4 	lh	ra,-12(a0)
80003384:	8486fff6 	lh	a2,-10(a0)
80003388:	00007812 	mflo	t7
8000338c:	848afff8 	lh	t2,-8(a0)
80003390:	00000000 	nop
80003394:	03280018 	mult	t9,t0
80003398:	8489fffa 	lh	t1,-6(a0)
8000339c:	8487fffc 	lh	a3,-4(a0)
800033a0:	8482fffe 	lh	v0,-2(a0)
800033a4:	00007012 	mflo	t6
	...
800033b0:	03e80018 	mult	ra,t0
800033b4:	ac6fffe0 	sw	t7,-32(v1)
800033b8:	00006812 	mflo	t5
	...
800033c4:	00c80018 	mult	a2,t0
800033c8:	ac6effe4 	sw	t6,-28(v1)
800033cc:	00006012 	mflo	t4
	...
800033d8:	01480018 	mult	t2,t0
800033dc:	ac6dffe8 	sw	t5,-24(v1)
800033e0:	0000b812 	mflo	s7
	...
800033ec:	01280018 	mult	t1,t0
800033f0:	ac6cffec 	sw	t4,-20(v1)
800033f4:	00005812 	mflo	t3
	...
80003400:	00e80018 	mult	a3,t0
80003404:	ac77fff0 	sw	s7,-16(v1)
80003408:	0000c812 	mflo	t9
	...
80003414:	00480018 	mult	v0,t0
80003418:	ac6bfff4 	sw	t3,-12(v1)
8000341c:	0000f812 	mflo	ra
80003420:	ac79fff8 	sw	t9,-8(v1)
80003424:	ac7ffffc 	sw	ra,-4(v1)
80003428:	17c3ffd0 	bne	s8,v1,8000336c <matrix_test+0x30c>
8000342c:	00000000 	nop
80003430:	27180001 	addiu	t8,t8,1
80003434:	00b02821 	addu	a1,a1,s0
80003438:	03c05025 	move	t2,s8
8000343c:	16b8ff7f 	bne	s5,t8,8000323c <matrix_test+0x1dc>
80003440:	00000000 	nop
80003444:	0000c025 	move	t8,zero
80003448:	00002025 	move	a0,zero
8000344c:	00004025 	move	t0,zero
80003450:	00003825 	move	a3,zero
80003454:	0240f025 	move	s8,s2
80003458:	02403025 	move	a2,s2
8000345c:	01002825 	move	a1,t0
80003460:	8cc80000 	lw	t0,0(a2)
80003464:	3084ffff 	andi	a0,a0,0xffff
80003468:	2683fffc 	addiu	v1,s4,-4
8000346c:	00a8502a 	slt	t2,a1,t0
80003470:	2489000a 	addiu	t1,a0,10
80003474:	008a6821 	addu	t5,a0,t2
80003478:	01077821 	addu	t7,t0,a3
8000347c:	00037082 	srl	t6,v1,0x2
80003480:	00093c00 	sll	a3,t1,0x10
80003484:	000dcc00 	sll	t9,t5,0x10
80003488:	022fb82a 	slt	s7,s1,t7
8000348c:	02865821 	addu	t3,s4,a2
80003490:	31cc0003 	andi	t4,t6,0x3
80003494:	00071403 	sra	v0,a3,0x10
80003498:	00192c03 	sra	a1,t9,0x10
8000349c:	12e00514 	beqz	s7,800048f0 <matrix_test+0x1890>
800034a0:	00000000 	nop
800034a4:	0000f825 	move	ra,zero
800034a8:	03e03825 	move	a3,ra
800034ac:	12e00002 	beqz	s7,800034b8 <matrix_test+0x458>
800034b0:	00000000 	nop
800034b4:	00402825 	move	a1,v0
800034b8:	00051c00 	sll	v1,a1,0x10
800034bc:	24c60004 	addiu	a2,a2,4
800034c0:	00032403 	sra	a0,v1,0x10
800034c4:	01004825 	move	t1,t0
800034c8:	10cb0092 	beq	a2,t3,80003714 <matrix_test+0x6b4>
800034cc:	00000000 	nop
800034d0:	11800046 	beqz	t4,800035ec <matrix_test+0x58c>
800034d4:	00000000 	nop
800034d8:	240f0001 	li	t7,1
800034dc:	118f002d 	beq	t4,t7,80003594 <matrix_test+0x534>
800034e0:	00000000 	nop
800034e4:	240a0002 	li	t2,2
800034e8:	118a0015 	beq	t4,t2,80003540 <matrix_test+0x4e0>
800034ec:	00000000 	nop
800034f0:	8cc90000 	lw	t1,0(a2)
800034f4:	3084ffff 	andi	a0,a0,0xffff
800034f8:	248e000a 	addiu	t6,a0,10
800034fc:	0109402a 	slt	t0,t0,t1
80003500:	00886821 	addu	t5,a0,t0
80003504:	013f3821 	addu	a3,t1,ra
80003508:	000e6400 	sll	t4,t6,0x10
8000350c:	000dcc00 	sll	t9,t5,0x10
80003510:	0227b82a 	slt	s7,s1,a3
80003514:	000c1403 	sra	v0,t4,0x10
80003518:	0019fc03 	sra	ra,t9,0x10
8000351c:	12e00002 	beqz	s7,80003528 <matrix_test+0x4c8>
80003520:	00000000 	nop
80003524:	00003825 	move	a3,zero
80003528:	12e00002 	beqz	s7,80003534 <matrix_test+0x4d4>
8000352c:	00000000 	nop
80003530:	0040f825 	move	ra,v0
80003534:	001f2c00 	sll	a1,ra,0x10
80003538:	24c60004 	addiu	a2,a2,4
8000353c:	00052403 	sra	a0,a1,0x10
80003540:	8cc30000 	lw	v1,0(a2)
80003544:	308fffff 	andi	t7,a0,0xffff
80003548:	25ea000a 	addiu	t2,t7,10
8000354c:	0123482a 	slt	t1,t1,v1
80003550:	01e92021 	addu	a0,t7,t1
80003554:	00673821 	addu	a3,v1,a3
80003558:	000a4400 	sll	t0,t2,0x10
8000355c:	0004bc00 	sll	s7,a0,0x10
80003560:	0227702a 	slt	t6,s1,a3
80003564:	00086c03 	sra	t5,t0,0x10
80003568:	00176403 	sra	t4,s7,0x10
8000356c:	11c00002 	beqz	t6,80003578 <matrix_test+0x518>
80003570:	00000000 	nop
80003574:	00003825 	move	a3,zero
80003578:	11c00002 	beqz	t6,80003584 <matrix_test+0x524>
8000357c:	00000000 	nop
80003580:	01a06025 	move	t4,t5
80003584:	000c1400 	sll	v0,t4,0x10
80003588:	24c60004 	addiu	a2,a2,4
8000358c:	00022403 	sra	a0,v0,0x10
80003590:	00604825 	move	t1,v1
80003594:	8cc80000 	lw	t0,0(a2)
80003598:	3099ffff 	andi	t9,a0,0xffff
8000359c:	273f000a 	addiu	ra,t9,10
800035a0:	0128282a 	slt	a1,t1,t0
800035a4:	03251821 	addu	v1,t9,a1
800035a8:	01073821 	addu	a3,t0,a3
800035ac:	001f5400 	sll	t2,ra,0x10
800035b0:	00032400 	sll	a0,v1,0x10
800035b4:	0227782a 	slt	t7,s1,a3
800035b8:	000a7403 	sra	t6,t2,0x10
800035bc:	00046c03 	sra	t5,a0,0x10
800035c0:	11e00002 	beqz	t7,800035cc <matrix_test+0x56c>
800035c4:	00000000 	nop
800035c8:	00003825 	move	a3,zero
800035cc:	11e00002 	beqz	t7,800035d8 <matrix_test+0x578>
800035d0:	00000000 	nop
800035d4:	01c06825 	move	t5,t6
800035d8:	000dbc00 	sll	s7,t5,0x10
800035dc:	24c60004 	addiu	a2,a2,4
800035e0:	00172403 	sra	a0,s7,0x10
800035e4:	10cb004b 	beq	a2,t3,80003714 <matrix_test+0x6b4>
800035e8:	00000000 	nop
800035ec:	8ccc0000 	lw	t4,0(a2)
800035f0:	3089ffff 	andi	t1,a0,0xffff
800035f4:	2522000a 	addiu	v0,t1,10
800035f8:	010c402a 	slt	t0,t0,t4
800035fc:	0128c821 	addu	t9,t1,t0
80003600:	01873821 	addu	a3,t4,a3
80003604:	00022c00 	sll	a1,v0,0x10
80003608:	00191c00 	sll	v1,t9,0x10
8000360c:	0227f82a 	slt	ra,s1,a3
80003610:	00055403 	sra	t2,a1,0x10
80003614:	00037c03 	sra	t7,v1,0x10
80003618:	13e00002 	beqz	ra,80003624 <matrix_test+0x5c4>
8000361c:	00000000 	nop
80003620:	00003825 	move	a3,zero
80003624:	17e00002 	bnez	ra,80003630 <matrix_test+0x5d0>
80003628:	00000000 	nop
8000362c:	01e05025 	move	t2,t7
80003630:	8cce0004 	lw	t6,4(a2)
80003634:	3144ffff 	andi	a0,t2,0xffff
80003638:	248d000a 	addiu	t5,a0,10
8000363c:	24c60004 	addiu	a2,a2,4
80003640:	018eb82a 	slt	s7,t4,t6
80003644:	00976021 	addu	t4,a0,s7
80003648:	01c7f821 	addu	ra,t6,a3
8000364c:	000d1400 	sll	v0,t5,0x10
80003650:	000ccc00 	sll	t9,t4,0x10
80003654:	023f482a 	slt	t1,s1,ra
80003658:	00024403 	sra	t0,v0,0x10
8000365c:	00192c03 	sra	a1,t9,0x10
80003660:	11200002 	beqz	t1,8000366c <matrix_test+0x60c>
80003664:	00000000 	nop
80003668:	0000f825 	move	ra,zero
8000366c:	11200002 	beqz	t1,80003678 <matrix_test+0x618>
80003670:	00000000 	nop
80003674:	01002825 	move	a1,t0
80003678:	8cc30004 	lw	v1,4(a2)
8000367c:	30afffff 	andi	t7,a1,0xffff
80003680:	25ed000a 	addiu	t5,t7,10
80003684:	01c3502a 	slt	t2,t6,v1
80003688:	01ea7021 	addu	t6,t7,t2
8000368c:	007f3821 	addu	a3,v1,ra
80003690:	000d2400 	sll	a0,t5,0x10
80003694:	000e4c00 	sll	t1,t6,0x10
80003698:	0227b82a 	slt	s7,s1,a3
8000369c:	00046403 	sra	t4,a0,0x10
800036a0:	00091403 	sra	v0,t1,0x10
800036a4:	12e00002 	beqz	s7,800036b0 <matrix_test+0x650>
800036a8:	00000000 	nop
800036ac:	00003825 	move	a3,zero
800036b0:	12e00002 	beqz	s7,800036bc <matrix_test+0x65c>
800036b4:	00000000 	nop
800036b8:	01801025 	move	v0,t4
800036bc:	8cc80008 	lw	t0,8(a2)
800036c0:	3059ffff 	andi	t9,v0,0xffff
800036c4:	273f000a 	addiu	ra,t9,10
800036c8:	0068282a 	slt	a1,v1,t0
800036cc:	03251821 	addu	v1,t9,a1
800036d0:	01073821 	addu	a3,t0,a3
800036d4:	001f6c00 	sll	t5,ra,0x10
800036d8:	00037400 	sll	t6,v1,0x10
800036dc:	0227782a 	slt	t7,s1,a3
800036e0:	000d5403 	sra	t2,t5,0x10
800036e4:	000ebc03 	sra	s7,t6,0x10
800036e8:	11e00002 	beqz	t7,800036f4 <matrix_test+0x694>
800036ec:	00000000 	nop
800036f0:	00003825 	move	a3,zero
800036f4:	11e00002 	beqz	t7,80003700 <matrix_test+0x6a0>
800036f8:	00000000 	nop
800036fc:	0140b825 	move	s7,t2
80003700:	00172400 	sll	a0,s7,0x10
80003704:	24c6000c 	addiu	a2,a2,12
80003708:	00042403 	sra	a0,a0,0x10
8000370c:	14cbffb7 	bne	a2,t3,800035ec <matrix_test+0x58c>
80003710:	00000000 	nop
80003714:	27180001 	addiu	t8,t8,1
80003718:	16b8ff50 	bne	s5,t8,8000345c <matrix_test+0x3fc>
8000371c:	00000000 	nop
80003720:	00002825 	move	a1,zero
80003724:	0c001cf0 	jal	800073c0 <crc16>
80003728:	00000000 	nop
8000372c:	0254c821 	addu	t9,s2,s4
80003730:	8fab0048 	lw	t3,72(sp)
80003734:	02d06021 	addu	t4,s6,s0
80003738:	85680000 	lh	t0,0(t3)
8000373c:	0196c023 	subu	t8,t4,s6
80003740:	86df0000 	lh	ra,0(s6)
80003744:	26c90002 	addiu	t1,s6,2
80003748:	2705fffe 	addiu	a1,t8,-2
8000374c:	256a0002 	addiu	t2,t3,2
80003750:	011f0018 	mult	t0,ra
80003754:	00051842 	srl	v1,a1,0x1
80003758:	306f0007 	andi	t7,v1,0x7
8000375c:	00002812 	mflo	a1
80003760:	11890081 	beq	t4,t1,80003968 <matrix_test+0x908>
80003764:	00000000 	nop
80003768:	11e00046 	beqz	t7,80003884 <matrix_test+0x824>
8000376c:	00000000 	nop
80003770:	240d0001 	li	t5,1
80003774:	11ed003a 	beq	t7,t5,80003860 <matrix_test+0x800>
80003778:	00000000 	nop
8000377c:	240e0002 	li	t6,2
80003780:	11ee0030 	beq	t7,t6,80003844 <matrix_test+0x7e4>
80003784:	00000000 	nop
80003788:	24070003 	li	a3,3
8000378c:	11e70026 	beq	t7,a3,80003828 <matrix_test+0x7c8>
80003790:	00000000 	nop
80003794:	24170004 	li	s7,4
80003798:	11f7001c 	beq	t7,s7,8000380c <matrix_test+0x7ac>
8000379c:	00000000 	nop
800037a0:	24060005 	li	a2,5
800037a4:	11e60012 	beq	t7,a2,800037f0 <matrix_test+0x790>
800037a8:	00000000 	nop
800037ac:	24040006 	li	a0,6
800037b0:	11e40008 	beq	t7,a0,800037d4 <matrix_test+0x774>
800037b4:	00000000 	nop
800037b8:	85580000 	lh	t8,0(t2)
800037bc:	26c90004 	addiu	t1,s6,4
800037c0:	86c80002 	lh	t0,2(s6)
800037c4:	256a0004 	addiu	t2,t3,4
800037c8:	03080018 	mult	t8,t0
800037cc:	0000f812 	mflo	ra
800037d0:	00bf2821 	addu	a1,a1,ra
800037d4:	85430000 	lh	v1,0(t2)
800037d8:	25290002 	addiu	t1,t1,2
800037dc:	852ffffe 	lh	t7,-2(t1)
800037e0:	254a0002 	addiu	t2,t2,2
800037e4:	006f0018 	mult	v1,t7
800037e8:	00006812 	mflo	t5
800037ec:	00ad2821 	addu	a1,a1,t5
800037f0:	854e0000 	lh	t6,0(t2)
800037f4:	25290002 	addiu	t1,t1,2
800037f8:	8527fffe 	lh	a3,-2(t1)
800037fc:	254a0002 	addiu	t2,t2,2
80003800:	01c70018 	mult	t6,a3
80003804:	0000b812 	mflo	s7
80003808:	00b72821 	addu	a1,a1,s7
8000380c:	85460000 	lh	a2,0(t2)
80003810:	25290002 	addiu	t1,t1,2
80003814:	8524fffe 	lh	a0,-2(t1)
80003818:	254a0002 	addiu	t2,t2,2
8000381c:	00c40018 	mult	a2,a0
80003820:	0000c012 	mflo	t8
80003824:	00b82821 	addu	a1,a1,t8
80003828:	85480000 	lh	t0,0(t2)
8000382c:	25290002 	addiu	t1,t1,2
80003830:	853ffffe 	lh	ra,-2(t1)
80003834:	254a0002 	addiu	t2,t2,2
80003838:	011f0018 	mult	t0,ra
8000383c:	00001812 	mflo	v1
80003840:	00a32821 	addu	a1,a1,v1
80003844:	854f0000 	lh	t7,0(t2)
80003848:	25290002 	addiu	t1,t1,2
8000384c:	852dfffe 	lh	t5,-2(t1)
80003850:	254a0002 	addiu	t2,t2,2
80003854:	01ed0018 	mult	t7,t5
80003858:	00007012 	mflo	t6
8000385c:	00ae2821 	addu	a1,a1,t6
80003860:	25290002 	addiu	t1,t1,2
80003864:	85470000 	lh	a3,0(t2)
80003868:	8537fffe 	lh	s7,-2(t1)
8000386c:	254a0002 	addiu	t2,t2,2
80003870:	00f70018 	mult	a3,s7
80003874:	00003012 	mflo	a2
80003878:	00a62821 	addu	a1,a1,a2
8000387c:	1189003a 	beq	t4,t1,80003968 <matrix_test+0x908>
80003880:	00000000 	nop
80003884:	25290010 	addiu	t1,t1,16
80003888:	85440000 	lh	a0,0(t2)
8000388c:	8538fff0 	lh	t8,-16(t1)
80003890:	254a0010 	addiu	t2,t2,16
80003894:	8528fff2 	lh	t0,-14(t1)
80003898:	852dfff4 	lh	t5,-12(t1)
8000389c:	00980018 	mult	a0,t8
800038a0:	855ffff2 	lh	ra,-14(t2)
800038a4:	854ffff4 	lh	t7,-12(t2)
800038a8:	8558fff6 	lh	t8,-10(t2)
800038ac:	8526fff6 	lh	a2,-10(t1)
800038b0:	00001812 	mflo	v1
800038b4:	854efff8 	lh	t6,-8(t2)
800038b8:	00000000 	nop
800038bc:	03e80018 	mult	ra,t0
800038c0:	8524fff8 	lh	a0,-8(t1)
800038c4:	8548fffa 	lh	t0,-6(t2)
800038c8:	0000b812 	mflo	s7
	...
800038d4:	01ed0018 	mult	t7,t5
800038d8:	00a32821 	addu	a1,a1,v1
800038dc:	8523fffa 	lh	v1,-6(t1)
800038e0:	00003812 	mflo	a3
	...
800038ec:	03060018 	mult	t8,a2
800038f0:	8538fffc 	lh	t8,-4(t1)
800038f4:	00b7f821 	addu	ra,a1,s7
800038f8:	8557fffc 	lh	s7,-4(t2)
800038fc:	00007812 	mflo	t7
	...
80003908:	01c40018 	mult	t6,a0
8000390c:	8544fffe 	lh	a0,-2(t2)
80003910:	03e73021 	addu	a2,ra,a3
80003914:	853ffffe 	lh	ra,-2(t1)
80003918:	00006812 	mflo	t5
	...
80003924:	01030018 	mult	t0,v1
80003928:	00cf2821 	addu	a1,a2,t7
8000392c:	00007012 	mflo	t6
	...
80003938:	02f80018 	mult	s7,t8
8000393c:	00ad7821 	addu	t7,a1,t5
80003940:	00003812 	mflo	a3
	...
8000394c:	009f0018 	mult	a0,ra
80003950:	01ee1821 	addu	v1,t7,t6
80003954:	00004012 	mflo	t0
80003958:	00676821 	addu	t5,v1,a3
8000395c:	01a82821 	addu	a1,t5,t0
80003960:	1589ffc8 	bne	t4,t1,80003884 <matrix_test+0x824>
80003964:	00000000 	nop
80003968:	afc50000 	sw	a1,0(s8)
8000396c:	27de0004 	addiu	s8,s8,4
80003970:	01705821 	addu	t3,t3,s0
80003974:	17d9ff70 	bne	s8,t9,80003738 <matrix_test+0x6d8>
80003978:	00000000 	nop
8000397c:	0000c825 	move	t9,zero
80003980:	00003025 	move	a2,zero
80003984:	00002025 	move	a0,zero
80003988:	00001825 	move	v1,zero
8000398c:	0240b825 	move	s7,s2
80003990:	0240f025 	move	s8,s2
80003994:	00c05825 	move	t3,a2
80003998:	8fc60000 	lw	a2,0(s8)
8000399c:	3098ffff 	andi	t8,a0,0xffff
800039a0:	268cfffc 	addiu	t4,s4,-4
800039a4:	0166202a 	slt	a0,t3,a2
800039a8:	270a000a 	addiu	t2,t8,10
800039ac:	03042821 	addu	a1,t8,a0
800039b0:	00c37021 	addu	t6,a2,v1
800039b4:	000c4882 	srl	t1,t4,0x2
800039b8:	000a4400 	sll	t0,t2,0x10
800039bc:	00051c00 	sll	v1,a1,0x10
800039c0:	022ef82a 	slt	ra,s1,t6
800039c4:	029e3821 	addu	a3,s4,s8
800039c8:	312f0003 	andi	t7,t1,0x3
800039cc:	00086c03 	sra	t5,t0,0x10
800039d0:	00035c03 	sra	t3,v1,0x10
800039d4:	13e003c2 	beqz	ra,800048e0 <matrix_test+0x1880>
800039d8:	00000000 	nop
800039dc:	00006025 	move	t4,zero
800039e0:	01801825 	move	v1,t4
800039e4:	13e00002 	beqz	ra,800039f0 <matrix_test+0x990>
800039e8:	00000000 	nop
800039ec:	01a05825 	move	t3,t5
800039f0:	27c80004 	addiu	t0,s8,4
800039f4:	000bf400 	sll	s8,t3,0x10
800039f8:	00c05825 	move	t3,a2
800039fc:	001e2403 	sra	a0,s8,0x10
80003a00:	10e80092 	beq	a3,t0,80003c4c <matrix_test+0xbec>
80003a04:	00000000 	nop
80003a08:	11e00046 	beqz	t7,80003b24 <matrix_test+0xac4>
80003a0c:	00000000 	nop
80003a10:	24180001 	li	t8,1
80003a14:	11f8002d 	beq	t7,t8,80003acc <matrix_test+0xa6c>
80003a18:	00000000 	nop
80003a1c:	240e0002 	li	t6,2
80003a20:	11ee0015 	beq	t7,t6,80003a78 <matrix_test+0xa18>
80003a24:	00000000 	nop
80003a28:	8d0b0000 	lw	t3,0(t0)
80003a2c:	3084ffff 	andi	a0,a0,0xffff
80003a30:	248a000a 	addiu	t2,a0,10
80003a34:	00cb302a 	slt	a2,a2,t3
80003a38:	00864821 	addu	t1,a0,a2
80003a3c:	016c1821 	addu	v1,t3,t4
80003a40:	000afc00 	sll	ra,t2,0x10
80003a44:	00096c00 	sll	t5,t1,0x10
80003a48:	0223282a 	slt	a1,s1,v1
80003a4c:	001f7c03 	sra	t7,ra,0x10
80003a50:	000d6403 	sra	t4,t5,0x10
80003a54:	10a00002 	beqz	a1,80003a60 <matrix_test+0xa00>
80003a58:	00000000 	nop
80003a5c:	00001825 	move	v1,zero
80003a60:	10a00002 	beqz	a1,80003a6c <matrix_test+0xa0c>
80003a64:	00000000 	nop
80003a68:	01e06025 	move	t4,t7
80003a6c:	000cf400 	sll	s8,t4,0x10
80003a70:	25080004 	addiu	t0,t0,4
80003a74:	001e2403 	sra	a0,s8,0x10
80003a78:	8d180000 	lw	t8,0(t0)
80003a7c:	308effff 	andi	t6,a0,0xffff
80003a80:	25c4000a 	addiu	a0,t6,10
80003a84:	0178582a 	slt	t3,t3,t8
80003a88:	01cb3021 	addu	a2,t6,t3
80003a8c:	03031821 	addu	v1,t8,v1
80003a90:	00044c00 	sll	t1,a0,0x10
80003a94:	0006fc00 	sll	ra,a2,0x10
80003a98:	0223502a 	slt	t2,s1,v1
80003a9c:	00092c03 	sra	a1,t1,0x10
80003aa0:	001f7c03 	sra	t7,ra,0x10
80003aa4:	11400002 	beqz	t2,80003ab0 <matrix_test+0xa50>
80003aa8:	00000000 	nop
80003aac:	00001825 	move	v1,zero
80003ab0:	11400002 	beqz	t2,80003abc <matrix_test+0xa5c>
80003ab4:	00000000 	nop
80003ab8:	00a07825 	move	t7,a1
80003abc:	000f6c00 	sll	t5,t7,0x10
80003ac0:	25080004 	addiu	t0,t0,4
80003ac4:	000d2403 	sra	a0,t5,0x10
80003ac8:	03005825 	move	t3,t8
80003acc:	8d060000 	lw	a2,0(t0)
80003ad0:	308cffff 	andi	t4,a0,0xffff
80003ad4:	259e000a 	addiu	s8,t4,10
80003ad8:	0166c02a 	slt	t8,t3,a2
80003adc:	01987021 	addu	t6,t4,t8
80003ae0:	00c31821 	addu	v1,a2,v1
80003ae4:	001e2400 	sll	a0,s8,0x10
80003ae8:	000e2c00 	sll	a1,t6,0x10
80003aec:	0223482a 	slt	t1,s1,v1
80003af0:	00045403 	sra	t2,a0,0x10
80003af4:	0005fc03 	sra	ra,a1,0x10
80003af8:	11200002 	beqz	t1,80003b04 <matrix_test+0xaa4>
80003afc:	00000000 	nop
80003b00:	00001825 	move	v1,zero
80003b04:	11200002 	beqz	t1,80003b10 <matrix_test+0xab0>
80003b08:	00000000 	nop
80003b0c:	0140f825 	move	ra,t2
80003b10:	001f7c00 	sll	t7,ra,0x10
80003b14:	25080004 	addiu	t0,t0,4
80003b18:	000f2403 	sra	a0,t7,0x10
80003b1c:	10e8004b 	beq	a3,t0,80003c4c <matrix_test+0xbec>
80003b20:	00000000 	nop
80003b24:	8d0d0000 	lw	t5,0(t0)
80003b28:	308bffff 	andi	t3,a0,0xffff
80003b2c:	256c000a 	addiu	t4,t3,10
80003b30:	00cd302a 	slt	a2,a2,t5
80003b34:	0166f021 	addu	s8,t3,a2
80003b38:	01a31821 	addu	v1,t5,v1
80003b3c:	000c7400 	sll	t6,t4,0x10
80003b40:	001e2400 	sll	a0,s8,0x10
80003b44:	0223c02a 	slt	t8,s1,v1
80003b48:	000e4c03 	sra	t1,t6,0x10
80003b4c:	00045403 	sra	t2,a0,0x10
80003b50:	13000002 	beqz	t8,80003b5c <matrix_test+0xafc>
80003b54:	00000000 	nop
80003b58:	00001825 	move	v1,zero
80003b5c:	13000002 	beqz	t8,80003b68 <matrix_test+0xb08>
80003b60:	00000000 	nop
80003b64:	01205025 	move	t2,t1
80003b68:	8d050004 	lw	a1,4(t0)
80003b6c:	315fffff 	andi	ra,t2,0xffff
80003b70:	27ef000a 	addiu	t7,ra,10
80003b74:	25080004 	addiu	t0,t0,4
80003b78:	01a5682a 	slt	t5,t5,a1
80003b7c:	03ed5821 	addu	t3,ra,t5
80003b80:	00a37021 	addu	t6,a1,v1
80003b84:	000f3400 	sll	a2,t7,0x10
80003b88:	000bc400 	sll	t8,t3,0x10
80003b8c:	022e602a 	slt	t4,s1,t6
80003b90:	0006f403 	sra	s8,a2,0x10
80003b94:	00184c03 	sra	t1,t8,0x10
80003b98:	11800002 	beqz	t4,80003ba4 <matrix_test+0xb44>
80003b9c:	00000000 	nop
80003ba0:	00007025 	move	t6,zero
80003ba4:	11800002 	beqz	t4,80003bb0 <matrix_test+0xb50>
80003ba8:	00000000 	nop
80003bac:	03c04825 	move	t1,s8
80003bb0:	8d0a0004 	lw	t2,4(t0)
80003bb4:	3124ffff 	andi	a0,t1,0xffff
80003bb8:	249f000a 	addiu	ra,a0,10
80003bbc:	00aa282a 	slt	a1,a1,t2
80003bc0:	00857821 	addu	t7,a0,a1
80003bc4:	014e1821 	addu	v1,t2,t6
80003bc8:	001f5c00 	sll	t3,ra,0x10
80003bcc:	000f3400 	sll	a2,t7,0x10
80003bd0:	0223682a 	slt	t5,s1,v1
80003bd4:	000b6403 	sra	t4,t3,0x10
80003bd8:	0006f403 	sra	s8,a2,0x10
80003bdc:	11a00002 	beqz	t5,80003be8 <matrix_test+0xb88>
80003be0:	00000000 	nop
80003be4:	00001825 	move	v1,zero
80003be8:	11a00002 	beqz	t5,80003bf4 <matrix_test+0xb94>
80003bec:	00000000 	nop
80003bf0:	0180f025 	move	s8,t4
80003bf4:	8d060008 	lw	a2,8(t0)
80003bf8:	33d8ffff 	andi	t8,s8,0xffff
80003bfc:	270e000a 	addiu	t6,t8,10
80003c00:	0146482a 	slt	t1,t2,a2
80003c04:	03092021 	addu	a0,t8,t1
80003c08:	00c31821 	addu	v1,a2,v1
80003c0c:	000efc00 	sll	ra,t6,0x10
80003c10:	00047c00 	sll	t7,a0,0x10
80003c14:	0223502a 	slt	t2,s1,v1
80003c18:	001f2c03 	sra	a1,ra,0x10
80003c1c:	000f6c03 	sra	t5,t7,0x10
80003c20:	11400002 	beqz	t2,80003c2c <matrix_test+0xbcc>
80003c24:	00000000 	nop
80003c28:	00001825 	move	v1,zero
80003c2c:	11400002 	beqz	t2,80003c38 <matrix_test+0xbd8>
80003c30:	00000000 	nop
80003c34:	00a06825 	move	t5,a1
80003c38:	000d5c00 	sll	t3,t5,0x10
80003c3c:	2508000c 	addiu	t0,t0,12
80003c40:	000b2403 	sra	a0,t3,0x10
80003c44:	14e8ffb7 	bne	a3,t0,80003b24 <matrix_test+0xac4>
80003c48:	00000000 	nop
80003c4c:	27390001 	addiu	t9,t9,1
80003c50:	00e0f025 	move	s8,a3
80003c54:	16b9ff4f 	bne	s5,t9,80003994 <matrix_test+0x934>
80003c58:	00000000 	nop
80003c5c:	00402825 	move	a1,v0
80003c60:	0c001cf0 	jal	800073c0 <crc16>
80003c64:	00000000 	nop
80003c68:	0000f025 	move	s8,zero
80003c6c:	8fa80048 	lw	t0,72(sp)
80003c70:	02d0f821 	addu	ra,s6,s0
80003c74:	afa20010 	sw	v0,16(sp)
80003c78:	02083021 	addu	a2,s0,t0
80003c7c:	02c02825 	move	a1,s6
80003c80:	02e07825 	move	t7,s7
80003c84:	85190000 	lh	t9,0(t0)
80003c88:	00c81023 	subu	v0,a2,t0
80003c8c:	84a70000 	lh	a3,0(a1)
80003c90:	25030002 	addiu	v1,t0,2
80003c94:	244cfffe 	addiu	t4,v0,-2
80003c98:	00b02021 	addu	a0,a1,s0
80003c9c:	03270018 	mult	t9,a3
80003ca0:	000cc042 	srl	t8,t4,0x1
80003ca4:	330e0007 	andi	t6,t8,0x7
80003ca8:	00005012 	mflo	t2
80003cac:	10c30088 	beq	a2,v1,80003ed0 <matrix_test+0xe70>
80003cb0:	00000000 	nop
80003cb4:	11c00046 	beqz	t6,80003dd0 <matrix_test+0xd70>
80003cb8:	00000000 	nop
80003cbc:	24090001 	li	t1,1
80003cc0:	11c9003a 	beq	t6,t1,80003dac <matrix_test+0xd4c>
80003cc4:	00000000 	nop
80003cc8:	240d0002 	li	t5,2
80003ccc:	11cd0030 	beq	t6,t5,80003d90 <matrix_test+0xd30>
80003cd0:	00000000 	nop
80003cd4:	240b0003 	li	t3,3
80003cd8:	11cb0026 	beq	t6,t3,80003d74 <matrix_test+0xd14>
80003cdc:	00000000 	nop
80003ce0:	24020004 	li	v0,4
80003ce4:	11c2001c 	beq	t6,v0,80003d58 <matrix_test+0xcf8>
80003ce8:	00000000 	nop
80003cec:	24190005 	li	t9,5
80003cf0:	11d90012 	beq	t6,t9,80003d3c <matrix_test+0xcdc>
80003cf4:	00000000 	nop
80003cf8:	24070006 	li	a3,6
80003cfc:	11c70008 	beq	t6,a3,80003d20 <matrix_test+0xcc0>
80003d00:	00000000 	nop
80003d04:	846c0000 	lh	t4,0(v1)
80003d08:	25030004 	addiu	v1,t0,4
80003d0c:	84980000 	lh	t8,0(a0)
80003d10:	00902021 	addu	a0,a0,s0
80003d14:	01980018 	mult	t4,t8
80003d18:	00007012 	mflo	t6
80003d1c:	014e5021 	addu	t2,t2,t6
80003d20:	84690000 	lh	t1,0(v1)
80003d24:	24630002 	addiu	v1,v1,2
80003d28:	848d0000 	lh	t5,0(a0)
80003d2c:	00902021 	addu	a0,a0,s0
80003d30:	012d0018 	mult	t1,t5
80003d34:	00005812 	mflo	t3
80003d38:	014b5021 	addu	t2,t2,t3
80003d3c:	84620000 	lh	v0,0(v1)
80003d40:	24630002 	addiu	v1,v1,2
80003d44:	84990000 	lh	t9,0(a0)
80003d48:	00902021 	addu	a0,a0,s0
80003d4c:	00590018 	mult	v0,t9
80003d50:	00003812 	mflo	a3
80003d54:	01475021 	addu	t2,t2,a3
80003d58:	846c0000 	lh	t4,0(v1)
80003d5c:	24630002 	addiu	v1,v1,2
80003d60:	84980000 	lh	t8,0(a0)
80003d64:	00902021 	addu	a0,a0,s0
80003d68:	01980018 	mult	t4,t8
80003d6c:	00007012 	mflo	t6
80003d70:	014e5021 	addu	t2,t2,t6
80003d74:	84690000 	lh	t1,0(v1)
80003d78:	24630002 	addiu	v1,v1,2
80003d7c:	848d0000 	lh	t5,0(a0)
80003d80:	00902021 	addu	a0,a0,s0
80003d84:	012d0018 	mult	t1,t5
80003d88:	00005812 	mflo	t3
80003d8c:	014b5021 	addu	t2,t2,t3
80003d90:	84620000 	lh	v0,0(v1)
80003d94:	24630002 	addiu	v1,v1,2
80003d98:	84990000 	lh	t9,0(a0)
80003d9c:	00902021 	addu	a0,a0,s0
80003da0:	00590018 	mult	v0,t9
80003da4:	00003812 	mflo	a3
80003da8:	01475021 	addu	t2,t2,a3
80003dac:	846c0000 	lh	t4,0(v1)
80003db0:	24630002 	addiu	v1,v1,2
80003db4:	84980000 	lh	t8,0(a0)
80003db8:	00902021 	addu	a0,a0,s0
80003dbc:	01980018 	mult	t4,t8
80003dc0:	00007012 	mflo	t6
80003dc4:	014e5021 	addu	t2,t2,t6
80003dc8:	10c30041 	beq	a2,v1,80003ed0 <matrix_test+0xe70>
80003dcc:	00000000 	nop
80003dd0:	84620000 	lh	v0,0(v1)
80003dd4:	00906821 	addu	t5,a0,s0
80003dd8:	84890000 	lh	t1,0(a0)
80003ddc:	24630010 	addiu	v1,v1,16
80003de0:	01b0c821 	addu	t9,t5,s0
80003de4:	85b80000 	lh	t8,0(t5)
80003de8:	00490018 	mult	v0,t1
80003dec:	846bfff2 	lh	t3,-14(v1)
80003df0:	87270000 	lh	a3,0(t9)
80003df4:	03302021 	addu	a0,t9,s0
80003df8:	846efff4 	lh	t6,-12(v1)
80003dfc:	00906021 	addu	t4,a0,s0
80003e00:	846dfff6 	lh	t5,-10(v1)
80003e04:	00001012 	mflo	v0
80003e08:	84840000 	lh	a0,0(a0)
80003e0c:	00000000 	nop
80003e10:	01780018 	mult	t3,t8
80003e14:	8479fff8 	lh	t9,-8(v1)
80003e18:	01905821 	addu	t3,t4,s0
80003e1c:	858c0000 	lh	t4,0(t4)
80003e20:	0000c012 	mflo	t8
	...
80003e2c:	01c70018 	mult	t6,a3
80003e30:	8467fffa 	lh	a3,-6(v1)
80003e34:	01424821 	addu	t1,t2,v0
80003e38:	01705021 	addu	t2,t3,s0
80003e3c:	856b0000 	lh	t3,0(t3)
80003e40:	00007012 	mflo	t6
	...
80003e4c:	01a40018 	mult	t5,a0
80003e50:	01381021 	addu	v0,t1,t8
80003e54:	8478fffc 	lh	t8,-4(v1)
80003e58:	01502021 	addu	a0,t2,s0
80003e5c:	854a0000 	lh	t2,0(t2)
80003e60:	8469fffe 	lh	t1,-2(v1)
80003e64:	00006812 	mflo	t5
	...
80003e70:	032c0018 	mult	t9,t4
80003e74:	004e7021 	addu	t6,v0,t6
80003e78:	84820000 	lh	v0,0(a0)
80003e7c:	00902021 	addu	a0,a0,s0
80003e80:	0000c812 	mflo	t9
	...
80003e8c:	00eb0018 	mult	a3,t3
80003e90:	01cd6021 	addu	t4,t6,t5
80003e94:	00003812 	mflo	a3
	...
80003ea0:	030a0018 	mult	t8,t2
80003ea4:	01995821 	addu	t3,t4,t9
80003ea8:	0000c012 	mflo	t8
	...
80003eb4:	01220018 	mult	t1,v0
80003eb8:	01674821 	addu	t1,t3,a3
80003ebc:	00006812 	mflo	t5
80003ec0:	01385021 	addu	t2,t1,t8
80003ec4:	014d5021 	addu	t2,t2,t5
80003ec8:	14c3ffc1 	bne	a2,v1,80003dd0 <matrix_test+0xd70>
80003ecc:	00000000 	nop
80003ed0:	24a50002 	addiu	a1,a1,2
80003ed4:	adea0000 	sw	t2,0(t7)
80003ed8:	25ef0004 	addiu	t7,t7,4
80003edc:	14bfff69 	bne	a1,ra,80003c84 <matrix_test+0xc24>
80003ee0:	00000000 	nop
80003ee4:	27de0001 	addiu	s8,s8,1
80003ee8:	02f4b821 	addu	s7,s7,s4
80003eec:	00c04025 	move	t0,a2
80003ef0:	16beff61 	bne	s5,s8,80003c78 <matrix_test+0xc18>
80003ef4:	00000000 	nop
80003ef8:	0000f825 	move	ra,zero
80003efc:	00004025 	move	t0,zero
80003f00:	00002025 	move	a0,zero
80003f04:	00001025 	move	v0,zero
80003f08:	0240b825 	move	s7,s2
80003f0c:	02403825 	move	a3,s2
80003f10:	0100f025 	move	s8,t0
80003f14:	8ce80000 	lw	t0,0(a3)
80003f18:	3086ffff 	andi	a2,a0,0xffff
80003f1c:	2683fffc 	addiu	v1,s4,-4
80003f20:	03c8202a 	slt	a0,s8,t0
80003f24:	01027021 	addu	t6,t0,v0
80003f28:	24cc000a 	addiu	t4,a2,10
80003f2c:	00c41021 	addu	v0,a2,a0
80003f30:	0003c882 	srl	t9,v1,0x2
80003f34:	000c5c00 	sll	t3,t4,0x10
80003f38:	00025400 	sll	t2,v0,0x10
80003f3c:	022ec02a 	slt	t8,s1,t6
80003f40:	02876821 	addu	t5,s4,a3
80003f44:	33250003 	andi	a1,t9,0x3
80003f48:	000b4c03 	sra	t1,t3,0x10
80003f4c:	000af403 	sra	s8,t2,0x10
80003f50:	1300025f 	beqz	t8,800048d0 <matrix_test+0x1870>
80003f54:	00000000 	nop
80003f58:	00007825 	move	t7,zero
80003f5c:	01e01025 	move	v0,t7
80003f60:	13000002 	beqz	t8,80003f6c <matrix_test+0xf0c>
80003f64:	00000000 	nop
80003f68:	0120f025 	move	s8,t1
80003f6c:	001e1c00 	sll	v1,s8,0x10
80003f70:	24e70004 	addiu	a3,a3,4
80003f74:	00032403 	sra	a0,v1,0x10
80003f78:	01005025 	move	t2,t0
80003f7c:	10ed0093 	beq	a3,t5,800041cc <matrix_test+0x116c>
80003f80:	00000000 	nop
80003f84:	10a00047 	beqz	a1,800040a4 <matrix_test+0x1044>
80003f88:	00000000 	nop
80003f8c:	24060001 	li	a2,1
80003f90:	10a6002e 	beq	a1,a2,8000404c <matrix_test+0xfec>
80003f94:	00000000 	nop
80003f98:	240e0002 	li	t6,2
80003f9c:	10ae0016 	beq	a1,t6,80003ff8 <matrix_test+0xf98>
80003fa0:	00000000 	nop
80003fa4:	8cf90000 	lw	t9,0(a3)
80003fa8:	3084ffff 	andi	a0,a0,0xffff
80003fac:	248c000a 	addiu	t4,a0,10
80003fb0:	0119402a 	slt	t0,t0,t9
80003fb4:	0088c021 	addu	t8,a0,t0
80003fb8:	032f1021 	addu	v0,t9,t7
80003fbc:	000c5c00 	sll	t3,t4,0x10
80003fc0:	00185400 	sll	t2,t8,0x10
80003fc4:	0222282a 	slt	a1,s1,v0
80003fc8:	000b4c03 	sra	t1,t3,0x10
80003fcc:	000a7c03 	sra	t7,t2,0x10
80003fd0:	10a00002 	beqz	a1,80003fdc <matrix_test+0xf7c>
80003fd4:	00000000 	nop
80003fd8:	00001025 	move	v0,zero
80003fdc:	10a00002 	beqz	a1,80003fe8 <matrix_test+0xf88>
80003fe0:	00000000 	nop
80003fe4:	01207825 	move	t7,t1
80003fe8:	000ff400 	sll	s8,t7,0x10
80003fec:	24e70004 	addiu	a3,a3,4
80003ff0:	001e2403 	sra	a0,s8,0x10
80003ff4:	03205025 	move	t2,t9
80003ff8:	8ce60000 	lw	a2,0(a3)
80003ffc:	308effff 	andi	t6,a0,0xffff
80004000:	25d9000a 	addiu	t9,t6,10
80004004:	0146182a 	slt	v1,t2,a2
80004008:	01c32021 	addu	a0,t6,v1
8000400c:	00c21021 	addu	v0,a2,v0
80004010:	00194400 	sll	t0,t9,0x10
80004014:	00042c00 	sll	a1,a0,0x10
80004018:	0222602a 	slt	t4,s1,v0
8000401c:	0008c403 	sra	t8,t0,0x10
80004020:	00055c03 	sra	t3,a1,0x10
80004024:	11800002 	beqz	t4,80004030 <matrix_test+0xfd0>
80004028:	00000000 	nop
8000402c:	00001025 	move	v0,zero
80004030:	11800002 	beqz	t4,8000403c <matrix_test+0xfdc>
80004034:	00000000 	nop
80004038:	03005825 	move	t3,t8
8000403c:	000b4c00 	sll	t1,t3,0x10
80004040:	24e70004 	addiu	a3,a3,4
80004044:	00092403 	sra	a0,t1,0x10
80004048:	00c05025 	move	t2,a2
8000404c:	8ce80000 	lw	t0,0(a3)
80004050:	308fffff 	andi	t7,a0,0xffff
80004054:	25fe000a 	addiu	s8,t7,10
80004058:	0148302a 	slt	a2,t2,t0
8000405c:	01e67021 	addu	t6,t7,a2
80004060:	01021021 	addu	v0,t0,v0
80004064:	001e1c00 	sll	v1,s8,0x10
80004068:	000e6400 	sll	t4,t6,0x10
8000406c:	0222c82a 	slt	t9,s1,v0
80004070:	00032403 	sra	a0,v1,0x10
80004074:	000cc403 	sra	t8,t4,0x10
80004078:	13200002 	beqz	t9,80004084 <matrix_test+0x1024>
8000407c:	00000000 	nop
80004080:	00001025 	move	v0,zero
80004084:	13200002 	beqz	t9,80004090 <matrix_test+0x1030>
80004088:	00000000 	nop
8000408c:	0080c025 	move	t8,a0
80004090:	00182c00 	sll	a1,t8,0x10
80004094:	24e70004 	addiu	a3,a3,4
80004098:	00052403 	sra	a0,a1,0x10
8000409c:	10ed004b 	beq	a3,t5,800041cc <matrix_test+0x116c>
800040a0:	00000000 	nop
800040a4:	8ceb0000 	lw	t3,0(a3)
800040a8:	3089ffff 	andi	t1,a0,0xffff
800040ac:	252a000a 	addiu	t2,t1,10
800040b0:	010b402a 	slt	t0,t0,t3
800040b4:	01287821 	addu	t7,t1,t0
800040b8:	01621021 	addu	v0,t3,v0
800040bc:	000a3400 	sll	a2,t2,0x10
800040c0:	000f7400 	sll	t6,t7,0x10
800040c4:	0222f02a 	slt	s8,s1,v0
800040c8:	00061c03 	sra	v1,a2,0x10
800040cc:	000ecc03 	sra	t9,t6,0x10
800040d0:	13c00002 	beqz	s8,800040dc <matrix_test+0x107c>
800040d4:	00000000 	nop
800040d8:	00001025 	move	v0,zero
800040dc:	17c00002 	bnez	s8,800040e8 <matrix_test+0x1088>
800040e0:	00000000 	nop
800040e4:	03201825 	move	v1,t9
800040e8:	8cec0004 	lw	t4,4(a3)
800040ec:	3078ffff 	andi	t8,v1,0xffff
800040f0:	2704000a 	addiu	a0,t8,10
800040f4:	24e70004 	addiu	a3,a3,4
800040f8:	016c282a 	slt	a1,t3,t4
800040fc:	03055821 	addu	t3,t8,a1
80004100:	0182f021 	addu	s8,t4,v0
80004104:	00045400 	sll	t2,a0,0x10
80004108:	000b7c00 	sll	t7,t3,0x10
8000410c:	023e482a 	slt	t1,s1,s8
80004110:	000a4403 	sra	t0,t2,0x10
80004114:	000f3403 	sra	a2,t7,0x10
80004118:	11200002 	beqz	t1,80004124 <matrix_test+0x10c4>
8000411c:	00000000 	nop
80004120:	0000f025 	move	s8,zero
80004124:	11200002 	beqz	t1,80004130 <matrix_test+0x10d0>
80004128:	00000000 	nop
8000412c:	01003025 	move	a2,t0
80004130:	8cee0004 	lw	t6,4(a3)
80004134:	30d9ffff 	andi	t9,a2,0xffff
80004138:	2738000a 	addiu	t8,t9,10
8000413c:	018e182a 	slt	v1,t4,t6
80004140:	03236021 	addu	t4,t9,v1
80004144:	01de1021 	addu	v0,t6,s8
80004148:	00182400 	sll	a0,t8,0x10
8000414c:	000c4c00 	sll	t1,t4,0x10
80004150:	0222282a 	slt	a1,s1,v0
80004154:	00045c03 	sra	t3,a0,0x10
80004158:	00095403 	sra	t2,t1,0x10
8000415c:	10a00002 	beqz	a1,80004168 <matrix_test+0x1108>
80004160:	00000000 	nop
80004164:	00001025 	move	v0,zero
80004168:	10a00002 	beqz	a1,80004174 <matrix_test+0x1114>
8000416c:	00000000 	nop
80004170:	01605025 	move	t2,t3
80004174:	8ce80008 	lw	t0,8(a3)
80004178:	314fffff 	andi	t7,t2,0xffff
8000417c:	25fe000a 	addiu	s8,t7,10
80004180:	01c8302a 	slt	a2,t6,t0
80004184:	01e67021 	addu	t6,t7,a2
80004188:	01021021 	addu	v0,t0,v0
8000418c:	001ec400 	sll	t8,s8,0x10
80004190:	000e1c00 	sll	v1,t6,0x10
80004194:	0222c82a 	slt	t9,s1,v0
80004198:	00186403 	sra	t4,t8,0x10
8000419c:	00032c03 	sra	a1,v1,0x10
800041a0:	13200002 	beqz	t9,800041ac <matrix_test+0x114c>
800041a4:	00000000 	nop
800041a8:	00001025 	move	v0,zero
800041ac:	13200002 	beqz	t9,800041b8 <matrix_test+0x1158>
800041b0:	00000000 	nop
800041b4:	01802825 	move	a1,t4
800041b8:	00052400 	sll	a0,a1,0x10
800041bc:	24e7000c 	addiu	a3,a3,12
800041c0:	00042403 	sra	a0,a0,0x10
800041c4:	14edffb7 	bne	a3,t5,800040a4 <matrix_test+0x1044>
800041c8:	00000000 	nop
800041cc:	27ff0001 	addiu	ra,ra,1
800041d0:	16bfff4f 	bne	s5,ra,80003f10 <matrix_test+0xeb0>
800041d4:	00000000 	nop
800041d8:	8fa50010 	lw	a1,16(sp)
800041dc:	0c001cf0 	jal	800073c0 <crc16>
800041e0:	00000000 	nop
800041e4:	02d07821 	addu	t7,s6,s0
800041e8:	8fad0048 	lw	t5,72(sp)
800041ec:	0000c025 	move	t8,zero
800041f0:	020d5821 	addu	t3,s0,t5
800041f4:	02c06025 	move	t4,s6
800041f8:	02e07025 	move	t6,s7
800041fc:	85bf0000 	lh	ra,0(t5)
80004200:	016d4823 	subu	t1,t3,t5
80004204:	859e0000 	lh	s8,0(t4)
80004208:	25a80002 	addiu	t0,t5,2
8000420c:	252afffe 	addiu	t2,t1,-2
80004210:	01904821 	addu	t1,t4,s0
80004214:	03fe0018 	mult	ra,s8
80004218:	000ac842 	srl	t9,t2,0x1
8000421c:	33250003 	andi	a1,t9,0x3
80004220:	00003012 	mflo	a2
80004224:	00063883 	sra	a3,a2,0x2
80004228:	00061943 	sra	v1,a2,0x5
8000422c:	30e4000f 	andi	a0,a3,0xf
80004230:	307f007f 	andi	ra,v1,0x7f
80004234:	009f0018 	mult	a0,ra
80004238:	0000c812 	mflo	t9
8000423c:	11680072 	beq	t3,t0,80004408 <matrix_test+0x13a8>
80004240:	00000000 	nop
80004244:	10a00030 	beqz	a1,80004308 <matrix_test+0x12a8>
80004248:	00000000 	nop
8000424c:	241e0001 	li	s8,1
80004250:	10be001e 	beq	a1,s8,800042cc <matrix_test+0x126c>
80004254:	00000000 	nop
80004258:	240a0002 	li	t2,2
8000425c:	10aa000e 	beq	a1,t2,80004298 <matrix_test+0x1238>
80004260:	00000000 	nop
80004264:	85060000 	lh	a2,0(t0)
80004268:	25a80004 	addiu	t0,t5,4
8000426c:	85250000 	lh	a1,0(t1)
80004270:	01304821 	addu	t1,t1,s0
80004274:	00c50018 	mult	a2,a1
80004278:	00003812 	mflo	a3
8000427c:	00072083 	sra	a0,a3,0x2
80004280:	00071943 	sra	v1,a3,0x5
80004284:	309f000f 	andi	ra,a0,0xf
80004288:	307e007f 	andi	s8,v1,0x7f
8000428c:	03fe0018 	mult	ra,s8
80004290:	00005012 	mflo	t2
80004294:	032ac821 	addu	t9,t9,t2
80004298:	85060000 	lh	a2,0(t0)
8000429c:	25080002 	addiu	t0,t0,2
800042a0:	85250000 	lh	a1,0(t1)
800042a4:	01304821 	addu	t1,t1,s0
800042a8:	00c50018 	mult	a2,a1
800042ac:	00003812 	mflo	a3
800042b0:	00072083 	sra	a0,a3,0x2
800042b4:	00071943 	sra	v1,a3,0x5
800042b8:	309f000f 	andi	ra,a0,0xf
800042bc:	307e007f 	andi	s8,v1,0x7f
800042c0:	03fe0018 	mult	ra,s8
800042c4:	00005012 	mflo	t2
800042c8:	032ac821 	addu	t9,t9,t2
800042cc:	85060000 	lh	a2,0(t0)
800042d0:	25080002 	addiu	t0,t0,2
800042d4:	85250000 	lh	a1,0(t1)
800042d8:	01304821 	addu	t1,t1,s0
800042dc:	00c50018 	mult	a2,a1
800042e0:	00003812 	mflo	a3
800042e4:	00072083 	sra	a0,a3,0x2
800042e8:	00071943 	sra	v1,a3,0x5
800042ec:	309f000f 	andi	ra,a0,0xf
800042f0:	307e007f 	andi	s8,v1,0x7f
800042f4:	03fe0018 	mult	ra,s8
800042f8:	00005012 	mflo	t2
800042fc:	032ac821 	addu	t9,t9,t2
80004300:	11680041 	beq	t3,t0,80004408 <matrix_test+0x13a8>
80004304:	00000000 	nop
80004308:	85060000 	lh	a2,0(t0)
8000430c:	01303821 	addu	a3,t1,s0
80004310:	85290000 	lh	t1,0(t1)
80004314:	25080008 	addiu	t0,t0,8
80004318:	00f02821 	addu	a1,a3,s0
8000431c:	84ea0000 	lh	t2,0(a3)
80004320:	00c90018 	mult	a2,t1
80004324:	851ffffa 	lh	ra,-6(t0)
80004328:	84be0000 	lh	s8,0(a1)
8000432c:	00b03821 	addu	a3,a1,s0
80004330:	8503fffc 	lh	v1,-4(t0)
80004334:	8505fffe 	lh	a1,-2(t0)
80004338:	00f04821 	addu	t1,a3,s0
8000433c:	00002012 	mflo	a0
80004340:	84e60000 	lh	a2,0(a3)
80004344:	00000000 	nop
80004348:	03ea0018 	mult	ra,t2
8000434c:	0000f812 	mflo	ra
	...
80004358:	007e0018 	mult	v1,s8
8000435c:	00041883 	sra	v1,a0,0x2
80004360:	00042143 	sra	a0,a0,0x5
80004364:	3067000f 	andi	a3,v1,0xf
80004368:	0000f012 	mflo	s8
	...
80004374:	00a60018 	mult	a1,a2
80004378:	3083007f 	andi	v1,a0,0x7f
8000437c:	001f5143 	sra	t2,ra,0x5
80004380:	001f3083 	sra	a2,ra,0x2
80004384:	00002812 	mflo	a1
	...
80004390:	00e30018 	mult	a3,v1
80004394:	30df000f 	andi	ra,a2,0xf
80004398:	3147007f 	andi	a3,t2,0x7f
8000439c:	001e1883 	sra	v1,s8,0x2
800043a0:	00002012 	mflo	a0
	...
800043ac:	03e70018 	mult	ra,a3
800043b0:	001ef143 	sra	s8,s8,0x5
800043b4:	307f000f 	andi	ra,v1,0xf
800043b8:	33c3007f 	andi	v1,s8,0x7f
800043bc:	00003012 	mflo	a2
	...
800043c8:	03e30018 	mult	ra,v1
800043cc:	00055083 	sra	t2,a1,0x2
800043d0:	00052943 	sra	a1,a1,0x5
800043d4:	0324c821 	addu	t9,t9,a0
800043d8:	30be007f 	andi	s8,a1,0x7f
800043dc:	3144000f 	andi	a0,t2,0xf
800043e0:	00003812 	mflo	a3
	...
800043ec:	009e0018 	mult	a0,s8
800043f0:	03263021 	addu	a2,t9,a2
800043f4:	0000f812 	mflo	ra
800043f8:	00c71821 	addu	v1,a2,a3
800043fc:	007fc821 	addu	t9,v1,ra
80004400:	1568ffc1 	bne	t3,t0,80004308 <matrix_test+0x12a8>
80004404:	00000000 	nop
80004408:	258c0002 	addiu	t4,t4,2
8000440c:	add90000 	sw	t9,0(t6)
80004410:	25ce0004 	addiu	t6,t6,4
80004414:	158fff79 	bne	t4,t7,800041fc <matrix_test+0x119c>
80004418:	00000000 	nop
8000441c:	27180001 	addiu	t8,t8,1
80004420:	02f4b821 	addu	s7,s7,s4
80004424:	01606825 	move	t5,t3
80004428:	16b8ff71 	bne	s5,t8,800041f0 <matrix_test+0x1190>
8000442c:	00000000 	nop
80004430:	0000b025 	move	s6,zero
80004434:	00004825 	move	t1,zero
80004438:	00002025 	move	a0,zero
8000443c:	00004025 	move	t0,zero
80004440:	0120b825 	move	s7,t1
80004444:	8e490000 	lw	t1,0(s2)
80004448:	308fffff 	andi	t7,a0,0xffff
8000444c:	268dfffc 	addiu	t5,s4,-4
80004450:	02e9c02a 	slt	t8,s7,t1
80004454:	25e5000a 	addiu	a1,t7,10
80004458:	01f8c821 	addu	t9,t7,t8
8000445c:	01285821 	addu	t3,t1,t0
80004460:	00053c00 	sll	a3,a1,0x10
80004464:	000d4082 	srl	t0,t5,0x2
80004468:	00192400 	sll	a0,t9,0x10
8000446c:	022b502a 	slt	t2,s1,t3
80004470:	0292f021 	addu	s8,s4,s2
80004474:	31060003 	andi	a2,t0,0x3
80004478:	0007fc03 	sra	ra,a3,0x10
8000447c:	00041c03 	sra	v1,a0,0x10
80004480:	11400002 	beqz	t2,8000448c <matrix_test+0x142c>
80004484:	00000000 	nop
80004488:	00005825 	move	t3,zero
8000448c:	01604025 	move	t0,t3
80004490:	11400002 	beqz	t2,8000449c <matrix_test+0x143c>
80004494:	00000000 	nop
80004498:	03e01825 	move	v1,ra
8000449c:	00036400 	sll	t4,v1,0x10
800044a0:	26470004 	addiu	a3,s2,4
800044a4:	000c2403 	sra	a0,t4,0x10
800044a8:	01205025 	move	t2,t1
800044ac:	13c70092 	beq	s8,a3,800046f8 <matrix_test+0x1698>
800044b0:	00000000 	nop
800044b4:	10c00046 	beqz	a2,800045d0 <matrix_test+0x1570>
800044b8:	00000000 	nop
800044bc:	240e0001 	li	t6,1
800044c0:	10ce002d 	beq	a2,t6,80004578 <matrix_test+0x1518>
800044c4:	00000000 	nop
800044c8:	24120002 	li	s2,2
800044cc:	10d20015 	beq	a2,s2,80004524 <matrix_test+0x14c4>
800044d0:	00000000 	nop
800044d4:	8cea0000 	lw	t2,0(a3)
800044d8:	3097ffff 	andi	s7,a0,0xffff
800044dc:	26ed000a 	addiu	t5,s7,10
800044e0:	012a482a 	slt	t1,t1,t2
800044e4:	02e97821 	addu	t7,s7,t1
800044e8:	014b4021 	addu	t0,t2,t3
800044ec:	000d2c00 	sll	a1,t5,0x10
800044f0:	000f3400 	sll	a2,t7,0x10
800044f4:	0228c02a 	slt	t8,s1,t0
800044f8:	0005cc03 	sra	t9,a1,0x10
800044fc:	0006fc03 	sra	ra,a2,0x10
80004500:	13000002 	beqz	t8,8000450c <matrix_test+0x14ac>
80004504:	00000000 	nop
80004508:	00004025 	move	t0,zero
8000450c:	13000002 	beqz	t8,80004518 <matrix_test+0x14b8>
80004510:	00000000 	nop
80004514:	0320f825 	move	ra,t9
80004518:	001f2400 	sll	a0,ra,0x10
8000451c:	24e70004 	addiu	a3,a3,4
80004520:	00042403 	sra	a0,a0,0x10
80004524:	8ceb0000 	lw	t3,0(a3)
80004528:	308cffff 	andi	t4,a0,0xffff
8000452c:	2583000a 	addiu	v1,t4,10
80004530:	014b502a 	slt	t2,t2,t3
80004534:	018a7021 	addu	t6,t4,t2
80004538:	01684021 	addu	t0,t3,t0
8000453c:	0003bc00 	sll	s7,v1,0x10
80004540:	000e4c00 	sll	t1,t6,0x10
80004544:	0228902a 	slt	s2,s1,t0
80004548:	00176c03 	sra	t5,s7,0x10
8000454c:	00097c03 	sra	t7,t1,0x10
80004550:	12400002 	beqz	s2,8000455c <matrix_test+0x14fc>
80004554:	00000000 	nop
80004558:	00004025 	move	t0,zero
8000455c:	12400002 	beqz	s2,80004568 <matrix_test+0x1508>
80004560:	00000000 	nop
80004564:	01a07825 	move	t7,t5
80004568:	000fc400 	sll	t8,t7,0x10
8000456c:	24e70004 	addiu	a3,a3,4
80004570:	00182403 	sra	a0,t8,0x10
80004574:	01605025 	move	t2,t3
80004578:	8ce90000 	lw	t1,0(a3)
8000457c:	3085ffff 	andi	a1,a0,0xffff
80004580:	24b9000a 	addiu	t9,a1,10
80004584:	0149302a 	slt	a2,t2,t1
80004588:	00a6f821 	addu	ra,a1,a2
8000458c:	01284021 	addu	t0,t1,t0
80004590:	00192400 	sll	a0,t9,0x10
80004594:	001f1c00 	sll	v1,ra,0x10
80004598:	0228582a 	slt	t3,s1,t0
8000459c:	00046403 	sra	t4,a0,0x10
800045a0:	00037403 	sra	t6,v1,0x10
800045a4:	11600002 	beqz	t3,800045b0 <matrix_test+0x1550>
800045a8:	00000000 	nop
800045ac:	00004025 	move	t0,zero
800045b0:	11600002 	beqz	t3,800045bc <matrix_test+0x155c>
800045b4:	00000000 	nop
800045b8:	01807025 	move	t6,t4
800045bc:	000e9400 	sll	s2,t6,0x10
800045c0:	24e70004 	addiu	a3,a3,4
800045c4:	00122403 	sra	a0,s2,0x10
800045c8:	13c7004b 	beq	s8,a3,800046f8 <matrix_test+0x1698>
800045cc:	00000000 	nop
800045d0:	8cf70000 	lw	s7,0(a3)
800045d4:	308dffff 	andi	t5,a0,0xffff
800045d8:	25af000a 	addiu	t7,t5,10
800045dc:	0137482a 	slt	t1,t1,s7
800045e0:	01a9c021 	addu	t8,t5,t1
800045e4:	02e84021 	addu	t0,s7,t0
800045e8:	000f2c00 	sll	a1,t7,0x10
800045ec:	0018cc00 	sll	t9,t8,0x10
800045f0:	0228502a 	slt	t2,s1,t0
800045f4:	0005fc03 	sra	ra,a1,0x10
800045f8:	00193403 	sra	a2,t9,0x10
800045fc:	11400002 	beqz	t2,80004608 <matrix_test+0x15a8>
80004600:	00000000 	nop
80004604:	00004025 	move	t0,zero
80004608:	15400002 	bnez	t2,80004614 <matrix_test+0x15b4>
8000460c:	00000000 	nop
80004610:	00c0f825 	move	ra,a2
80004614:	8ceb0004 	lw	t3,4(a3)
80004618:	33ecffff 	andi	t4,ra,0xffff
8000461c:	2584000a 	addiu	a0,t4,10
80004620:	24e70004 	addiu	a3,a3,4
80004624:	02eb182a 	slt	v1,s7,t3
80004628:	01837021 	addu	t6,t4,v1
8000462c:	0168c021 	addu	t8,t3,t0
80004630:	0004bc00 	sll	s7,a0,0x10
80004634:	000e7c00 	sll	t7,t6,0x10
80004638:	0238902a 	slt	s2,s1,t8
8000463c:	00176c03 	sra	t5,s7,0x10
80004640:	000f4c03 	sra	t1,t7,0x10
80004644:	12400002 	beqz	s2,80004650 <matrix_test+0x15f0>
80004648:	00000000 	nop
8000464c:	0000c025 	move	t8,zero
80004650:	12400002 	beqz	s2,8000465c <matrix_test+0x15fc>
80004654:	00000000 	nop
80004658:	01a04825 	move	t1,t5
8000465c:	8cea0004 	lw	t2,4(a3)
80004660:	3125ffff 	andi	a1,t1,0xffff
80004664:	24b9000a 	addiu	t9,a1,10
80004668:	016a302a 	slt	a2,t3,t2
8000466c:	00a6f821 	addu	ra,a1,a2
80004670:	01584021 	addu	t0,t2,t8
80004674:	00196400 	sll	t4,t9,0x10
80004678:	001f2400 	sll	a0,ra,0x10
8000467c:	0228582a 	slt	t3,s1,t0
80004680:	000c1c03 	sra	v1,t4,0x10
80004684:	00047403 	sra	t6,a0,0x10
80004688:	11600002 	beqz	t3,80004694 <matrix_test+0x1634>
8000468c:	00000000 	nop
80004690:	00004025 	move	t0,zero
80004694:	11600002 	beqz	t3,800046a0 <matrix_test+0x1640>
80004698:	00000000 	nop
8000469c:	00607025 	move	t6,v1
800046a0:	8ce90008 	lw	t1,8(a3)
800046a4:	31d2ffff 	andi	s2,t6,0xffff
800046a8:	2657000a 	addiu	s7,s2,10
800046ac:	0149682a 	slt	t5,t2,t1
800046b0:	024d7821 	addu	t7,s2,t5
800046b4:	01284021 	addu	t0,t1,t0
800046b8:	00175400 	sll	t2,s7,0x10
800046bc:	000fcc00 	sll	t9,t7,0x10
800046c0:	0228c02a 	slt	t8,s1,t0
800046c4:	000a2c03 	sra	a1,t2,0x10
800046c8:	00193403 	sra	a2,t9,0x10
800046cc:	13000002 	beqz	t8,800046d8 <matrix_test+0x1678>
800046d0:	00000000 	nop
800046d4:	00004025 	move	t0,zero
800046d8:	13000002 	beqz	t8,800046e4 <matrix_test+0x1684>
800046dc:	00000000 	nop
800046e0:	00a03025 	move	a2,a1
800046e4:	0006fc00 	sll	ra,a2,0x10
800046e8:	24e7000c 	addiu	a3,a3,12
800046ec:	001f2403 	sra	a0,ra,0x10
800046f0:	17c7ffb7 	bne	s8,a3,800045d0 <matrix_test+0x1570>
800046f4:	00000000 	nop
800046f8:	26d60001 	addiu	s6,s6,1
800046fc:	03c09025 	move	s2,s8
80004700:	16b6ff4f 	bne	s5,s6,80004440 <matrix_test+0x13e0>
80004704:	00000000 	nop
80004708:	00402825 	move	a1,v0
8000470c:	0c001cf0 	jal	800073c0 <crc16>
80004710:	00000000 	nop
80004714:	00008825 	move	s1,zero
80004718:	8fa40048 	lw	a0,72(sp)
8000471c:	00000000 	nop
80004720:	94940000 	lhu	s4,0(a0)
80004724:	2616fffe 	addiu	s6,s0,-2
80004728:	0204f021 	addu	s8,s0,a0
8000472c:	00165842 	srl	t3,s6,0x1
80004730:	02936023 	subu	t4,s4,s3
80004734:	24840002 	addiu	a0,a0,2
80004738:	31630007 	andi	v1,t3,0x7
8000473c:	a48cfffe 	sh	t4,-2(a0)
80004740:	13c4004e 	beq	s8,a0,8000487c <matrix_test+0x181c>
80004744:	00000000 	nop
80004748:	10600031 	beqz	v1,80004810 <matrix_test+0x17b0>
8000474c:	00000000 	nop
80004750:	240e0001 	li	t6,1
80004754:	106e0028 	beq	v1,t6,800047f8 <matrix_test+0x1798>
80004758:	00000000 	nop
8000475c:	24090002 	li	t1,2
80004760:	10690021 	beq	v1,t1,800047e8 <matrix_test+0x1788>
80004764:	00000000 	nop
80004768:	24120003 	li	s2,3
8000476c:	1072001a 	beq	v1,s2,800047d8 <matrix_test+0x1778>
80004770:	00000000 	nop
80004774:	24170004 	li	s7,4
80004778:	10770013 	beq	v1,s7,800047c8 <matrix_test+0x1768>
8000477c:	00000000 	nop
80004780:	240d0005 	li	t5,5
80004784:	106d000c 	beq	v1,t5,800047b8 <matrix_test+0x1758>
80004788:	00000000 	nop
8000478c:	240f0006 	li	t7,6
80004790:	106f0005 	beq	v1,t7,800047a8 <matrix_test+0x1748>
80004794:	00000000 	nop
80004798:	94980000 	lhu	t8,0(a0)
8000479c:	24840002 	addiu	a0,a0,2
800047a0:	03135023 	subu	t2,t8,s3
800047a4:	a48afffe 	sh	t2,-2(a0)
800047a8:	94850000 	lhu	a1,0(a0)
800047ac:	24840002 	addiu	a0,a0,2
800047b0:	00b3c823 	subu	t9,a1,s3
800047b4:	a499fffe 	sh	t9,-2(a0)
800047b8:	94880000 	lhu	t0,0(a0)
800047bc:	24840002 	addiu	a0,a0,2
800047c0:	01133023 	subu	a2,t0,s3
800047c4:	a486fffe 	sh	a2,-2(a0)
800047c8:	94870000 	lhu	a3,0(a0)
800047cc:	24840002 	addiu	a0,a0,2
800047d0:	00f3f823 	subu	ra,a3,s3
800047d4:	a49ffffe 	sh	ra,-2(a0)
800047d8:	94940000 	lhu	s4,0(a0)
800047dc:	24840002 	addiu	a0,a0,2
800047e0:	0293b023 	subu	s6,s4,s3
800047e4:	a496fffe 	sh	s6,-2(a0)
800047e8:	948b0000 	lhu	t3,0(a0)
800047ec:	24840002 	addiu	a0,a0,2
800047f0:	01736023 	subu	t4,t3,s3
800047f4:	a48cfffe 	sh	t4,-2(a0)
800047f8:	94830000 	lhu	v1,0(a0)
800047fc:	24840002 	addiu	a0,a0,2
80004800:	00737023 	subu	t6,v1,s3
80004804:	a48efffe 	sh	t6,-2(a0)
80004808:	13c4001c 	beq	s8,a0,8000487c <matrix_test+0x181c>
8000480c:	00000000 	nop
80004810:	94920000 	lhu	s2,0(a0)
80004814:	24840010 	addiu	a0,a0,16
80004818:	02536823 	subu	t5,s2,s3
8000481c:	9497fff2 	lhu	s7,-14(a0)
80004820:	9489fff4 	lhu	t1,-12(a0)
80004824:	948ffff6 	lhu	t7,-10(a0)
80004828:	9498fff8 	lhu	t8,-8(a0)
8000482c:	02f35023 	subu	t2,s7,s3
80004830:	9499fffa 	lhu	t9,-6(a0)
80004834:	0133f823 	subu	ra,t1,s3
80004838:	9485fffc 	lhu	a1,-4(a0)
8000483c:	01f34023 	subu	t0,t7,s3
80004840:	9494fffe 	lhu	s4,-2(a0)
80004844:	03133823 	subu	a3,t8,s3
80004848:	03333023 	subu	a2,t9,s3
8000484c:	a48dfff0 	sh	t5,-16(a0)
80004850:	00b3b023 	subu	s6,a1,s3
80004854:	a48afff2 	sh	t2,-14(a0)
80004858:	02935823 	subu	t3,s4,s3
8000485c:	a49ffff4 	sh	ra,-12(a0)
80004860:	a488fff6 	sh	t0,-10(a0)
80004864:	a487fff8 	sh	a3,-8(a0)
80004868:	a486fffa 	sh	a2,-6(a0)
8000486c:	a496fffc 	sh	s6,-4(a0)
80004870:	a48bfffe 	sh	t3,-2(a0)
80004874:	17c4ffe6 	bne	s8,a0,80004810 <matrix_test+0x17b0>
80004878:	00000000 	nop
8000487c:	26310001 	addiu	s1,s1,1
80004880:	16b1ffa7 	bne	s5,s1,80004720 <matrix_test+0x16c0>
80004884:	00000000 	nop
80004888:	8fbf003c 	lw	ra,60(sp)
8000488c:	00028400 	sll	s0,v0,0x10
80004890:	8fbe0038 	lw	s8,56(sp)
80004894:	00101403 	sra	v0,s0,0x10
80004898:	8fb70034 	lw	s7,52(sp)
8000489c:	8fb60030 	lw	s6,48(sp)
800048a0:	8fb5002c 	lw	s5,44(sp)
800048a4:	8fb40028 	lw	s4,40(sp)
800048a8:	8fb30024 	lw	s3,36(sp)
800048ac:	8fb20020 	lw	s2,32(sp)
800048b0:	8fb1001c 	lw	s1,28(sp)
800048b4:	8fb00018 	lw	s0,24(sp)
800048b8:	27bd0040 	addiu	sp,sp,64
800048bc:	03e00008 	jr	ra
800048c0:	00000000 	nop
	...
800048d0:	01c07825 	move	t7,t6
800048d4:	1000fda1 	b	80003f5c <matrix_test+0xefc>
800048d8:	00000000 	nop
800048dc:	00000000 	nop
800048e0:	01c06025 	move	t4,t6
800048e4:	1000fc3e 	b	800039e0 <matrix_test+0x980>
800048e8:	00000000 	nop
800048ec:	00000000 	nop
800048f0:	01e0f825 	move	ra,t7
800048f4:	1000faec 	b	800034a8 <matrix_test+0x448>
800048f8:	00000000 	nop
800048fc:	00002825 	move	a1,zero
80004900:	0c001cf0 	jal	800073c0 <crc16>
80004904:	00000000 	nop
80004908:	00002025 	move	a0,zero
8000490c:	00402825 	move	a1,v0
80004910:	0c001cf0 	jal	800073c0 <crc16>
80004914:	00000000 	nop
80004918:	00002025 	move	a0,zero
8000491c:	00402825 	move	a1,v0
80004920:	0c001cf0 	jal	800073c0 <crc16>
80004924:	00000000 	nop
80004928:	00002025 	move	a0,zero
8000492c:	00402825 	move	a1,v0
80004930:	0c001cf0 	jal	800073c0 <crc16>
80004934:	00000000 	nop
80004938:	1000ffd3 	b	80004888 <matrix_test+0x1828>
8000493c:	00000000 	nop

80004940 <core_init_matrix>:
core_init_matrix():
80004940:	27bdfff0 	addiu	sp,sp,-16
80004944:	afb3000c 	sw	s3,12(sp)
80004948:	afb20008 	sw	s2,8(sp)
8000494c:	afb10004 	sw	s1,4(sp)
80004950:	afb00000 	sw	s0,0(sp)
80004954:	14c00002 	bnez	a2,80004960 <core_init_matrix+0x20>
80004958:	00000000 	nop
8000495c:	24060001 	li	a2,1
80004960:	10800151 	beqz	a0,80004ea8 <core_init_matrix+0x568>
80004964:	00000000 	nop
80004968:	00001025 	move	v0,zero
8000496c:	24430001 	addiu	v1,v0,1
80004970:	00630018 	mult	v1,v1
80004974:	246c0003 	addiu	t4,v1,3
80004978:	24720004 	addiu	s2,v1,4
8000497c:	24730005 	addiu	s3,v1,5
80004980:	00004012 	mflo	t0
	...
8000498c:	018c0018 	mult	t4,t4
80004990:	24780006 	addiu	t8,v1,6
80004994:	246f0007 	addiu	t7,v1,7
80004998:	0000c812 	mflo	t9
	...
800049a4:	02520018 	mult	s2,s2
800049a8:	000888c0 	sll	s1,t0,0x3
800049ac:	0224402b 	sltu	t0,s1,a0
800049b0:	00004812 	mflo	t1
	...
800049bc:	02730018 	mult	s3,s3
800049c0:	001968c0 	sll	t5,t9,0x3
800049c4:	01a4c82b 	sltu	t9,t5,a0
800049c8:	00008012 	mflo	s0
	...
800049d4:	03180018 	mult	t8,t8
800049d8:	000970c0 	sll	t6,t1,0x3
800049dc:	00005012 	mflo	t2
	...
800049e8:	01ef0018 	mult	t7,t7
800049ec:	001080c0 	sll	s0,s0,0x3
800049f0:	00005812 	mflo	t3
800049f4:	000a50c0 	sll	t2,t2,0x3
800049f8:	000b58c0 	sll	t3,t3,0x3
800049fc:	11000028 	beqz	t0,80004aa0 <core_init_matrix+0x160>
80004a00:	00000000 	nop
80004a04:	24710001 	addiu	s1,v1,1
80004a08:	01c4482b 	sltu	t1,t6,a0
80004a0c:	02310018 	mult	s1,s1
80004a10:	0204702b 	sltu	t6,s0,a0
80004a14:	0144802b 	sltu	s0,t2,a0
80004a18:	0164502b 	sltu	t2,t3,a0
80004a1c:	00006812 	mflo	t5
80004a20:	00601025 	move	v0,v1
80004a24:	000d58c0 	sll	t3,t5,0x3
80004a28:	0164402b 	sltu	t0,t3,a0
80004a2c:	1100001c 	beqz	t0,80004aa0 <core_init_matrix+0x160>
80004a30:	00000000 	nop
80004a34:	02201025 	move	v0,s1
80004a38:	26310001 	addiu	s1,s1,1
80004a3c:	02310018 	mult	s1,s1
80004a40:	00006812 	mflo	t5
80004a44:	000d58c0 	sll	t3,t5,0x3
80004a48:	0164402b 	sltu	t0,t3,a0
80004a4c:	11000014 	beqz	t0,80004aa0 <core_init_matrix+0x160>
80004a50:	00000000 	nop
80004a54:	24620002 	addiu	v0,v1,2
80004a58:	13200011 	beqz	t9,80004aa0 <core_init_matrix+0x160>
80004a5c:	00000000 	nop
80004a60:	01801025 	move	v0,t4
80004a64:	1120000e 	beqz	t1,80004aa0 <core_init_matrix+0x160>
80004a68:	00000000 	nop
80004a6c:	02401025 	move	v0,s2
80004a70:	11c0000b 	beqz	t6,80004aa0 <core_init_matrix+0x160>
80004a74:	00000000 	nop
80004a78:	02601025 	move	v0,s3
80004a7c:	12000008 	beqz	s0,80004aa0 <core_init_matrix+0x160>
80004a80:	00000000 	nop
80004a84:	03001025 	move	v0,t8
80004a88:	11400005 	beqz	t2,80004aa0 <core_init_matrix+0x160>
80004a8c:	00000000 	nop
80004a90:	01e01025 	move	v0,t7
80004a94:	1000ffb5 	b	8000496c <core_init_matrix+0x2c>
80004a98:	00000000 	nop
80004a9c:	00000000 	nop
80004aa0:	00420018 	mult	v0,v0
80004aa4:	24a4ffff 	addiu	a0,a1,-1
80004aa8:	2405fffc 	li	a1,-4
80004aac:	00006012 	mflo	t4
80004ab0:	00851824 	and	v1,a0,a1
80004ab4:	246f0004 	addiu	t7,v1,4
80004ab8:	000c7040 	sll	t6,t4,0x1
80004abc:	01ee6821 	addu	t5,t7,t6
80004ac0:	104000e8 	beqz	v0,80004e64 <core_init_matrix+0x524>
80004ac4:	00000000 	nop
80004ac8:	0040c025 	move	t8,v0
80004acc:	3c128000 	lui	s2,0x8000
80004ad0:	00005825 	move	t3,zero
80004ad4:	240a0001 	li	t2,1
80004ad8:	3c0cffff 	lui	t4,0xffff
80004adc:	3645ffff 	ori	a1,s2,0xffff
80004ae0:	01460018 	mult	t2,a2
80004ae4:	000a9827 	nor	s3,zero,t2
80004ae8:	0262c821 	addu	t9,s3,v0
80004aec:	00003012 	mflo	a2
	...
80004af8:	01620018 	mult	t3,v0
80004afc:	032a4021 	addu	t0,t9,t2
80004b00:	31080003 	andi	t0,t0,0x3
80004b04:	00004812 	mflo	t1
80004b08:	00c52024 	and	a0,a2,a1
80004b0c:	00098040 	sll	s0,t1,0x1
80004b10:	01b08821 	addu	s1,t5,s0
80004b14:	01f04821 	addu	t1,t7,s0
80004b18:	048000b5 	bltz	a0,80004df0 <core_init_matrix+0x4b0>
80004b1c:	00000000 	nop
80004b20:	3152ffff 	andi	s2,t2,0xffff
80004b24:	02449821 	addu	s3,s2,a0
80004b28:	25430001 	addiu	v1,t2,1
80004b2c:	3279ffff 	andi	t9,s3,0xffff
80004b30:	02593021 	addu	a2,s2,t9
80004b34:	006a8023 	subu	s0,v1,t2
80004b38:	a6390000 	sh	t9,0(s1)
80004b3c:	30d200ff 	andi	s2,a2,0xff
80004b40:	0202982b 	sltu	s3,s0,v0
80004b44:	a5320000 	sh	s2,0(t1)
80004b48:	00803025 	move	a2,a0
80004b4c:	26300002 	addiu	s0,s1,2
80004b50:	25320002 	addiu	s2,t1,2
80004b54:	1260008e 	beqz	s3,80004d90 <core_init_matrix+0x450>
80004b58:	00000000 	nop
80004b5c:	1100006f 	beqz	t0,80004d1c <core_init_matrix+0x3dc>
80004b60:	00000000 	nop
80004b64:	24190001 	li	t9,1
80004b68:	11190022 	beq	t0,t9,80004bf4 <core_init_matrix+0x2b4>
80004b6c:	00000000 	nop
80004b70:	24130002 	li	s3,2
80004b74:	11130010 	beq	t0,s3,80004bb8 <core_init_matrix+0x278>
80004b78:	00000000 	nop
80004b7c:	00640018 	mult	v1,a0
80004b80:	00004012 	mflo	t0
80004b84:	01053024 	and	a2,t0,a1
80004b88:	04c000a9 	bltz	a2,80004e30 <core_init_matrix+0x4f0>
80004b8c:	00000000 	nop
80004b90:	3079ffff 	andi	t9,v1,0xffff
80004b94:	03269821 	addu	s3,t9,a2
80004b98:	24630001 	addiu	v1,v1,1
80004b9c:	3268ffff 	andi	t0,s3,0xffff
80004ba0:	03282021 	addu	a0,t9,t0
80004ba4:	a6280002 	sh	t0,2(s1)
80004ba8:	26100002 	addiu	s0,s0,2
80004bac:	309100ff 	andi	s1,a0,0xff
80004bb0:	26520002 	addiu	s2,s2,2
80004bb4:	a5310002 	sh	s1,2(t1)
80004bb8:	00660018 	mult	v1,a2
80004bbc:	00004812 	mflo	t1
80004bc0:	01253024 	and	a2,t1,a1
80004bc4:	04c000a2 	bltz	a2,80004e50 <core_init_matrix+0x510>
80004bc8:	00000000 	nop
80004bcc:	3073ffff 	andi	s3,v1,0xffff
80004bd0:	02664021 	addu	t0,s3,a2
80004bd4:	26520002 	addiu	s2,s2,2
80004bd8:	3111ffff 	andi	s1,t0,0xffff
80004bdc:	02712021 	addu	a0,s3,s1
80004be0:	a6110000 	sh	s1,0(s0)
80004be4:	24630001 	addiu	v1,v1,1
80004be8:	308900ff 	andi	t1,a0,0xff
80004bec:	26100002 	addiu	s0,s0,2
80004bf0:	a649fffe 	sh	t1,-2(s2)
80004bf4:	00660018 	mult	v1,a2
80004bf8:	00003012 	mflo	a2
80004bfc:	00c53024 	and	a2,a2,a1
80004c00:	04c00083 	bltz	a2,80004e10 <core_init_matrix+0x4d0>
80004c04:	00000000 	nop
80004c08:	3071ffff 	andi	s1,v1,0xffff
80004c0c:	02264021 	addu	t0,s1,a2
80004c10:	24630001 	addiu	v1,v1,1
80004c14:	3119ffff 	andi	t9,t0,0xffff
80004c18:	02392021 	addu	a0,s1,t9
80004c1c:	006a4823 	subu	t1,v1,t2
80004c20:	a6190000 	sh	t9,0(s0)
80004c24:	309300ff 	andi	s3,a0,0xff
80004c28:	0122882b 	sltu	s1,t1,v0
80004c2c:	a6530000 	sh	s3,0(s2)
80004c30:	26100002 	addiu	s0,s0,2
80004c34:	26520002 	addiu	s2,s2,2
80004c38:	16200038 	bnez	s1,80004d1c <core_init_matrix+0x3dc>
80004c3c:	00000000 	nop
80004c40:	10000053 	b	80004d90 <core_init_matrix+0x450>
80004c44:	00000000 	nop
	...
80004c50:	03310018 	mult	t9,s1
80004c54:	00913021 	addu	a2,a0,s1
80004c58:	30d3ffff 	andi	s3,a2,0xffff
80004c5c:	00001812 	mflo	v1
80004c60:	00932021 	addu	a0,a0,s3
80004c64:	a6130000 	sh	s3,0(s0)
80004c68:	309000ff 	andi	s0,a0,0xff
80004c6c:	a6500000 	sh	s0,0(s2)
80004c70:	00651824 	and	v1,v1,a1
80004c74:	04600040 	bltz	v1,80004d78 <core_init_matrix+0x438>
80004c78:	00000000 	nop
80004c7c:	27240001 	addiu	a0,t9,1
80004c80:	3330ffff 	andi	s0,t9,0xffff
80004c84:	00830018 	mult	a0,v1
80004c88:	3092ffff 	andi	s2,a0,0xffff
80004c8c:	02039821 	addu	s3,s0,v1
80004c90:	27260002 	addiu	a2,t9,2
80004c94:	00002012 	mflo	a0
80004c98:	3273ffff 	andi	s3,s3,0xffff
80004c9c:	27230003 	addiu	v1,t9,3
80004ca0:	0213c821 	addu	t9,s0,s3
80004ca4:	a5330000 	sh	s3,0(t1)
80004ca8:	006a9823 	subu	s3,v1,t2
80004cac:	333000ff 	andi	s0,t9,0xff
80004cb0:	30d1ffff 	andi	s1,a2,0xffff
80004cb4:	00852024 	and	a0,a0,a1
80004cb8:	a5100000 	sh	s0,0(t0)
80004cbc:	0262982b 	sltu	s3,s3,v0
80004cc0:	04800043 	bltz	a0,80004dd0 <core_init_matrix+0x490>
80004cc4:	00000000 	nop
80004cc8:	00c40018 	mult	a2,a0
80004ccc:	0244c821 	addu	t9,s2,a0
80004cd0:	25300006 	addiu	s0,t1,6
80004cd4:	3339ffff 	andi	t9,t9,0xffff
80004cd8:	00003012 	mflo	a2
80004cdc:	02592021 	addu	a0,s2,t9
80004ce0:	a5390002 	sh	t9,2(t1)
80004ce4:	25120006 	addiu	s2,t0,6
80004ce8:	309900ff 	andi	t9,a0,0xff
80004cec:	a5190002 	sh	t9,2(t0)
80004cf0:	00c53024 	and	a2,a2,a1
80004cf4:	04c0002e 	bltz	a2,80004db0 <core_init_matrix+0x470>
80004cf8:	00000000 	nop
80004cfc:	0226c821 	addu	t9,s1,a2
80004d00:	3324ffff 	andi	a0,t9,0xffff
80004d04:	02248821 	addu	s1,s1,a0
80004d08:	a5240004 	sh	a0,4(t1)
80004d0c:	322900ff 	andi	t1,s1,0xff
80004d10:	a5090004 	sh	t1,4(t0)
80004d14:	1260001e 	beqz	s3,80004d90 <core_init_matrix+0x450>
80004d18:	00000000 	nop
80004d1c:	00660018 	mult	v1,a2
80004d20:	3064ffff 	andi	a0,v1,0xffff
80004d24:	24790001 	addiu	t9,v1,1
80004d28:	26090002 	addiu	t1,s0,2
80004d2c:	00001812 	mflo	v1
80004d30:	26480002 	addiu	t0,s2,2
80004d34:	00658824 	and	s1,v1,a1
80004d38:	0621ffc5 	bgez	s1,80004c50 <core_init_matrix+0x310>
80004d3c:	00000000 	nop
80004d40:	2626ffff 	addiu	a2,s1,-1
80004d44:	00cc9825 	or	s3,a2,t4
80004d48:	26710001 	addiu	s1,s3,1
80004d4c:	03310018 	mult	t9,s1
80004d50:	00913021 	addu	a2,a0,s1
80004d54:	30d3ffff 	andi	s3,a2,0xffff
80004d58:	00001812 	mflo	v1
80004d5c:	00932021 	addu	a0,a0,s3
80004d60:	a6130000 	sh	s3,0(s0)
80004d64:	309000ff 	andi	s0,a0,0xff
80004d68:	a6500000 	sh	s0,0(s2)
80004d6c:	00651824 	and	v1,v1,a1
80004d70:	0461ffc2 	bgez	v1,80004c7c <core_init_matrix+0x33c>
80004d74:	00000000 	nop
80004d78:	2472ffff 	addiu	s2,v1,-1
80004d7c:	024c8825 	or	s1,s2,t4
80004d80:	26230001 	addiu	v1,s1,1
80004d84:	1000ffbd 	b	80004c7c <core_init_matrix+0x33c>
80004d88:	00000000 	nop
80004d8c:	00000000 	nop
80004d90:	256b0001 	addiu	t3,t3,1
80004d94:	0162502b 	sltu	t2,t3,v0
80004d98:	11400033 	beqz	t2,80004e68 <core_init_matrix+0x528>
80004d9c:	00000000 	nop
80004da0:	00605025 	move	t2,v1
80004da4:	1000ff4e 	b	80004ae0 <core_init_matrix+0x1a0>
80004da8:	00000000 	nop
80004dac:	00000000 	nop
80004db0:	24c6ffff 	addiu	a2,a2,-1
80004db4:	00cc2025 	or	a0,a2,t4
80004db8:	24860001 	addiu	a2,a0,1
80004dbc:	1000ffcf 	b	80004cfc <core_init_matrix+0x3bc>
80004dc0:	00000000 	nop
	...
80004dd0:	2484ffff 	addiu	a0,a0,-1
80004dd4:	008cc825 	or	t9,a0,t4
80004dd8:	27240001 	addiu	a0,t9,1
80004ddc:	1000ffba 	b	80004cc8 <core_init_matrix+0x388>
80004de0:	00000000 	nop
	...
80004df0:	2484ffff 	addiu	a0,a0,-1
80004df4:	008c1825 	or	v1,a0,t4
80004df8:	24640001 	addiu	a0,v1,1
80004dfc:	1000ff48 	b	80004b20 <core_init_matrix+0x1e0>
80004e00:	00000000 	nop
	...
80004e10:	24d9ffff 	addiu	t9,a2,-1
80004e14:	032c9825 	or	s3,t9,t4
80004e18:	26660001 	addiu	a2,s3,1
80004e1c:	1000ff7a 	b	80004c08 <core_init_matrix+0x2c8>
80004e20:	00000000 	nop
	...
80004e30:	24c4ffff 	addiu	a0,a2,-1
80004e34:	008c3025 	or	a2,a0,t4
80004e38:	24c60001 	addiu	a2,a2,1
80004e3c:	1000ff54 	b	80004b90 <core_init_matrix+0x250>
80004e40:	00000000 	nop
	...
80004e50:	24c6ffff 	addiu	a2,a2,-1
80004e54:	00ccc825 	or	t9,a2,t4
80004e58:	27260001 	addiu	a2,t9,1
80004e5c:	1000ff5b 	b	80004bcc <core_init_matrix+0x28c>
80004e60:	00000000 	nop
80004e64:	0000c025 	move	t8,zero
80004e68:	01ae7021 	addu	t6,t5,t6
80004e6c:	acef0004 	sw	t7,4(a3)
80004e70:	acf80000 	sw	t8,0(a3)
80004e74:	2418fffc 	li	t8,-4
80004e78:	25cfffff 	addiu	t7,t6,-1
80004e7c:	aced0008 	sw	t5,8(a3)
80004e80:	8fb3000c 	lw	s3,12(sp)
80004e84:	01f86824 	and	t5,t7,t8
80004e88:	8fb20008 	lw	s2,8(sp)
80004e8c:	25a80004 	addiu	t0,t5,4
80004e90:	8fb10004 	lw	s1,4(sp)
80004e94:	8fb00000 	lw	s0,0(sp)
80004e98:	27bd0010 	addiu	sp,sp,16
80004e9c:	ace8000c 	sw	t0,12(a3)
80004ea0:	03e00008 	jr	ra
80004ea4:	00000000 	nop
80004ea8:	240dfffc 	li	t5,-4
80004eac:	24a5ffff 	addiu	a1,a1,-1
80004eb0:	2418ffff 	li	t8,-1
80004eb4:	00ad1024 	and	v0,a1,t5
80004eb8:	244f0004 	addiu	t7,v0,4
80004ebc:	244d0006 	addiu	t5,v0,6
80004ec0:	240e0002 	li	t6,2
80004ec4:	2402ffff 	li	v0,-1
80004ec8:	1000ff00 	b	80004acc <core_init_matrix+0x18c>
80004ecc:	00000000 	nop

80004ed0 <matrix_sum>:
matrix_sum():
80004ed0:	00063400 	sll	a2,a2,0x10
80004ed4:	00063403 	sra	a2,a2,0x10
80004ed8:	108000b9 	beqz	a0,800051c0 <matrix_sum+0x2f0>
80004edc:	00000000 	nop
80004ee0:	00044880 	sll	t1,a0,0x2
80004ee4:	00004025 	move	t0,zero
80004ee8:	00001025 	move	v0,zero
80004eec:	00006025 	move	t4,zero
80004ef0:	00005825 	move	t3,zero
80004ef4:	01805025 	move	t2,t4
80004ef8:	8cac0000 	lw	t4,0(a1)
80004efc:	3042ffff 	andi	v0,v0,0xffff
80004f00:	2523fffc 	addiu	v1,t1,-4
80004f04:	014c682a 	slt	t5,t2,t4
80004f08:	018b3821 	addu	a3,t4,t3
80004f0c:	004dc021 	addu	t8,v0,t5
80004f10:	244b000a 	addiu	t3,v0,10
80004f14:	00037882 	srl	t7,v1,0x2
80004f18:	00181400 	sll	v0,t8,0x10
80004f1c:	000b1c00 	sll	v1,t3,0x10
80004f20:	00c7702a 	slt	t6,a2,a3
80004f24:	31ea0003 	andi	t2,t7,0x3
80004f28:	0125c821 	addu	t9,t1,a1
80004f2c:	00036c03 	sra	t5,v1,0x10
80004f30:	00027c03 	sra	t7,v0,0x10
80004f34:	11c00002 	beqz	t6,80004f40 <matrix_sum+0x70>
80004f38:	00000000 	nop
80004f3c:	00003825 	move	a3,zero
80004f40:	00e05825 	move	t3,a3
80004f44:	11c00002 	beqz	t6,80004f50 <matrix_sum+0x80>
80004f48:	00000000 	nop
80004f4c:	01a07825 	move	t7,t5
80004f50:	000fc400 	sll	t8,t7,0x10
80004f54:	24a50004 	addiu	a1,a1,4
80004f58:	00181403 	sra	v0,t8,0x10
80004f5c:	01806825 	move	t5,t4
80004f60:	13250092 	beq	t9,a1,800051ac <matrix_sum+0x2dc>
80004f64:	00000000 	nop
80004f68:	11400046 	beqz	t2,80005084 <matrix_sum+0x1b4>
80004f6c:	00000000 	nop
80004f70:	240e0001 	li	t6,1
80004f74:	114e002d 	beq	t2,t6,8000502c <matrix_sum+0x15c>
80004f78:	00000000 	nop
80004f7c:	24030002 	li	v1,2
80004f80:	11430015 	beq	t2,v1,80004fd8 <matrix_sum+0x108>
80004f84:	00000000 	nop
80004f88:	8cad0000 	lw	t5,0(a1)
80004f8c:	304affff 	andi	t2,v0,0xffff
80004f90:	254f000a 	addiu	t7,t2,10
80004f94:	018d602a 	slt	t4,t4,t5
80004f98:	014c1021 	addu	v0,t2,t4
80004f9c:	01a75821 	addu	t3,t5,a3
80004fa0:	000fc400 	sll	t8,t7,0x10
80004fa4:	00021c00 	sll	v1,v0,0x10
80004fa8:	00cb382a 	slt	a3,a2,t3
80004fac:	00187403 	sra	t6,t8,0x10
80004fb0:	00035403 	sra	t2,v1,0x10
80004fb4:	10e00002 	beqz	a3,80004fc0 <matrix_sum+0xf0>
80004fb8:	00000000 	nop
80004fbc:	00005825 	move	t3,zero
80004fc0:	10e00002 	beqz	a3,80004fcc <matrix_sum+0xfc>
80004fc4:	00000000 	nop
80004fc8:	01c05025 	move	t2,t6
80004fcc:	000a7c00 	sll	t7,t2,0x10
80004fd0:	24a50004 	addiu	a1,a1,4
80004fd4:	000f1403 	sra	v0,t7,0x10
80004fd8:	8ca70000 	lw	a3,0(a1)
80004fdc:	304cffff 	andi	t4,v0,0xffff
80004fe0:	2598000a 	addiu	t8,t4,10
80004fe4:	01a7682a 	slt	t5,t5,a3
80004fe8:	018d1021 	addu	v0,t4,t5
80004fec:	00eb5821 	addu	t3,a3,t3
80004ff0:	00181c00 	sll	v1,t8,0x10
80004ff4:	00027c00 	sll	t7,v0,0x10
80004ff8:	00cb702a 	slt	t6,a2,t3
80004ffc:	00035403 	sra	t2,v1,0x10
80005000:	000f6403 	sra	t4,t7,0x10
80005004:	11c00002 	beqz	t6,80005010 <matrix_sum+0x140>
80005008:	00000000 	nop
8000500c:	00005825 	move	t3,zero
80005010:	11c00002 	beqz	t6,8000501c <matrix_sum+0x14c>
80005014:	00000000 	nop
80005018:	01406025 	move	t4,t2
8000501c:	000cc400 	sll	t8,t4,0x10
80005020:	24a50004 	addiu	a1,a1,4
80005024:	00181403 	sra	v0,t8,0x10
80005028:	00e06825 	move	t5,a3
8000502c:	8cac0000 	lw	t4,0(a1)
80005030:	3042ffff 	andi	v0,v0,0xffff
80005034:	2447000a 	addiu	a3,v0,10
80005038:	01ac702a 	slt	t6,t5,t4
8000503c:	004e5021 	addu	t2,v0,t6
80005040:	018b5821 	addu	t3,t4,t3
80005044:	00077c00 	sll	t7,a3,0x10
80005048:	000a6c00 	sll	t5,t2,0x10
8000504c:	00cb182a 	slt	v1,a2,t3
80005050:	000fc403 	sra	t8,t7,0x10
80005054:	000d1403 	sra	v0,t5,0x10
80005058:	10600002 	beqz	v1,80005064 <matrix_sum+0x194>
8000505c:	00000000 	nop
80005060:	00005825 	move	t3,zero
80005064:	10600002 	beqz	v1,80005070 <matrix_sum+0x1a0>
80005068:	00000000 	nop
8000506c:	03001025 	move	v0,t8
80005070:	00023c00 	sll	a3,v0,0x10
80005074:	24a50004 	addiu	a1,a1,4
80005078:	00071403 	sra	v0,a3,0x10
8000507c:	1325004b 	beq	t9,a1,800051ac <matrix_sum+0x2dc>
80005080:	00000000 	nop
80005084:	8cae0000 	lw	t6,0(a1)
80005088:	304affff 	andi	t2,v0,0xffff
8000508c:	254f000a 	addiu	t7,t2,10
80005090:	018e602a 	slt	t4,t4,t6
80005094:	014c1821 	addu	v1,t2,t4
80005098:	01cb5821 	addu	t3,t6,t3
8000509c:	000f6c00 	sll	t5,t7,0x10
800050a0:	00031400 	sll	v0,v1,0x10
800050a4:	00cbc02a 	slt	t8,a2,t3
800050a8:	000d3c03 	sra	a3,t5,0x10
800050ac:	00025403 	sra	t2,v0,0x10
800050b0:	13000002 	beqz	t8,800050bc <matrix_sum+0x1ec>
800050b4:	00000000 	nop
800050b8:	00005825 	move	t3,zero
800050bc:	13000002 	beqz	t8,800050c8 <matrix_sum+0x1f8>
800050c0:	00000000 	nop
800050c4:	00e05025 	move	t2,a3
800050c8:	8caf0004 	lw	t7,4(a1)
800050cc:	314cffff 	andi	t4,t2,0xffff
800050d0:	2583000a 	addiu	v1,t4,10
800050d4:	24a50004 	addiu	a1,a1,4
800050d8:	01cf702a 	slt	t6,t6,t7
800050dc:	018ec021 	addu	t8,t4,t6
800050e0:	01eb5821 	addu	t3,t7,t3
800050e4:	00033c00 	sll	a3,v1,0x10
800050e8:	00181400 	sll	v0,t8,0x10
800050ec:	00cb682a 	slt	t5,a2,t3
800050f0:	00075403 	sra	t2,a3,0x10
800050f4:	00026403 	sra	t4,v0,0x10
800050f8:	11a00002 	beqz	t5,80005104 <matrix_sum+0x234>
800050fc:	00000000 	nop
80005100:	00005825 	move	t3,zero
80005104:	11a00002 	beqz	t5,80005110 <matrix_sum+0x240>
80005108:	00000000 	nop
8000510c:	01406025 	move	t4,t2
80005110:	8cae0004 	lw	t6,4(a1)
80005114:	3198ffff 	andi	t8,t4,0xffff
80005118:	2703000a 	addiu	v1,t8,10
8000511c:	01ee782a 	slt	t7,t7,t6
80005120:	030f6821 	addu	t5,t8,t7
80005124:	01cb5821 	addu	t3,t6,t3
80005128:	00035400 	sll	t2,v1,0x10
8000512c:	000d1400 	sll	v0,t5,0x10
80005130:	00cb382a 	slt	a3,a2,t3
80005134:	000a6403 	sra	t4,t2,0x10
80005138:	0002c403 	sra	t8,v0,0x10
8000513c:	10e00002 	beqz	a3,80005148 <matrix_sum+0x278>
80005140:	00000000 	nop
80005144:	00005825 	move	t3,zero
80005148:	10e00002 	beqz	a3,80005154 <matrix_sum+0x284>
8000514c:	00000000 	nop
80005150:	0180c025 	move	t8,t4
80005154:	8cac0008 	lw	t4,8(a1)
80005158:	330fffff 	andi	t7,t8,0xffff
8000515c:	25e3000a 	addiu	v1,t7,10
80005160:	01cc702a 	slt	t6,t6,t4
80005164:	01ee6821 	addu	t5,t7,t6
80005168:	018b5821 	addu	t3,t4,t3
8000516c:	00035400 	sll	t2,v1,0x10
80005170:	000d1400 	sll	v0,t5,0x10
80005174:	00cb382a 	slt	a3,a2,t3
80005178:	000ac403 	sra	t8,t2,0x10
8000517c:	00027c03 	sra	t7,v0,0x10
80005180:	10e00002 	beqz	a3,8000518c <matrix_sum+0x2bc>
80005184:	00000000 	nop
80005188:	00005825 	move	t3,zero
8000518c:	10e00002 	beqz	a3,80005198 <matrix_sum+0x2c8>
80005190:	00000000 	nop
80005194:	03007825 	move	t7,t8
80005198:	000f1c00 	sll	v1,t7,0x10
8000519c:	24a5000c 	addiu	a1,a1,12
800051a0:	00031403 	sra	v0,v1,0x10
800051a4:	1725ffb7 	bne	t9,a1,80005084 <matrix_sum+0x1b4>
800051a8:	00000000 	nop
800051ac:	25080001 	addiu	t0,t0,1
800051b0:	1488ff50 	bne	a0,t0,80004ef4 <matrix_sum+0x24>
800051b4:	00000000 	nop
800051b8:	03e00008 	jr	ra
800051bc:	00000000 	nop
800051c0:	00001025 	move	v0,zero
800051c4:	03e00008 	jr	ra
800051c8:	00000000 	nop
800051cc:	00000000 	nop

800051d0 <matrix_mul_const>:
matrix_mul_const():
800051d0:	1080008b 	beqz	a0,80005400 <matrix_mul_const+0x230>
800051d4:	00000000 	nop
800051d8:	00073c00 	sll	a3,a3,0x10
800051dc:	27bdfff8 	addiu	sp,sp,-8
800051e0:	00073c03 	sra	a3,a3,0x10
800051e4:	0004c040 	sll	t8,a0,0x1
800051e8:	afb00004 	sw	s0,4(sp)
800051ec:	00047880 	sll	t7,a0,0x2
800051f0:	00007025 	move	t6,zero
800051f4:	84c20000 	lh	v0,0(a2)
800051f8:	25e3fffc 	addiu	v1,t7,-4
800051fc:	01e56821 	addu	t5,t7,a1
80005200:	00034082 	srl	t0,v1,0x2
80005204:	00470018 	mult	v0,a3
80005208:	24a50004 	addiu	a1,a1,4
8000520c:	31090007 	andi	t1,t0,0x7
80005210:	24c20002 	addiu	v0,a2,2
80005214:	00005012 	mflo	t2
80005218:	acaafffc 	sw	t2,-4(a1)
8000521c:	11a50072 	beq	t5,a1,800053e8 <matrix_mul_const+0x218>
80005220:	00000000 	nop
80005224:	1120003f 	beqz	t1,80005324 <matrix_mul_const+0x154>
80005228:	00000000 	nop
8000522c:	240b0001 	li	t3,1
80005230:	112b0034 	beq	t1,t3,80005304 <matrix_mul_const+0x134>
80005234:	00000000 	nop
80005238:	240c0002 	li	t4,2
8000523c:	112c002b 	beq	t1,t4,800052ec <matrix_mul_const+0x11c>
80005240:	00000000 	nop
80005244:	24100003 	li	s0,3
80005248:	11300022 	beq	t1,s0,800052d4 <matrix_mul_const+0x104>
8000524c:	00000000 	nop
80005250:	24190004 	li	t9,4
80005254:	11390019 	beq	t1,t9,800052bc <matrix_mul_const+0xec>
80005258:	00000000 	nop
8000525c:	24030005 	li	v1,5
80005260:	11230010 	beq	t1,v1,800052a4 <matrix_mul_const+0xd4>
80005264:	00000000 	nop
80005268:	24080006 	li	t0,6
8000526c:	11280007 	beq	t1,t0,8000528c <matrix_mul_const+0xbc>
80005270:	00000000 	nop
80005274:	84490000 	lh	t1,0(v0)
80005278:	24a50004 	addiu	a1,a1,4
8000527c:	24c20004 	addiu	v0,a2,4
80005280:	01270018 	mult	t1,a3
80005284:	00005012 	mflo	t2
80005288:	acaafffc 	sw	t2,-4(a1)
8000528c:	844b0000 	lh	t3,0(v0)
80005290:	24a50004 	addiu	a1,a1,4
80005294:	24420002 	addiu	v0,v0,2
80005298:	01670018 	mult	t3,a3
8000529c:	00006012 	mflo	t4
800052a0:	acacfffc 	sw	t4,-4(a1)
800052a4:	84500000 	lh	s0,0(v0)
800052a8:	24a50004 	addiu	a1,a1,4
800052ac:	24420002 	addiu	v0,v0,2
800052b0:	02070018 	mult	s0,a3
800052b4:	0000c812 	mflo	t9
800052b8:	acb9fffc 	sw	t9,-4(a1)
800052bc:	84430000 	lh	v1,0(v0)
800052c0:	24a50004 	addiu	a1,a1,4
800052c4:	24420002 	addiu	v0,v0,2
800052c8:	00670018 	mult	v1,a3
800052cc:	00004012 	mflo	t0
800052d0:	aca8fffc 	sw	t0,-4(a1)
800052d4:	84490000 	lh	t1,0(v0)
800052d8:	24a50004 	addiu	a1,a1,4
800052dc:	24420002 	addiu	v0,v0,2
800052e0:	01270018 	mult	t1,a3
800052e4:	00005012 	mflo	t2
800052e8:	acaafffc 	sw	t2,-4(a1)
800052ec:	844b0000 	lh	t3,0(v0)
800052f0:	24a50004 	addiu	a1,a1,4
800052f4:	24420002 	addiu	v0,v0,2
800052f8:	01670018 	mult	t3,a3
800052fc:	00006012 	mflo	t4
80005300:	acacfffc 	sw	t4,-4(a1)
80005304:	84500000 	lh	s0,0(v0)
80005308:	24a50004 	addiu	a1,a1,4
8000530c:	24420002 	addiu	v0,v0,2
80005310:	02070018 	mult	s0,a3
80005314:	0000c812 	mflo	t9
80005318:	acb9fffc 	sw	t9,-4(a1)
8000531c:	11a50032 	beq	t5,a1,800053e8 <matrix_mul_const+0x218>
80005320:	00000000 	nop
80005324:	84430000 	lh	v1,0(v0)
80005328:	24420010 	addiu	v0,v0,16
8000532c:	8448fff2 	lh	t0,-14(v0)
80005330:	24a50020 	addiu	a1,a1,32
80005334:	00670018 	mult	v1,a3
80005338:	844cfff4 	lh	t4,-12(v0)
8000533c:	844bfff6 	lh	t3,-10(v0)
80005340:	00008012 	mflo	s0
80005344:	844afff8 	lh	t2,-8(v0)
80005348:	00000000 	nop
8000534c:	01070018 	mult	t0,a3
80005350:	8449fffa 	lh	t1,-6(v0)
80005354:	8448fffc 	lh	t0,-4(v0)
80005358:	8443fffe 	lh	v1,-2(v0)
8000535c:	0000c812 	mflo	t9
	...
80005368:	01870018 	mult	t4,a3
8000536c:	acb0ffe0 	sw	s0,-32(a1)
80005370:	00006012 	mflo	t4
	...
8000537c:	01670018 	mult	t3,a3
80005380:	acb9ffe4 	sw	t9,-28(a1)
80005384:	00005812 	mflo	t3
	...
80005390:	01470018 	mult	t2,a3
80005394:	acacffe8 	sw	t4,-24(a1)
80005398:	00005012 	mflo	t2
	...
800053a4:	01270018 	mult	t1,a3
800053a8:	acabffec 	sw	t3,-20(a1)
800053ac:	00004812 	mflo	t1
	...
800053b8:	01070018 	mult	t0,a3
800053bc:	acaafff0 	sw	t2,-16(a1)
800053c0:	00008012 	mflo	s0
	...
800053cc:	00670018 	mult	v1,a3
800053d0:	aca9fff4 	sw	t1,-12(a1)
800053d4:	0000c812 	mflo	t9
800053d8:	acb0fff8 	sw	s0,-8(a1)
800053dc:	acb9fffc 	sw	t9,-4(a1)
800053e0:	15a5ffd0 	bne	t5,a1,80005324 <matrix_mul_const+0x154>
800053e4:	00000000 	nop
800053e8:	25ce0001 	addiu	t6,t6,1
800053ec:	00d83021 	addu	a2,a2,t8
800053f0:	148eff80 	bne	a0,t6,800051f4 <matrix_mul_const+0x24>
800053f4:	00000000 	nop
800053f8:	8fb00004 	lw	s0,4(sp)
800053fc:	27bd0008 	addiu	sp,sp,8
80005400:	03e00008 	jr	ra
80005404:	00000000 	nop
	...

80005410 <matrix_add_const>:
matrix_add_const():
80005410:	00063400 	sll	a2,a2,0x10
80005414:	00061403 	sra	v0,a2,0x10
80005418:	1080005e 	beqz	a0,80005594 <matrix_add_const+0x184>
8000541c:	00000000 	nop
80005420:	00047840 	sll	t7,a0,0x1
80005424:	00007025 	move	t6,zero
80005428:	3042ffff 	andi	v0,v0,0xffff
8000542c:	94a70000 	lhu	a3,0(a1)
80005430:	25e3fffe 	addiu	v1,t7,-2
80005434:	01e56821 	addu	t5,t7,a1
80005438:	00034042 	srl	t0,v1,0x1
8000543c:	00474821 	addu	t1,v0,a3
80005440:	24a50002 	addiu	a1,a1,2
80005444:	310a0007 	andi	t2,t0,0x7
80005448:	a4a9fffe 	sh	t1,-2(a1)
8000544c:	11a5004e 	beq	t5,a1,80005588 <matrix_add_const+0x178>
80005450:	00000000 	nop
80005454:	11400031 	beqz	t2,8000551c <matrix_add_const+0x10c>
80005458:	00000000 	nop
8000545c:	240b0001 	li	t3,1
80005460:	114b0028 	beq	t2,t3,80005504 <matrix_add_const+0xf4>
80005464:	00000000 	nop
80005468:	240c0002 	li	t4,2
8000546c:	114c0021 	beq	t2,t4,800054f4 <matrix_add_const+0xe4>
80005470:	00000000 	nop
80005474:	24180003 	li	t8,3
80005478:	1158001a 	beq	t2,t8,800054e4 <matrix_add_const+0xd4>
8000547c:	00000000 	nop
80005480:	24190004 	li	t9,4
80005484:	11590013 	beq	t2,t9,800054d4 <matrix_add_const+0xc4>
80005488:	00000000 	nop
8000548c:	24060005 	li	a2,5
80005490:	1146000c 	beq	t2,a2,800054c4 <matrix_add_const+0xb4>
80005494:	00000000 	nop
80005498:	24070006 	li	a3,6
8000549c:	11470005 	beq	t2,a3,800054b4 <matrix_add_const+0xa4>
800054a0:	00000000 	nop
800054a4:	94a30000 	lhu	v1,0(a1)
800054a8:	24a50002 	addiu	a1,a1,2
800054ac:	00434021 	addu	t0,v0,v1
800054b0:	a4a8fffe 	sh	t0,-2(a1)
800054b4:	94a90000 	lhu	t1,0(a1)
800054b8:	24a50002 	addiu	a1,a1,2
800054bc:	00495021 	addu	t2,v0,t1
800054c0:	a4aafffe 	sh	t2,-2(a1)
800054c4:	94ab0000 	lhu	t3,0(a1)
800054c8:	24a50002 	addiu	a1,a1,2
800054cc:	004b6021 	addu	t4,v0,t3
800054d0:	a4acfffe 	sh	t4,-2(a1)
800054d4:	94b80000 	lhu	t8,0(a1)
800054d8:	24a50002 	addiu	a1,a1,2
800054dc:	0058c821 	addu	t9,v0,t8
800054e0:	a4b9fffe 	sh	t9,-2(a1)
800054e4:	94a60000 	lhu	a2,0(a1)
800054e8:	24a50002 	addiu	a1,a1,2
800054ec:	00463821 	addu	a3,v0,a2
800054f0:	a4a7fffe 	sh	a3,-2(a1)
800054f4:	94a30000 	lhu	v1,0(a1)
800054f8:	24a50002 	addiu	a1,a1,2
800054fc:	00434021 	addu	t0,v0,v1
80005500:	a4a8fffe 	sh	t0,-2(a1)
80005504:	94a90000 	lhu	t1,0(a1)
80005508:	24a50002 	addiu	a1,a1,2
8000550c:	00495021 	addu	t2,v0,t1
80005510:	a4aafffe 	sh	t2,-2(a1)
80005514:	11a5001c 	beq	t5,a1,80005588 <matrix_add_const+0x178>
80005518:	00000000 	nop
8000551c:	94ac0000 	lhu	t4,0(a1)
80005520:	24a50010 	addiu	a1,a1,16
80005524:	004c6021 	addu	t4,v0,t4
80005528:	94b8fff4 	lhu	t8,-12(a1)
8000552c:	94b9fff6 	lhu	t9,-10(a1)
80005530:	94a8fff8 	lhu	t0,-8(a1)
80005534:	94abfff2 	lhu	t3,-14(a1)
80005538:	00585021 	addu	t2,v0,t8
8000553c:	94a7fffa 	lhu	a3,-6(a1)
80005540:	00594821 	addu	t1,v0,t9
80005544:	94a6fffc 	lhu	a2,-4(a1)
80005548:	0048c021 	addu	t8,v0,t0
8000554c:	94a3fffe 	lhu	v1,-2(a1)
80005550:	004b5821 	addu	t3,v0,t3
80005554:	0047c821 	addu	t9,v0,a3
80005558:	a4acfff0 	sh	t4,-16(a1)
8000555c:	00466021 	addu	t4,v0,a2
80005560:	a4aafff4 	sh	t2,-12(a1)
80005564:	00434021 	addu	t0,v0,v1
80005568:	a4abfff2 	sh	t3,-14(a1)
8000556c:	a4a9fff6 	sh	t1,-10(a1)
80005570:	a4b8fff8 	sh	t8,-8(a1)
80005574:	a4b9fffa 	sh	t9,-6(a1)
80005578:	a4acfffc 	sh	t4,-4(a1)
8000557c:	a4a8fffe 	sh	t0,-2(a1)
80005580:	15a5ffe6 	bne	t5,a1,8000551c <matrix_add_const+0x10c>
80005584:	00000000 	nop
80005588:	25ce0001 	addiu	t6,t6,1
8000558c:	148effa7 	bne	a0,t6,8000542c <matrix_add_const+0x1c>
80005590:	00000000 	nop
80005594:	03e00008 	jr	ra
80005598:	00000000 	nop
8000559c:	00000000 	nop

800055a0 <matrix_mul_vect>:
matrix_mul_vect():
800055a0:	1080009a 	beqz	a0,8000580c <matrix_mul_vect+0x26c>
800055a4:	00000000 	nop
800055a8:	0004c040 	sll	t8,a0,0x1
800055ac:	00042080 	sll	a0,a0,0x2
800055b0:	27bdfff8 	addiu	sp,sp,-8
800055b4:	00a47821 	addu	t7,a1,a0
800055b8:	00f87021 	addu	t6,a3,t8
800055bc:	afb00004 	sw	s0,4(sp)
800055c0:	84c90000 	lh	t1,0(a2)
800055c4:	01c74023 	subu	t0,t6,a3
800055c8:	84ea0000 	lh	t2,0(a3)
800055cc:	24e20002 	addiu	v0,a3,2
800055d0:	250bfffe 	addiu	t3,t0,-2
800055d4:	24c30002 	addiu	v1,a2,2
800055d8:	012a0018 	mult	t1,t2
800055dc:	000b6042 	srl	t4,t3,0x1
800055e0:	318d0007 	andi	t5,t4,0x7
800055e4:	00002012 	mflo	a0
800055e8:	11c20081 	beq	t6,v0,800057f0 <matrix_mul_vect+0x250>
800055ec:	00000000 	nop
800055f0:	11a00046 	beqz	t5,8000570c <matrix_mul_vect+0x16c>
800055f4:	00000000 	nop
800055f8:	24100001 	li	s0,1
800055fc:	11b0003a 	beq	t5,s0,800056e8 <matrix_mul_vect+0x148>
80005600:	00000000 	nop
80005604:	24190002 	li	t9,2
80005608:	11b90030 	beq	t5,t9,800056cc <matrix_mul_vect+0x12c>
8000560c:	00000000 	nop
80005610:	24080003 	li	t0,3
80005614:	11a80026 	beq	t5,t0,800056b0 <matrix_mul_vect+0x110>
80005618:	00000000 	nop
8000561c:	24090004 	li	t1,4
80005620:	11a9001c 	beq	t5,t1,80005694 <matrix_mul_vect+0xf4>
80005624:	00000000 	nop
80005628:	240a0005 	li	t2,5
8000562c:	11aa0012 	beq	t5,t2,80005678 <matrix_mul_vect+0xd8>
80005630:	00000000 	nop
80005634:	240b0006 	li	t3,6
80005638:	11ab0008 	beq	t5,t3,8000565c <matrix_mul_vect+0xbc>
8000563c:	00000000 	nop
80005640:	846c0000 	lh	t4,0(v1)
80005644:	24e20004 	addiu	v0,a3,4
80005648:	84ed0002 	lh	t5,2(a3)
8000564c:	24c30004 	addiu	v1,a2,4
80005650:	018d0018 	mult	t4,t5
80005654:	00008012 	mflo	s0
80005658:	00902021 	addu	a0,a0,s0
8000565c:	84790000 	lh	t9,0(v1)
80005660:	24420002 	addiu	v0,v0,2
80005664:	8448fffe 	lh	t0,-2(v0)
80005668:	24630002 	addiu	v1,v1,2
8000566c:	03280018 	mult	t9,t0
80005670:	00004812 	mflo	t1
80005674:	00892021 	addu	a0,a0,t1
80005678:	846a0000 	lh	t2,0(v1)
8000567c:	24420002 	addiu	v0,v0,2
80005680:	844bfffe 	lh	t3,-2(v0)
80005684:	24630002 	addiu	v1,v1,2
80005688:	014b0018 	mult	t2,t3
8000568c:	00006012 	mflo	t4
80005690:	008c2021 	addu	a0,a0,t4
80005694:	846d0000 	lh	t5,0(v1)
80005698:	24420002 	addiu	v0,v0,2
8000569c:	8450fffe 	lh	s0,-2(v0)
800056a0:	24630002 	addiu	v1,v1,2
800056a4:	01b00018 	mult	t5,s0
800056a8:	0000c812 	mflo	t9
800056ac:	00992021 	addu	a0,a0,t9
800056b0:	84680000 	lh	t0,0(v1)
800056b4:	24420002 	addiu	v0,v0,2
800056b8:	8449fffe 	lh	t1,-2(v0)
800056bc:	24630002 	addiu	v1,v1,2
800056c0:	01090018 	mult	t0,t1
800056c4:	00005012 	mflo	t2
800056c8:	008a2021 	addu	a0,a0,t2
800056cc:	846b0000 	lh	t3,0(v1)
800056d0:	24420002 	addiu	v0,v0,2
800056d4:	844cfffe 	lh	t4,-2(v0)
800056d8:	24630002 	addiu	v1,v1,2
800056dc:	016c0018 	mult	t3,t4
800056e0:	00006812 	mflo	t5
800056e4:	008d2021 	addu	a0,a0,t5
800056e8:	24420002 	addiu	v0,v0,2
800056ec:	84700000 	lh	s0,0(v1)
800056f0:	8459fffe 	lh	t9,-2(v0)
800056f4:	24630002 	addiu	v1,v1,2
800056f8:	02190018 	mult	s0,t9
800056fc:	00004012 	mflo	t0
80005700:	00882021 	addu	a0,a0,t0
80005704:	11c2003a 	beq	t6,v0,800057f0 <matrix_mul_vect+0x250>
80005708:	00000000 	nop
8000570c:	24420010 	addiu	v0,v0,16
80005710:	846a0000 	lh	t2,0(v1)
80005714:	844bfff0 	lh	t3,-16(v0)
80005718:	24630010 	addiu	v1,v1,16
8000571c:	844cfff2 	lh	t4,-14(v0)
80005720:	014b0018 	mult	t2,t3
80005724:	8469fff2 	lh	t1,-14(v1)
80005728:	8470fff4 	lh	s0,-12(v1)
8000572c:	844bfff4 	lh	t3,-12(v0)
80005730:	8468fff6 	lh	t0,-10(v1)
80005734:	00006812 	mflo	t5
80005738:	844afff6 	lh	t2,-10(v0)
8000573c:	00000000 	nop
80005740:	012c0018 	mult	t1,t4
80005744:	8479fff8 	lh	t9,-8(v1)
80005748:	8449fff8 	lh	t1,-8(v0)
8000574c:	00006012 	mflo	t4
	...
80005758:	020b0018 	mult	s0,t3
8000575c:	8470fffa 	lh	s0,-6(v1)
80005760:	008d2021 	addu	a0,a0,t5
80005764:	00005812 	mflo	t3
	...
80005770:	010a0018 	mult	t0,t2
80005774:	8448fffa 	lh	t0,-6(v0)
80005778:	008c6821 	addu	t5,a0,t4
8000577c:	8444fffc 	lh	a0,-4(v0)
80005780:	00005012 	mflo	t2
	...
8000578c:	03290018 	mult	t9,t1
80005790:	8479fffc 	lh	t9,-4(v1)
80005794:	01ab6021 	addu	t4,t5,t3
80005798:	846dfffe 	lh	t5,-2(v1)
8000579c:	00004812 	mflo	t1
	...
800057a8:	02080018 	mult	s0,t0
800057ac:	8448fffe 	lh	t0,-2(v0)
800057b0:	018a5821 	addu	t3,t4,t2
800057b4:	00008012 	mflo	s0
	...
800057c0:	03240018 	mult	t9,a0
800057c4:	01695021 	addu	t2,t3,t1
800057c8:	0000c812 	mflo	t9
	...
800057d4:	01a80018 	mult	t5,t0
800057d8:	01504821 	addu	t1,t2,s0
800057dc:	00006012 	mflo	t4
800057e0:	01392021 	addu	a0,t1,t9
800057e4:	008c2021 	addu	a0,a0,t4
800057e8:	15c2ffc8 	bne	t6,v0,8000570c <matrix_mul_vect+0x16c>
800057ec:	00000000 	nop
800057f0:	aca40000 	sw	a0,0(a1)
800057f4:	24a50004 	addiu	a1,a1,4
800057f8:	00d83021 	addu	a2,a2,t8
800057fc:	14afff70 	bne	a1,t7,800055c0 <matrix_mul_vect+0x20>
80005800:	00000000 	nop
80005804:	8fb00004 	lw	s0,4(sp)
80005808:	27bd0008 	addiu	sp,sp,8
8000580c:	03e00008 	jr	ra
80005810:	00000000 	nop
	...

80005820 <matrix_mul_matrix>:
matrix_mul_matrix():
80005820:	108000bd 	beqz	a0,80005b18 <matrix_mul_matrix+0x2f8>
80005824:	00000000 	nop
80005828:	27bdffd8 	addiu	sp,sp,-40
8000582c:	00046040 	sll	t4,a0,0x1
80005830:	afb10008 	sw	s1,8(sp)
80005834:	00e08825 	move	s1,a3
80005838:	00ecc821 	addu	t9,a3,t4
8000583c:	afb2000c 	sw	s2,12(sp)
80005840:	00003825 	move	a3,zero
80005844:	afb00004 	sw	s0,4(sp)
80005848:	00049080 	sll	s2,a0,0x2
8000584c:	afbe0024 	sw	s8,36(sp)
80005850:	00808025 	move	s0,a0
80005854:	afb70020 	sw	s7,32(sp)
80005858:	afb6001c 	sw	s6,28(sp)
8000585c:	00c07025 	move	t6,a2
80005860:	afb50018 	sw	s5,24(sp)
80005864:	00a02025 	move	a0,a1
80005868:	afb40014 	sw	s4,20(sp)
8000586c:	afb30010 	sw	s3,16(sp)
80005870:	018e7821 	addu	t7,t4,t6
80005874:	02206825 	move	t5,s1
80005878:	0080c025 	move	t8,a0
8000587c:	85a30000 	lh	v1,0(t5)
80005880:	01ee2823 	subu	a1,t7,t6
80005884:	85c60000 	lh	a2,0(t6)
80005888:	25c20002 	addiu	v0,t6,2
8000588c:	24a9fffe 	addiu	t1,a1,-2
80005890:	01ac4021 	addu	t0,t5,t4
80005894:	00c30018 	mult	a2,v1
80005898:	00095042 	srl	t2,t1,0x1
8000589c:	314b0007 	andi	t3,t2,0x7
800058a0:	00001812 	mflo	v1
800058a4:	104f0086 	beq	v0,t7,80005ac0 <matrix_mul_matrix+0x2a0>
800058a8:	00000000 	nop
800058ac:	11600046 	beqz	t3,800059c8 <matrix_mul_matrix+0x1a8>
800058b0:	00000000 	nop
800058b4:	24130001 	li	s3,1
800058b8:	1173003a 	beq	t3,s3,800059a4 <matrix_mul_matrix+0x184>
800058bc:	00000000 	nop
800058c0:	24140002 	li	s4,2
800058c4:	11740030 	beq	t3,s4,80005988 <matrix_mul_matrix+0x168>
800058c8:	00000000 	nop
800058cc:	24150003 	li	s5,3
800058d0:	11750026 	beq	t3,s5,8000596c <matrix_mul_matrix+0x14c>
800058d4:	00000000 	nop
800058d8:	24160004 	li	s6,4
800058dc:	1176001c 	beq	t3,s6,80005950 <matrix_mul_matrix+0x130>
800058e0:	00000000 	nop
800058e4:	24170005 	li	s7,5
800058e8:	11770012 	beq	t3,s7,80005934 <matrix_mul_matrix+0x114>
800058ec:	00000000 	nop
800058f0:	241e0006 	li	s8,6
800058f4:	117e0008 	beq	t3,s8,80005918 <matrix_mul_matrix+0xf8>
800058f8:	00000000 	nop
800058fc:	84450000 	lh	a1,0(v0)
80005900:	25c20004 	addiu	v0,t6,4
80005904:	85060000 	lh	a2,0(t0)
80005908:	010c4021 	addu	t0,t0,t4
8000590c:	00a60018 	mult	a1,a2
80005910:	00004812 	mflo	t1
80005914:	00691821 	addu	v1,v1,t1
80005918:	844a0000 	lh	t2,0(v0)
8000591c:	24420002 	addiu	v0,v0,2
80005920:	850b0000 	lh	t3,0(t0)
80005924:	010c4021 	addu	t0,t0,t4
80005928:	014b0018 	mult	t2,t3
8000592c:	00009812 	mflo	s3
80005930:	00731821 	addu	v1,v1,s3
80005934:	84540000 	lh	s4,0(v0)
80005938:	24420002 	addiu	v0,v0,2
8000593c:	85150000 	lh	s5,0(t0)
80005940:	010c4021 	addu	t0,t0,t4
80005944:	02950018 	mult	s4,s5
80005948:	0000b012 	mflo	s6
8000594c:	00761821 	addu	v1,v1,s6
80005950:	84570000 	lh	s7,0(v0)
80005954:	24420002 	addiu	v0,v0,2
80005958:	851e0000 	lh	s8,0(t0)
8000595c:	010c4021 	addu	t0,t0,t4
80005960:	02fe0018 	mult	s7,s8
80005964:	00002812 	mflo	a1
80005968:	00651821 	addu	v1,v1,a1
8000596c:	84490000 	lh	t1,0(v0)
80005970:	24420002 	addiu	v0,v0,2
80005974:	85060000 	lh	a2,0(t0)
80005978:	010c4021 	addu	t0,t0,t4
8000597c:	01260018 	mult	t1,a2
80005980:	00005012 	mflo	t2
80005984:	006a1821 	addu	v1,v1,t2
80005988:	844b0000 	lh	t3,0(v0)
8000598c:	24420002 	addiu	v0,v0,2
80005990:	85130000 	lh	s3,0(t0)
80005994:	010c4021 	addu	t0,t0,t4
80005998:	01730018 	mult	t3,s3
8000599c:	0000a012 	mflo	s4
800059a0:	00741821 	addu	v1,v1,s4
800059a4:	84550000 	lh	s5,0(v0)
800059a8:	24420002 	addiu	v0,v0,2
800059ac:	85160000 	lh	s6,0(t0)
800059b0:	010c4021 	addu	t0,t0,t4
800059b4:	02b60018 	mult	s5,s6
800059b8:	0000b812 	mflo	s7
800059bc:	00771821 	addu	v1,v1,s7
800059c0:	104f003f 	beq	v0,t7,80005ac0 <matrix_mul_matrix+0x2a0>
800059c4:	00000000 	nop
800059c8:	844b0000 	lh	t3,0(v0)
800059cc:	010cf021 	addu	s8,t0,t4
800059d0:	85130000 	lh	s3,0(t0)
800059d4:	24420010 	addiu	v0,v0,16
800059d8:	03cc2821 	addu	a1,s8,t4
800059dc:	87c90000 	lh	t1,0(s8)
800059e0:	01730018 	mult	t3,s3
800059e4:	844afff2 	lh	t2,-14(v0)
800059e8:	84b70000 	lh	s7,0(a1)
800059ec:	00ac3021 	addu	a2,a1,t4
800059f0:	8455fff4 	lh	s5,-12(v0)
800059f4:	00ccf021 	addu	s8,a2,t4
800059f8:	8448fff6 	lh	t0,-10(v0)
800059fc:	0000b012 	mflo	s6
80005a00:	84d30000 	lh	s3,0(a2)
80005a04:	00000000 	nop
80005a08:	01490018 	mult	t2,t1
80005a0c:	8454fff8 	lh	s4,-8(v0)
80005a10:	03cc5021 	addu	t2,s8,t4
80005a14:	87c90000 	lh	t1,0(s8)
80005a18:	014c2821 	addu	a1,t2,t4
80005a1c:	00005812 	mflo	t3
80005a20:	85460000 	lh	a2,0(t2)
80005a24:	00000000 	nop
80005a28:	02b70018 	mult	s5,s7
80005a2c:	8457fffa 	lh	s7,-6(v0)
80005a30:	00761821 	addu	v1,v1,s6
80005a34:	8456fffc 	lh	s6,-4(v0)
80005a38:	8455fffe 	lh	s5,-2(v0)
80005a3c:	0000f012 	mflo	s8
	...
80005a48:	01130018 	mult	t0,s3
80005a4c:	00ac9821 	addu	s3,a1,t4
80005a50:	84a50000 	lh	a1,0(a1)
80005a54:	006b5821 	addu	t3,v1,t3
80005a58:	00004012 	mflo	t0
80005a5c:	86630000 	lh	v1,0(s3)
80005a60:	00000000 	nop
80005a64:	02890018 	mult	s4,t1
80005a68:	017e5021 	addu	t2,t3,s8
80005a6c:	0000a012 	mflo	s4
	...
80005a78:	02e60018 	mult	s7,a2
80005a7c:	01484821 	addu	t1,t2,t0
80005a80:	026c4021 	addu	t0,s3,t4
80005a84:	0000f012 	mflo	s8
	...
80005a90:	02c50018 	mult	s6,a1
80005a94:	01343021 	addu	a2,t1,s4
80005a98:	0000b812 	mflo	s7
	...
80005aa4:	02a30018 	mult	s5,v1
80005aa8:	00de5821 	addu	t3,a2,s8
80005aac:	0000a812 	mflo	s5
80005ab0:	0177b021 	addu	s6,t3,s7
80005ab4:	02d51821 	addu	v1,s6,s5
80005ab8:	144fffc3 	bne	v0,t7,800059c8 <matrix_mul_matrix+0x1a8>
80005abc:	00000000 	nop
80005ac0:	25ad0002 	addiu	t5,t5,2
80005ac4:	af030000 	sw	v1,0(t8)
80005ac8:	27180004 	addiu	t8,t8,4
80005acc:	15b9ff6b 	bne	t5,t9,8000587c <matrix_mul_matrix+0x5c>
80005ad0:	00000000 	nop
80005ad4:	24e70001 	addiu	a3,a3,1
80005ad8:	00922021 	addu	a0,a0,s2
80005adc:	00407025 	move	t6,v0
80005ae0:	1607ff63 	bne	s0,a3,80005870 <matrix_mul_matrix+0x50>
80005ae4:	00000000 	nop
80005ae8:	8fbe0024 	lw	s8,36(sp)
80005aec:	8fb70020 	lw	s7,32(sp)
80005af0:	8fb6001c 	lw	s6,28(sp)
80005af4:	8fb50018 	lw	s5,24(sp)
80005af8:	8fb40014 	lw	s4,20(sp)
80005afc:	8fb30010 	lw	s3,16(sp)
80005b00:	8fb2000c 	lw	s2,12(sp)
80005b04:	8fb10008 	lw	s1,8(sp)
80005b08:	8fb00004 	lw	s0,4(sp)
80005b0c:	27bd0028 	addiu	sp,sp,40
80005b10:	03e00008 	jr	ra
80005b14:	00000000 	nop
80005b18:	03e00008 	jr	ra
80005b1c:	00000000 	nop

80005b20 <matrix_mul_matrix_bitextract>:
matrix_mul_matrix_bitextract():
80005b20:	108000a6 	beqz	a0,80005dbc <matrix_mul_matrix_bitextract+0x29c>
80005b24:	00000000 	nop
80005b28:	27bdffe8 	addiu	sp,sp,-24
80005b2c:	00045840 	sll	t3,a0,0x1
80005b30:	afb10008 	sw	s1,8(sp)
80005b34:	00048880 	sll	s1,a0,0x2
80005b38:	afb00004 	sw	s0,4(sp)
80005b3c:	00ebc021 	addu	t8,a3,t3
80005b40:	00e08025 	move	s0,a3
80005b44:	afb40014 	sw	s4,20(sp)
80005b48:	00003825 	move	a3,zero
80005b4c:	afb30010 	sw	s3,16(sp)
80005b50:	afb2000c 	sw	s2,12(sp)
80005b54:	00c07025 	move	t6,a2
80005b58:	00a0c825 	move	t9,a1
80005b5c:	016e6021 	addu	t4,t3,t6
80005b60:	02006825 	move	t5,s0
80005b64:	03207825 	move	t7,t9
80005b68:	85c20000 	lh	v0,0(t6)
80005b6c:	018e4823 	subu	t1,t4,t6
80005b70:	85b30000 	lh	s3,0(t5)
80005b74:	25c60002 	addiu	a2,t6,2
80005b78:	2523fffe 	addiu	v1,t1,-2
80005b7c:	01ab5021 	addu	t2,t5,t3
80005b80:	00530018 	mult	v0,s3
80005b84:	00032842 	srl	a1,v1,0x1
80005b88:	30a80003 	andi	t0,a1,0x3
80005b8c:	00001012 	mflo	v0
80005b90:	00021883 	sra	v1,v0,0x2
80005b94:	00021143 	sra	v0,v0,0x5
80005b98:	3072000f 	andi	s2,v1,0xf
80005b9c:	3054007f 	andi	s4,v0,0x7f
80005ba0:	02540018 	mult	s2,s4
80005ba4:	00009812 	mflo	s3
80005ba8:	11860072 	beq	t4,a2,80005d74 <matrix_mul_matrix_bitextract+0x254>
80005bac:	00000000 	nop
80005bb0:	11000030 	beqz	t0,80005c74 <matrix_mul_matrix_bitextract+0x154>
80005bb4:	00000000 	nop
80005bb8:	24090001 	li	t1,1
80005bbc:	1109001e 	beq	t0,t1,80005c38 <matrix_mul_matrix_bitextract+0x118>
80005bc0:	00000000 	nop
80005bc4:	24050002 	li	a1,2
80005bc8:	1105000e 	beq	t0,a1,80005c04 <matrix_mul_matrix_bitextract+0xe4>
80005bcc:	00000000 	nop
80005bd0:	84c80000 	lh	t0,0(a2)
80005bd4:	25c60004 	addiu	a2,t6,4
80005bd8:	85430000 	lh	v1,0(t2)
80005bdc:	014b5021 	addu	t2,t2,t3
80005be0:	01030018 	mult	t0,v1
80005be4:	00001012 	mflo	v0
80005be8:	00022883 	sra	a1,v0,0x2
80005bec:	00021143 	sra	v0,v0,0x5
80005bf0:	30b2000f 	andi	s2,a1,0xf
80005bf4:	3054007f 	andi	s4,v0,0x7f
80005bf8:	02540018 	mult	s2,s4
80005bfc:	00004812 	mflo	t1
80005c00:	02699821 	addu	s3,s3,t1
80005c04:	85430000 	lh	v1,0(t2)
80005c08:	24c60002 	addiu	a2,a2,2
80005c0c:	84c8fffe 	lh	t0,-2(a2)
80005c10:	014b5021 	addu	t2,t2,t3
80005c14:	01030018 	mult	t0,v1
80005c18:	00002812 	mflo	a1
80005c1c:	00051883 	sra	v1,a1,0x2
80005c20:	00051143 	sra	v0,a1,0x5
80005c24:	3072000f 	andi	s2,v1,0xf
80005c28:	3054007f 	andi	s4,v0,0x7f
80005c2c:	02540018 	mult	s2,s4
80005c30:	00004812 	mflo	t1
80005c34:	02699821 	addu	s3,s3,t1
80005c38:	85450000 	lh	a1,0(t2)
80005c3c:	24c60002 	addiu	a2,a2,2
80005c40:	84c8fffe 	lh	t0,-2(a2)
80005c44:	014b5021 	addu	t2,t2,t3
80005c48:	01050018 	mult	t0,a1
80005c4c:	00001012 	mflo	v0
80005c50:	00021883 	sra	v1,v0,0x2
80005c54:	00022943 	sra	a1,v0,0x5
80005c58:	3072000f 	andi	s2,v1,0xf
80005c5c:	30b4007f 	andi	s4,a1,0x7f
80005c60:	02540018 	mult	s2,s4
80005c64:	00004812 	mflo	t1
80005c68:	02699821 	addu	s3,s3,t1
80005c6c:	11860041 	beq	t4,a2,80005d74 <matrix_mul_matrix_bitextract+0x254>
80005c70:	00000000 	nop
80005c74:	84d20000 	lh	s2,0(a2)
80005c78:	014b1021 	addu	v0,t2,t3
80005c7c:	85450000 	lh	a1,0(t2)
80005c80:	24c60008 	addiu	a2,a2,8
80005c84:	004b4021 	addu	t0,v0,t3
80005c88:	84430000 	lh	v1,0(v0)
80005c8c:	02450018 	mult	s2,a1
80005c90:	84cafffa 	lh	t2,-6(a2)
80005c94:	85020000 	lh	v0,0(t0)
80005c98:	010b4821 	addu	t1,t0,t3
80005c9c:	84d2fffc 	lh	s2,-4(a2)
80005ca0:	84d4fffe 	lh	s4,-2(a2)
80005ca4:	00002812 	mflo	a1
80005ca8:	85280000 	lh	t0,0(t1)
80005cac:	00000000 	nop
80005cb0:	01430018 	mult	t2,v1
80005cb4:	012b5021 	addu	t2,t1,t3
80005cb8:	00001812 	mflo	v1
	...
80005cc4:	02420018 	mult	s2,v0
80005cc8:	00054943 	sra	t1,a1,0x5
80005ccc:	00059083 	sra	s2,a1,0x2
80005cd0:	3129007f 	andi	t1,t1,0x7f
80005cd4:	00001012 	mflo	v0
	...
80005ce0:	02880018 	mult	s4,t0
80005ce4:	3245000f 	andi	a1,s2,0xf
80005ce8:	0003a083 	sra	s4,v1,0x2
80005cec:	00039143 	sra	s2,v1,0x5
80005cf0:	00004012 	mflo	t0
	...
80005cfc:	00a90018 	mult	a1,t1
80005d00:	3283000f 	andi	v1,s4,0xf
80005d04:	3252007f 	andi	s2,s2,0x7f
80005d08:	00024943 	sra	t1,v0,0x5
80005d0c:	00002812 	mflo	a1
	...
80005d18:	00720018 	mult	v1,s2
80005d1c:	0002a083 	sra	s4,v0,0x2
80005d20:	3132007f 	andi	s2,t1,0x7f
80005d24:	3282000f 	andi	v0,s4,0xf
80005d28:	00001812 	mflo	v1
	...
80005d34:	00520018 	mult	v0,s2
80005d38:	0008a083 	sra	s4,t0,0x2
80005d3c:	00084143 	sra	t0,t0,0x5
80005d40:	02652821 	addu	a1,s3,a1
80005d44:	3102007f 	andi	v0,t0,0x7f
80005d48:	3293000f 	andi	s3,s4,0xf
80005d4c:	00004812 	mflo	t1
	...
80005d58:	02620018 	mult	s3,v0
80005d5c:	00a31821 	addu	v1,a1,v1
80005d60:	00009012 	mflo	s2
80005d64:	0069a021 	addu	s4,v1,t1
80005d68:	02929821 	addu	s3,s4,s2
80005d6c:	1586ffc1 	bne	t4,a2,80005c74 <matrix_mul_matrix_bitextract+0x154>
80005d70:	00000000 	nop
80005d74:	25ad0002 	addiu	t5,t5,2
80005d78:	adf30000 	sw	s3,0(t7)
80005d7c:	25ef0004 	addiu	t7,t7,4
80005d80:	15b8ff79 	bne	t5,t8,80005b68 <matrix_mul_matrix_bitextract+0x48>
80005d84:	00000000 	nop
80005d88:	24e70001 	addiu	a3,a3,1
80005d8c:	0331c821 	addu	t9,t9,s1
80005d90:	01807025 	move	t6,t4
80005d94:	1487ff71 	bne	a0,a3,80005b5c <matrix_mul_matrix_bitextract+0x3c>
80005d98:	00000000 	nop
80005d9c:	8fb40014 	lw	s4,20(sp)
80005da0:	8fb30010 	lw	s3,16(sp)
80005da4:	8fb2000c 	lw	s2,12(sp)
80005da8:	8fb10008 	lw	s1,8(sp)
80005dac:	8fb00004 	lw	s0,4(sp)
80005db0:	27bd0018 	addiu	sp,sp,24
80005db4:	03e00008 	jr	ra
80005db8:	00000000 	nop
80005dbc:	03e00008 	jr	ra
80005dc0:	00000000 	nop
	...

80005dd0 <parseval>:
parseval():
80005dd0:	80830000 	lb	v1,0(a0)
80005dd4:	2402002d 	li	v0,45
80005dd8:	10620079 	beq	v1,v0,80005fc0 <parseval+0x1f0>
80005ddc:	00000000 	nop
80005de0:	240b0001 	li	t3,1
80005de4:	24050030 	li	a1,48
80005de8:	10650055 	beq	v1,a1,80005f40 <parseval+0x170>
80005dec:	00000000 	nop
80005df0:	2465ffd0 	addiu	a1,v1,-48
80005df4:	00007825 	move	t7,zero
80005df8:	30a600ff 	andi	a2,a1,0xff
80005dfc:	2cc7000a 	sltiu	a3,a2,10
80005e00:	10e0003c 	beqz	a3,80005ef4 <parseval+0x124>
80005e04:	00000000 	nop
80005e08:	80830001 	lb	v1,1(a0)
80005e0c:	00007825 	move	t7,zero
80005e10:	246dffd0 	addiu	t5,v1,-48
80005e14:	000f4840 	sll	t1,t7,0x1
80005e18:	000f60c0 	sll	t4,t7,0x3
80005e1c:	31af00ff 	andi	t7,t5,0xff
80005e20:	012c7021 	addu	t6,t1,t4
80005e24:	2df9000a 	sltiu	t9,t7,10
80005e28:	2478ffd0 	addiu	t8,v1,-48
80005e2c:	00ae7821 	addu	t7,a1,t6
80005e30:	13200030 	beqz	t9,80005ef4 <parseval+0x124>
80005e34:	00000000 	nop
80005e38:	80830002 	lb	v1,2(a0)
80005e3c:	000f2840 	sll	a1,t7,0x1
80005e40:	000f30c0 	sll	a2,t7,0x3
80005e44:	24820002 	addiu	v0,a0,2
80005e48:	246affd0 	addiu	t2,v1,-48
80005e4c:	00a63821 	addu	a3,a1,a2
80005e50:	314c00ff 	andi	t4,t2,0xff
80005e54:	2d8d000a 	sltiu	t5,t4,10
80005e58:	24890003 	addiu	t1,a0,3
80005e5c:	03077821 	addu	t7,t8,a3
80005e60:	11a00024 	beqz	t5,80005ef4 <parseval+0x124>
80005e64:	00000000 	nop
80005e68:	80430001 	lb	v1,1(v0)
80005e6c:	000f7040 	sll	t6,t7,0x1
80005e70:	000f78c0 	sll	t7,t7,0x3
80005e74:	24840004 	addiu	a0,a0,4
80005e78:	2478ffd0 	addiu	t8,v1,-48
80005e7c:	01cfc821 	addu	t9,t6,t7
80005e80:	330500ff 	andi	a1,t8,0xff
80005e84:	2ca7000a 	sltiu	a3,a1,10
80005e88:	2462ffd0 	addiu	v0,v1,-48
80005e8c:	01597821 	addu	t7,t2,t9
80005e90:	10e00018 	beqz	a3,80005ef4 <parseval+0x124>
80005e94:	00000000 	nop
80005e98:	81290001 	lb	t1,1(t1)
80005e9c:	000f5040 	sll	t2,t7,0x1
80005ea0:	000f30c0 	sll	a2,t7,0x3
80005ea4:	2528ffd0 	addiu	t0,t1,-48
80005ea8:	01466021 	addu	t4,t2,a2
80005eac:	310d00ff 	andi	t5,t0,0xff
80005eb0:	2dae000a 	sltiu	t6,t5,10
80005eb4:	01201825 	move	v1,t1
80005eb8:	004c7821 	addu	t7,v0,t4
80005ebc:	11c0000d 	beqz	t6,80005ef4 <parseval+0x124>
80005ec0:	00000000 	nop
80005ec4:	80830001 	lb	v1,1(a0)
80005ec8:	2525ffd0 	addiu	a1,t1,-48
80005ecc:	000f60c0 	sll	t4,t7,0x3
80005ed0:	000f4840 	sll	t1,t7,0x1
80005ed4:	246dffd0 	addiu	t5,v1,-48
80005ed8:	012c7021 	addu	t6,t1,t4
80005edc:	31af00ff 	andi	t7,t5,0xff
80005ee0:	2df9000a 	sltiu	t9,t7,10
80005ee4:	2478ffd0 	addiu	t8,v1,-48
80005ee8:	00ae7821 	addu	t7,a1,t6
80005eec:	1720ffd2 	bnez	t9,80005e38 <parseval+0x68>
80005ef0:	00000000 	nop
80005ef4:	240c004b 	li	t4,75
80005ef8:	106c0009 	beq	v1,t4,80005f20 <parseval+0x150>
80005efc:	00000000 	nop
80005f00:	240d004d 	li	t5,77
80005f04:	146d0002 	bne	v1,t5,80005f10 <parseval+0x140>
80005f08:	00000000 	nop
80005f0c:	000f7d00 	sll	t7,t7,0x14
80005f10:	01eb0018 	mult	t7,t3
80005f14:	00001012 	mflo	v0
80005f18:	03e00008 	jr	ra
80005f1c:	00000000 	nop
80005f20:	000f7a80 	sll	t7,t7,0xa
80005f24:	01eb0018 	mult	t7,t3
80005f28:	00001012 	mflo	v0
80005f2c:	03e00008 	jr	ra
80005f30:	00000000 	nop
	...
80005f40:	80830001 	lb	v1,1(a0)
80005f44:	24080078 	li	t0,120
80005f48:	10680004 	beq	v1,t0,80005f5c <parseval+0x18c>
80005f4c:	00000000 	nop
80005f50:	00002825 	move	a1,zero
80005f54:	1000ffad 	b	80005e0c <parseval+0x3c>
80005f58:	00000000 	nop
80005f5c:	24840002 	addiu	a0,a0,2
80005f60:	00007825 	move	t7,zero
80005f64:	80830000 	lb	v1,0(a0)
80005f68:	000fc100 	sll	t8,t7,0x4
80005f6c:	24840001 	addiu	a0,a0,1
80005f70:	307900ff 	andi	t9,v1,0xff
80005f74:	2722ffd0 	addiu	v0,t9,-48
80005f78:	2469ffd0 	addiu	t1,v1,-48
80005f7c:	2c47000a 	sltiu	a3,v0,10
80005f80:	2726ff9f 	addiu	a2,t9,-97
80005f84:	292a000a 	slti	t2,t1,10
80005f88:	14e00004 	bnez	a3,80005f9c <parseval+0x1cc>
80005f8c:	00000000 	nop
80005f90:	2cc80006 	sltiu	t0,a2,6
80005f94:	1100ffd7 	beqz	t0,80005ef4 <parseval+0x124>
80005f98:	00000000 	nop
80005f9c:	15400002 	bnez	t2,80005fa8 <parseval+0x1d8>
80005fa0:	00000000 	nop
80005fa4:	2469ffa9 	addiu	t1,v1,-87
80005fa8:	01387821 	addu	t7,t1,t8
80005fac:	1000ffed 	b	80005f64 <parseval+0x194>
80005fb0:	00000000 	nop
	...
80005fc0:	80830001 	lb	v1,1(a0)
80005fc4:	240bffff 	li	t3,-1
80005fc8:	24840001 	addiu	a0,a0,1
80005fcc:	1000ff85 	b	80005de4 <parseval+0x14>
80005fd0:	00000000 	nop
	...

80005fe0 <get_seed_args>:
get_seed_args():
80005fe0:	0085282a 	slt	a1,a0,a1
80005fe4:	14a00006 	bnez	a1,80006000 <get_seed_args+0x20>
80005fe8:	00000000 	nop
80005fec:	00001025 	move	v0,zero
80005ff0:	03e00008 	jr	ra
80005ff4:	00000000 	nop
	...
80006000:	00042080 	sll	a0,a0,0x2
80006004:	2402002d 	li	v0,45
80006008:	00c41821 	addu	v1,a2,a0
8000600c:	8c670000 	lw	a3,0(v1)
80006010:	00000000 	nop
80006014:	80e30000 	lb	v1,0(a3)
80006018:	00000000 	nop
8000601c:	10620078 	beq	v1,v0,80006200 <get_seed_args+0x220>
80006020:	00000000 	nop
80006024:	240a0001 	li	t2,1
80006028:	24060030 	li	a2,48
8000602c:	10660054 	beq	v1,a2,80006180 <get_seed_args+0x1a0>
80006030:	00000000 	nop
80006034:	2464ffd0 	addiu	a0,v1,-48
80006038:	308800ff 	andi	t0,a0,0xff
8000603c:	2d18000a 	sltiu	t8,t0,10
80006040:	1300003c 	beqz	t8,80006134 <get_seed_args+0x154>
80006044:	00000000 	nop
80006048:	80e30001 	lb	v1,1(a3)
8000604c:	0000c025 	move	t8,zero
80006050:	246effd0 	addiu	t6,v1,-48
80006054:	00186040 	sll	t4,t8,0x1
80006058:	001868c0 	sll	t5,t8,0x3
8000605c:	31d800ff 	andi	t8,t6,0xff
80006060:	018d7821 	addu	t7,t4,t5
80006064:	2f05000a 	sltiu	a1,t8,10
80006068:	2479ffd0 	addiu	t9,v1,-48
8000606c:	008fc021 	addu	t8,a0,t7
80006070:	10a00030 	beqz	a1,80006134 <get_seed_args+0x154>
80006074:	00000000 	nop
80006078:	80e30002 	lb	v1,2(a3)
8000607c:	00182040 	sll	a0,t8,0x1
80006080:	001810c0 	sll	v0,t8,0x3
80006084:	24e80002 	addiu	t0,a3,2
80006088:	246cffd0 	addiu	t4,v1,-48
8000608c:	00825821 	addu	t3,a0,v0
80006090:	318d00ff 	andi	t5,t4,0xff
80006094:	2dae000a 	sltiu	t6,t5,10
80006098:	24e90003 	addiu	t1,a3,3
8000609c:	032bc021 	addu	t8,t9,t3
800060a0:	11c00024 	beqz	t6,80006134 <get_seed_args+0x154>
800060a4:	00000000 	nop
800060a8:	81030001 	lb	v1,1(t0)
800060ac:	00187840 	sll	t7,t8,0x1
800060b0:	0018c0c0 	sll	t8,t8,0x3
800060b4:	24e70004 	addiu	a3,a3,4
800060b8:	2479ffd0 	addiu	t9,v1,-48
800060bc:	01f82821 	addu	a1,t7,t8
800060c0:	332400ff 	andi	a0,t9,0xff
800060c4:	2c8b000a 	sltiu	t3,a0,10
800060c8:	2468ffd0 	addiu	t0,v1,-48
800060cc:	0185c021 	addu	t8,t4,a1
800060d0:	11600018 	beqz	t3,80006134 <get_seed_args+0x154>
800060d4:	00000000 	nop
800060d8:	81290001 	lb	t1,1(t1)
800060dc:	00186040 	sll	t4,t8,0x1
800060e0:	001810c0 	sll	v0,t8,0x3
800060e4:	2526ffd0 	addiu	a2,t1,-48
800060e8:	01826821 	addu	t5,t4,v0
800060ec:	30ce00ff 	andi	t6,a2,0xff
800060f0:	2dcf000a 	sltiu	t7,t6,10
800060f4:	01201825 	move	v1,t1
800060f8:	010dc021 	addu	t8,t0,t5
800060fc:	11e0000d 	beqz	t7,80006134 <get_seed_args+0x154>
80006100:	00000000 	nop
80006104:	80e30001 	lb	v1,1(a3)
80006108:	00186040 	sll	t4,t8,0x1
8000610c:	001868c0 	sll	t5,t8,0x3
80006110:	2524ffd0 	addiu	a0,t1,-48
80006114:	246effd0 	addiu	t6,v1,-48
80006118:	018d7821 	addu	t7,t4,t5
8000611c:	31d800ff 	andi	t8,t6,0xff
80006120:	2f05000a 	sltiu	a1,t8,10
80006124:	2479ffd0 	addiu	t9,v1,-48
80006128:	008fc021 	addu	t8,a0,t7
8000612c:	14a0ffd2 	bnez	a1,80006078 <get_seed_args+0x98>
80006130:	00000000 	nop
80006134:	240d004b 	li	t5,75
80006138:	106d0009 	beq	v1,t5,80006160 <get_seed_args+0x180>
8000613c:	00000000 	nop
80006140:	240e004d 	li	t6,77
80006144:	146e0002 	bne	v1,t6,80006150 <get_seed_args+0x170>
80006148:	00000000 	nop
8000614c:	0018c500 	sll	t8,t8,0x14
80006150:	030a0018 	mult	t8,t2
80006154:	00001012 	mflo	v0
80006158:	03e00008 	jr	ra
8000615c:	00000000 	nop
80006160:	0018c280 	sll	t8,t8,0xa
80006164:	030a0018 	mult	t8,t2
80006168:	00001012 	mflo	v0
8000616c:	03e00008 	jr	ra
80006170:	00000000 	nop
	...
80006180:	80e30001 	lb	v1,1(a3)
80006184:	24090078 	li	t1,120
80006188:	10690004 	beq	v1,t1,8000619c <get_seed_args+0x1bc>
8000618c:	00000000 	nop
80006190:	00002025 	move	a0,zero
80006194:	1000ffad 	b	8000604c <get_seed_args+0x6c>
80006198:	00000000 	nop
8000619c:	24e70002 	addiu	a3,a3,2
800061a0:	0000c025 	move	t8,zero
800061a4:	80e30000 	lb	v1,0(a3)
800061a8:	0018c900 	sll	t9,t8,0x4
800061ac:	24e70001 	addiu	a3,a3,1
800061b0:	306800ff 	andi	t0,v1,0xff
800061b4:	2505ffd0 	addiu	a1,t0,-48
800061b8:	246bffd0 	addiu	t3,v1,-48
800061bc:	2ca2000a 	sltiu	v0,a1,10
800061c0:	250cff9f 	addiu	t4,t0,-97
800061c4:	2969000a 	slti	t1,t3,10
800061c8:	14400004 	bnez	v0,800061dc <get_seed_args+0x1fc>
800061cc:	00000000 	nop
800061d0:	2d860006 	sltiu	a2,t4,6
800061d4:	10c0ffd7 	beqz	a2,80006134 <get_seed_args+0x154>
800061d8:	00000000 	nop
800061dc:	15200002 	bnez	t1,800061e8 <get_seed_args+0x208>
800061e0:	00000000 	nop
800061e4:	246bffa9 	addiu	t3,v1,-87
800061e8:	032bc021 	addu	t8,t9,t3
800061ec:	1000ffed 	b	800061a4 <get_seed_args+0x1c4>
800061f0:	00000000 	nop
	...
80006200:	80e30001 	lb	v1,1(a3)
80006204:	240affff 	li	t2,-1
80006208:	24e70001 	addiu	a3,a3,1
8000620c:	1000ff86 	b	80006028 <get_seed_args+0x48>
80006210:	00000000 	nop
	...

80006220 <crcu8>:
crcu8():
80006220:	30a5ffff 	andi	a1,a1,0xffff
80006224:	308300ff 	andi	v1,a0,0xff
80006228:	38a24002 	xori	v0,a1,0x4002
8000622c:	00652026 	xor	a0,v1,a1
80006230:	00023042 	srl	a2,v0,0x1
80006234:	30870001 	andi	a3,a0,0x1
80006238:	00034042 	srl	t0,v1,0x1
8000623c:	34c98000 	ori	t1,a2,0x8000
80006240:	00055042 	srl	t2,a1,0x1
80006244:	14e0004a 	bnez	a3,80006370 <crcu8+0x150>
80006248:	00000000 	nop
8000624c:	314bffff 	andi	t3,t2,0xffff
80006250:	396c4002 	xori	t4,t3,0x4002
80006254:	01686826 	xor	t5,t3,t0
80006258:	000c7042 	srl	t6,t4,0x1
8000625c:	31af0001 	andi	t7,t5,0x1
80006260:	0008c042 	srl	t8,t0,0x1
80006264:	35d98000 	ori	t9,t6,0x8000
80006268:	000b2842 	srl	a1,t3,0x1
8000626c:	15e0004b 	bnez	t7,8000639c <crcu8+0x17c>
80006270:	00000000 	nop
80006274:	30a3ffff 	andi	v1,a1,0xffff
80006278:	38624002 	xori	v0,v1,0x4002
8000627c:	00783026 	xor	a2,v1,t8
80006280:	00022042 	srl	a0,v0,0x1
80006284:	30c70001 	andi	a3,a2,0x1
80006288:	00184042 	srl	t0,t8,0x1
8000628c:	34898000 	ori	t1,a0,0x8000
80006290:	00035042 	srl	t2,v1,0x1
80006294:	14e0004c 	bnez	a3,800063c8 <crcu8+0x1a8>
80006298:	00000000 	nop
8000629c:	314bffff 	andi	t3,t2,0xffff
800062a0:	396c4002 	xori	t4,t3,0x4002
800062a4:	01686826 	xor	t5,t3,t0
800062a8:	000c7042 	srl	t6,t4,0x1
800062ac:	31af0001 	andi	t7,t5,0x1
800062b0:	0008c042 	srl	t8,t0,0x1
800062b4:	35d98000 	ori	t9,t6,0x8000
800062b8:	000b2842 	srl	a1,t3,0x1
800062bc:	15e0004d 	bnez	t7,800063f4 <crcu8+0x1d4>
800062c0:	00000000 	nop
800062c4:	30a3ffff 	andi	v1,a1,0xffff
800062c8:	38624002 	xori	v0,v1,0x4002
800062cc:	00783026 	xor	a2,v1,t8
800062d0:	00023842 	srl	a3,v0,0x1
800062d4:	30c40001 	andi	a0,a2,0x1
800062d8:	00184042 	srl	t0,t8,0x1
800062dc:	34e98000 	ori	t1,a3,0x8000
800062e0:	00035042 	srl	t2,v1,0x1
800062e4:	1480004e 	bnez	a0,80006420 <crcu8+0x200>
800062e8:	00000000 	nop
800062ec:	314bffff 	andi	t3,t2,0xffff
800062f0:	396c4002 	xori	t4,t3,0x4002
800062f4:	01686826 	xor	t5,t3,t0
800062f8:	000c7042 	srl	t6,t4,0x1
800062fc:	31af0001 	andi	t7,t5,0x1
80006300:	0008c042 	srl	t8,t0,0x1
80006304:	35d98000 	ori	t9,t6,0x8000
80006308:	000b2842 	srl	a1,t3,0x1
8000630c:	15e0004f 	bnez	t7,8000644c <crcu8+0x22c>
80006310:	00000000 	nop
80006314:	30a6ffff 	andi	a2,a1,0xffff
80006318:	38c34002 	xori	v1,a2,0x4002
8000631c:	00d81026 	xor	v0,a2,t8
80006320:	00033842 	srl	a3,v1,0x1
80006324:	30480001 	andi	t0,v0,0x1
80006328:	34e98000 	ori	t1,a3,0x8000
8000632c:	00062042 	srl	a0,a2,0x1
80006330:	15000050 	bnez	t0,80006474 <crcu8+0x254>
80006334:	00000000 	nop
80006338:	308affff 	andi	t2,a0,0xffff
8000633c:	394b4002 	xori	t3,t2,0x4002
80006340:	000b6042 	srl	t4,t3,0x1
80006344:	00186842 	srl	t5,t8,0x1
80006348:	314e0001 	andi	t6,t2,0x1
8000634c:	35988000 	ori	t8,t4,0x8000
80006350:	000a7842 	srl	t7,t2,0x1
80006354:	15cd0002 	bne	t6,t5,80006360 <crcu8+0x140>
80006358:	00000000 	nop
8000635c:	01e0c025 	move	t8,t7
80006360:	3302ffff 	andi	v0,t8,0xffff
80006364:	03e00008 	jr	ra
80006368:	00000000 	nop
8000636c:	00000000 	nop
80006370:	01205025 	move	t2,t1
80006374:	314bffff 	andi	t3,t2,0xffff
80006378:	396c4002 	xori	t4,t3,0x4002
8000637c:	01686826 	xor	t5,t3,t0
80006380:	000c7042 	srl	t6,t4,0x1
80006384:	31af0001 	andi	t7,t5,0x1
80006388:	0008c042 	srl	t8,t0,0x1
8000638c:	35d98000 	ori	t9,t6,0x8000
80006390:	000b2842 	srl	a1,t3,0x1
80006394:	11e0ffb7 	beqz	t7,80006274 <crcu8+0x54>
80006398:	00000000 	nop
8000639c:	03202825 	move	a1,t9
800063a0:	30a3ffff 	andi	v1,a1,0xffff
800063a4:	38624002 	xori	v0,v1,0x4002
800063a8:	00783026 	xor	a2,v1,t8
800063ac:	00022042 	srl	a0,v0,0x1
800063b0:	30c70001 	andi	a3,a2,0x1
800063b4:	00184042 	srl	t0,t8,0x1
800063b8:	34898000 	ori	t1,a0,0x8000
800063bc:	00035042 	srl	t2,v1,0x1
800063c0:	10e0ffb6 	beqz	a3,8000629c <crcu8+0x7c>
800063c4:	00000000 	nop
800063c8:	01205025 	move	t2,t1
800063cc:	314bffff 	andi	t3,t2,0xffff
800063d0:	396c4002 	xori	t4,t3,0x4002
800063d4:	01686826 	xor	t5,t3,t0
800063d8:	000c7042 	srl	t6,t4,0x1
800063dc:	31af0001 	andi	t7,t5,0x1
800063e0:	0008c042 	srl	t8,t0,0x1
800063e4:	35d98000 	ori	t9,t6,0x8000
800063e8:	000b2842 	srl	a1,t3,0x1
800063ec:	11e0ffb5 	beqz	t7,800062c4 <crcu8+0xa4>
800063f0:	00000000 	nop
800063f4:	03202825 	move	a1,t9
800063f8:	30a3ffff 	andi	v1,a1,0xffff
800063fc:	38624002 	xori	v0,v1,0x4002
80006400:	00783026 	xor	a2,v1,t8
80006404:	00023842 	srl	a3,v0,0x1
80006408:	30c40001 	andi	a0,a2,0x1
8000640c:	00184042 	srl	t0,t8,0x1
80006410:	34e98000 	ori	t1,a3,0x8000
80006414:	00035042 	srl	t2,v1,0x1
80006418:	1080ffb4 	beqz	a0,800062ec <crcu8+0xcc>
8000641c:	00000000 	nop
80006420:	01205025 	move	t2,t1
80006424:	314bffff 	andi	t3,t2,0xffff
80006428:	396c4002 	xori	t4,t3,0x4002
8000642c:	01686826 	xor	t5,t3,t0
80006430:	000c7042 	srl	t6,t4,0x1
80006434:	31af0001 	andi	t7,t5,0x1
80006438:	0008c042 	srl	t8,t0,0x1
8000643c:	35d98000 	ori	t9,t6,0x8000
80006440:	000b2842 	srl	a1,t3,0x1
80006444:	11e0ffb3 	beqz	t7,80006314 <crcu8+0xf4>
80006448:	00000000 	nop
8000644c:	03202825 	move	a1,t9
80006450:	30a6ffff 	andi	a2,a1,0xffff
80006454:	38c34002 	xori	v1,a2,0x4002
80006458:	00d81026 	xor	v0,a2,t8
8000645c:	00033842 	srl	a3,v1,0x1
80006460:	30480001 	andi	t0,v0,0x1
80006464:	34e98000 	ori	t1,a3,0x8000
80006468:	00062042 	srl	a0,a2,0x1
8000646c:	1100ffb2 	beqz	t0,80006338 <crcu8+0x118>
80006470:	00000000 	nop
80006474:	01202025 	move	a0,t1
80006478:	1000ffaf 	b	80006338 <crcu8+0x118>
8000647c:	00000000 	nop

80006480 <crcu16>:
crcu16():
80006480:	30a5ffff 	andi	a1,a1,0xffff
80006484:	3084ffff 	andi	a0,a0,0xffff
80006488:	38a24002 	xori	v0,a1,0x4002
8000648c:	00a41826 	xor	v1,a1,a0
80006490:	00023842 	srl	a3,v0,0x1
80006494:	308600ff 	andi	a2,a0,0xff
80006498:	30680001 	andi	t0,v1,0x1
8000649c:	00064842 	srl	t1,a2,0x1
800064a0:	34ea8000 	ori	t2,a3,0x8000
800064a4:	00055842 	srl	t3,a1,0x1
800064a8:	15000099 	bnez	t0,80006710 <crcu16+0x290>
800064ac:	00000000 	nop
800064b0:	316cffff 	andi	t4,t3,0xffff
800064b4:	398d4002 	xori	t5,t4,0x4002
800064b8:	01897026 	xor	t6,t4,t1
800064bc:	000d7842 	srl	t7,t5,0x1
800064c0:	31d80001 	andi	t8,t6,0x1
800064c4:	0009c842 	srl	t9,t1,0x1
800064c8:	35e58000 	ori	a1,t7,0x8000
800064cc:	000c1042 	srl	v0,t4,0x1
800064d0:	1700009a 	bnez	t8,8000673c <crcu16+0x2bc>
800064d4:	00000000 	nop
800064d8:	3047ffff 	andi	a3,v0,0xffff
800064dc:	38e34002 	xori	v1,a3,0x4002
800064e0:	00f93026 	xor	a2,a3,t9
800064e4:	00034042 	srl	t0,v1,0x1
800064e8:	30c90001 	andi	t1,a2,0x1
800064ec:	00195042 	srl	t2,t9,0x1
800064f0:	350b8000 	ori	t3,t0,0x8000
800064f4:	00076042 	srl	t4,a3,0x1
800064f8:	1520009b 	bnez	t1,80006768 <crcu16+0x2e8>
800064fc:	00000000 	nop
80006500:	318dffff 	andi	t5,t4,0xffff
80006504:	39ae4002 	xori	t6,t5,0x4002
80006508:	01aa7826 	xor	t7,t5,t2
8000650c:	000ec042 	srl	t8,t6,0x1
80006510:	31f90001 	andi	t9,t7,0x1
80006514:	000a3842 	srl	a3,t2,0x1
80006518:	37058000 	ori	a1,t8,0x8000
8000651c:	000d1042 	srl	v0,t5,0x1
80006520:	1720009c 	bnez	t9,80006794 <crcu16+0x314>
80006524:	00000000 	nop
80006528:	3048ffff 	andi	t0,v0,0xffff
8000652c:	39064002 	xori	a2,t0,0x4002
80006530:	01071826 	xor	v1,t0,a3
80006534:	00064842 	srl	t1,a2,0x1
80006538:	306a0001 	andi	t2,v1,0x1
8000653c:	00075842 	srl	t3,a3,0x1
80006540:	352c8000 	ori	t4,t1,0x8000
80006544:	00086842 	srl	t5,t0,0x1
80006548:	1540009d 	bnez	t2,800067c0 <crcu16+0x340>
8000654c:	00000000 	nop
80006550:	31aeffff 	andi	t6,t5,0xffff
80006554:	39cf4002 	xori	t7,t6,0x4002
80006558:	01cbc026 	xor	t8,t6,t3
8000655c:	000fc842 	srl	t9,t7,0x1
80006560:	33070001 	andi	a3,t8,0x1
80006564:	000b4042 	srl	t0,t3,0x1
80006568:	37228000 	ori	v0,t9,0x8000
8000656c:	000e2842 	srl	a1,t6,0x1
80006570:	14e0009e 	bnez	a3,800067ec <crcu16+0x36c>
80006574:	00000000 	nop
80006578:	30a6ffff 	andi	a2,a1,0xffff
8000657c:	38c34002 	xori	v1,a2,0x4002
80006580:	00c84826 	xor	t1,a2,t0
80006584:	00035042 	srl	t2,v1,0x1
80006588:	312b0001 	andi	t3,t1,0x1
8000658c:	354c8000 	ori	t4,t2,0x8000
80006590:	00066842 	srl	t5,a2,0x1
80006594:	1560009f 	bnez	t3,80006814 <crcu16+0x394>
80006598:	00000000 	nop
8000659c:	31aeffff 	andi	t6,t5,0xffff
800065a0:	39cf4002 	xori	t7,t6,0x4002
800065a4:	000fc042 	srl	t8,t7,0x1
800065a8:	0008c842 	srl	t9,t0,0x1
800065ac:	31c70001 	andi	a3,t6,0x1
800065b0:	37088000 	ori	t0,t8,0x8000
800065b4:	000e1042 	srl	v0,t6,0x1
800065b8:	14f900a0 	bne	a3,t9,8000683c <crcu16+0x3bc>
800065bc:	00000000 	nop
800065c0:	3045ffff 	andi	a1,v0,0xffff
800065c4:	00042202 	srl	a0,a0,0x8
800065c8:	38a64002 	xori	a2,a1,0x4002
800065cc:	00a44826 	xor	t1,a1,a0
800065d0:	00061842 	srl	v1,a2,0x1
800065d4:	312a0001 	andi	t2,t1,0x1
800065d8:	00045842 	srl	t3,a0,0x1
800065dc:	346c8000 	ori	t4,v1,0x8000
800065e0:	00056842 	srl	t5,a1,0x1
800065e4:	154000a1 	bnez	t2,8000686c <crcu16+0x3ec>
800065e8:	00000000 	nop
800065ec:	31aeffff 	andi	t6,t5,0xffff
800065f0:	39cf4002 	xori	t7,t6,0x4002
800065f4:	016ec026 	xor	t8,t3,t6
800065f8:	000fc842 	srl	t9,t7,0x1
800065fc:	33070001 	andi	a3,t8,0x1
80006600:	000b4042 	srl	t0,t3,0x1
80006604:	37228000 	ori	v0,t9,0x8000
80006608:	000e2842 	srl	a1,t6,0x1
8000660c:	14e000a2 	bnez	a3,80006898 <crcu16+0x418>
80006610:	00000000 	nop
80006614:	30a6ffff 	andi	a2,a1,0xffff
80006618:	38c44002 	xori	a0,a2,0x4002
8000661c:	01064826 	xor	t1,t0,a2
80006620:	00045042 	srl	t2,a0,0x1
80006624:	31230001 	andi	v1,t1,0x1
80006628:	00085842 	srl	t3,t0,0x1
8000662c:	354c8000 	ori	t4,t2,0x8000
80006630:	00066842 	srl	t5,a2,0x1
80006634:	146000a3 	bnez	v1,800068c4 <crcu16+0x444>
80006638:	00000000 	nop
8000663c:	31aeffff 	andi	t6,t5,0xffff
80006640:	39cf4002 	xori	t7,t6,0x4002
80006644:	01cbc026 	xor	t8,t6,t3
80006648:	000fc842 	srl	t9,t7,0x1
8000664c:	33070001 	andi	a3,t8,0x1
80006650:	000b4042 	srl	t0,t3,0x1
80006654:	37228000 	ori	v0,t9,0x8000
80006658:	000e2842 	srl	a1,t6,0x1
8000665c:	14e000a4 	bnez	a3,800068f0 <crcu16+0x470>
80006660:	00000000 	nop
80006664:	30a6ffff 	andi	a2,a1,0xffff
80006668:	38c94002 	xori	t1,a2,0x4002
8000666c:	00c82026 	xor	a0,a2,t0
80006670:	00095042 	srl	t2,t1,0x1
80006674:	308b0001 	andi	t3,a0,0x1
80006678:	00086042 	srl	t4,t0,0x1
8000667c:	354d8000 	ori	t5,t2,0x8000
80006680:	00061842 	srl	v1,a2,0x1
80006684:	156000a5 	bnez	t3,8000691c <crcu16+0x49c>
80006688:	00000000 	nop
8000668c:	306effff 	andi	t6,v1,0xffff
80006690:	39cf4002 	xori	t7,t6,0x4002
80006694:	01ccc026 	xor	t8,t6,t4
80006698:	000fc842 	srl	t9,t7,0x1
8000669c:	33070001 	andi	a3,t8,0x1
800066a0:	000c4042 	srl	t0,t4,0x1
800066a4:	37258000 	ori	a1,t9,0x8000
800066a8:	000e1042 	srl	v0,t6,0x1
800066ac:	14e000a6 	bnez	a3,80006948 <crcu16+0x4c8>
800066b0:	00000000 	nop
800066b4:	3046ffff 	andi	a2,v0,0xffff
800066b8:	38c94002 	xori	t1,a2,0x4002
800066bc:	00c82026 	xor	a0,a2,t0
800066c0:	00095042 	srl	t2,t1,0x1
800066c4:	308b0001 	andi	t3,a0,0x1
800066c8:	354c8000 	ori	t4,t2,0x8000
800066cc:	00066842 	srl	t5,a2,0x1
800066d0:	156000a7 	bnez	t3,80006970 <crcu16+0x4f0>
800066d4:	00000000 	nop
800066d8:	31a3ffff 	andi	v1,t5,0xffff
800066dc:	386e4002 	xori	t6,v1,0x4002
800066e0:	000e7842 	srl	t7,t6,0x1
800066e4:	0008c042 	srl	t8,t0,0x1
800066e8:	30790001 	andi	t9,v1,0x1
800066ec:	35e88000 	ori	t0,t7,0x8000
800066f0:	00033842 	srl	a3,v1,0x1
800066f4:	17380002 	bne	t9,t8,80006700 <crcu16+0x280>
800066f8:	00000000 	nop
800066fc:	00e04025 	move	t0,a3
80006700:	3102ffff 	andi	v0,t0,0xffff
80006704:	03e00008 	jr	ra
80006708:	00000000 	nop
8000670c:	00000000 	nop
80006710:	01405825 	move	t3,t2
80006714:	316cffff 	andi	t4,t3,0xffff
80006718:	398d4002 	xori	t5,t4,0x4002
8000671c:	01897026 	xor	t6,t4,t1
80006720:	000d7842 	srl	t7,t5,0x1
80006724:	31d80001 	andi	t8,t6,0x1
80006728:	0009c842 	srl	t9,t1,0x1
8000672c:	35e58000 	ori	a1,t7,0x8000
80006730:	000c1042 	srl	v0,t4,0x1
80006734:	1300ff68 	beqz	t8,800064d8 <crcu16+0x58>
80006738:	00000000 	nop
8000673c:	00a01025 	move	v0,a1
80006740:	3047ffff 	andi	a3,v0,0xffff
80006744:	38e34002 	xori	v1,a3,0x4002
80006748:	00f93026 	xor	a2,a3,t9
8000674c:	00034042 	srl	t0,v1,0x1
80006750:	30c90001 	andi	t1,a2,0x1
80006754:	00195042 	srl	t2,t9,0x1
80006758:	350b8000 	ori	t3,t0,0x8000
8000675c:	00076042 	srl	t4,a3,0x1
80006760:	1120ff67 	beqz	t1,80006500 <crcu16+0x80>
80006764:	00000000 	nop
80006768:	01606025 	move	t4,t3
8000676c:	318dffff 	andi	t5,t4,0xffff
80006770:	39ae4002 	xori	t6,t5,0x4002
80006774:	01aa7826 	xor	t7,t5,t2
80006778:	000ec042 	srl	t8,t6,0x1
8000677c:	31f90001 	andi	t9,t7,0x1
80006780:	000a3842 	srl	a3,t2,0x1
80006784:	37058000 	ori	a1,t8,0x8000
80006788:	000d1042 	srl	v0,t5,0x1
8000678c:	1320ff66 	beqz	t9,80006528 <crcu16+0xa8>
80006790:	00000000 	nop
80006794:	00a01025 	move	v0,a1
80006798:	3048ffff 	andi	t0,v0,0xffff
8000679c:	39064002 	xori	a2,t0,0x4002
800067a0:	01071826 	xor	v1,t0,a3
800067a4:	00064842 	srl	t1,a2,0x1
800067a8:	306a0001 	andi	t2,v1,0x1
800067ac:	00075842 	srl	t3,a3,0x1
800067b0:	352c8000 	ori	t4,t1,0x8000
800067b4:	00086842 	srl	t5,t0,0x1
800067b8:	1140ff65 	beqz	t2,80006550 <crcu16+0xd0>
800067bc:	00000000 	nop
800067c0:	01806825 	move	t5,t4
800067c4:	31aeffff 	andi	t6,t5,0xffff
800067c8:	39cf4002 	xori	t7,t6,0x4002
800067cc:	01cbc026 	xor	t8,t6,t3
800067d0:	000fc842 	srl	t9,t7,0x1
800067d4:	33070001 	andi	a3,t8,0x1
800067d8:	000b4042 	srl	t0,t3,0x1
800067dc:	37228000 	ori	v0,t9,0x8000
800067e0:	000e2842 	srl	a1,t6,0x1
800067e4:	10e0ff64 	beqz	a3,80006578 <crcu16+0xf8>
800067e8:	00000000 	nop
800067ec:	00402825 	move	a1,v0
800067f0:	30a6ffff 	andi	a2,a1,0xffff
800067f4:	38c34002 	xori	v1,a2,0x4002
800067f8:	00c84826 	xor	t1,a2,t0
800067fc:	00035042 	srl	t2,v1,0x1
80006800:	312b0001 	andi	t3,t1,0x1
80006804:	354c8000 	ori	t4,t2,0x8000
80006808:	00066842 	srl	t5,a2,0x1
8000680c:	1160ff63 	beqz	t3,8000659c <crcu16+0x11c>
80006810:	00000000 	nop
80006814:	01806825 	move	t5,t4
80006818:	31aeffff 	andi	t6,t5,0xffff
8000681c:	39cf4002 	xori	t7,t6,0x4002
80006820:	000fc042 	srl	t8,t7,0x1
80006824:	0008c842 	srl	t9,t0,0x1
80006828:	31c70001 	andi	a3,t6,0x1
8000682c:	37088000 	ori	t0,t8,0x8000
80006830:	000e1042 	srl	v0,t6,0x1
80006834:	10f9ff62 	beq	a3,t9,800065c0 <crcu16+0x140>
80006838:	00000000 	nop
8000683c:	01001025 	move	v0,t0
80006840:	3045ffff 	andi	a1,v0,0xffff
80006844:	00042202 	srl	a0,a0,0x8
80006848:	38a64002 	xori	a2,a1,0x4002
8000684c:	00a44826 	xor	t1,a1,a0
80006850:	00061842 	srl	v1,a2,0x1
80006854:	312a0001 	andi	t2,t1,0x1
80006858:	00045842 	srl	t3,a0,0x1
8000685c:	346c8000 	ori	t4,v1,0x8000
80006860:	00056842 	srl	t5,a1,0x1
80006864:	1140ff61 	beqz	t2,800065ec <crcu16+0x16c>
80006868:	00000000 	nop
8000686c:	01806825 	move	t5,t4
80006870:	31aeffff 	andi	t6,t5,0xffff
80006874:	39cf4002 	xori	t7,t6,0x4002
80006878:	016ec026 	xor	t8,t3,t6
8000687c:	000fc842 	srl	t9,t7,0x1
80006880:	33070001 	andi	a3,t8,0x1
80006884:	000b4042 	srl	t0,t3,0x1
80006888:	37228000 	ori	v0,t9,0x8000
8000688c:	000e2842 	srl	a1,t6,0x1
80006890:	10e0ff60 	beqz	a3,80006614 <crcu16+0x194>
80006894:	00000000 	nop
80006898:	00402825 	move	a1,v0
8000689c:	30a6ffff 	andi	a2,a1,0xffff
800068a0:	38c44002 	xori	a0,a2,0x4002
800068a4:	01064826 	xor	t1,t0,a2
800068a8:	00045042 	srl	t2,a0,0x1
800068ac:	31230001 	andi	v1,t1,0x1
800068b0:	00085842 	srl	t3,t0,0x1
800068b4:	354c8000 	ori	t4,t2,0x8000
800068b8:	00066842 	srl	t5,a2,0x1
800068bc:	1060ff5f 	beqz	v1,8000663c <crcu16+0x1bc>
800068c0:	00000000 	nop
800068c4:	01806825 	move	t5,t4
800068c8:	31aeffff 	andi	t6,t5,0xffff
800068cc:	39cf4002 	xori	t7,t6,0x4002
800068d0:	01cbc026 	xor	t8,t6,t3
800068d4:	000fc842 	srl	t9,t7,0x1
800068d8:	33070001 	andi	a3,t8,0x1
800068dc:	000b4042 	srl	t0,t3,0x1
800068e0:	37228000 	ori	v0,t9,0x8000
800068e4:	000e2842 	srl	a1,t6,0x1
800068e8:	10e0ff5e 	beqz	a3,80006664 <crcu16+0x1e4>
800068ec:	00000000 	nop
800068f0:	00402825 	move	a1,v0
800068f4:	30a6ffff 	andi	a2,a1,0xffff
800068f8:	38c94002 	xori	t1,a2,0x4002
800068fc:	00c82026 	xor	a0,a2,t0
80006900:	00095042 	srl	t2,t1,0x1
80006904:	308b0001 	andi	t3,a0,0x1
80006908:	00086042 	srl	t4,t0,0x1
8000690c:	354d8000 	ori	t5,t2,0x8000
80006910:	00061842 	srl	v1,a2,0x1
80006914:	1160ff5d 	beqz	t3,8000668c <crcu16+0x20c>
80006918:	00000000 	nop
8000691c:	01a01825 	move	v1,t5
80006920:	306effff 	andi	t6,v1,0xffff
80006924:	39cf4002 	xori	t7,t6,0x4002
80006928:	01ccc026 	xor	t8,t6,t4
8000692c:	000fc842 	srl	t9,t7,0x1
80006930:	33070001 	andi	a3,t8,0x1
80006934:	000c4042 	srl	t0,t4,0x1
80006938:	37258000 	ori	a1,t9,0x8000
8000693c:	000e1042 	srl	v0,t6,0x1
80006940:	10e0ff5c 	beqz	a3,800066b4 <crcu16+0x234>
80006944:	00000000 	nop
80006948:	00a01025 	move	v0,a1
8000694c:	3046ffff 	andi	a2,v0,0xffff
80006950:	38c94002 	xori	t1,a2,0x4002
80006954:	00c82026 	xor	a0,a2,t0
80006958:	00095042 	srl	t2,t1,0x1
8000695c:	308b0001 	andi	t3,a0,0x1
80006960:	354c8000 	ori	t4,t2,0x8000
80006964:	00066842 	srl	t5,a2,0x1
80006968:	1160ff5b 	beqz	t3,800066d8 <crcu16+0x258>
8000696c:	00000000 	nop
80006970:	01806825 	move	t5,t4
80006974:	1000ff58 	b	800066d8 <crcu16+0x258>
80006978:	00000000 	nop
8000697c:	00000000 	nop

80006980 <crcu32>:
crcu32():
80006980:	30a5ffff 	andi	a1,a1,0xffff
80006984:	38a34002 	xori	v1,a1,0x4002
80006988:	00a41026 	xor	v0,a1,a0
8000698c:	00033842 	srl	a3,v1,0x1
80006990:	308600ff 	andi	a2,a0,0xff
80006994:	30480001 	andi	t0,v0,0x1
80006998:	00064842 	srl	t1,a2,0x1
8000699c:	34ea8000 	ori	t2,a3,0x8000
800069a0:	00055842 	srl	t3,a1,0x1
800069a4:	1500013a 	bnez	t0,80006e90 <crcu32+0x510>
800069a8:	00000000 	nop
800069ac:	316cffff 	andi	t4,t3,0xffff
800069b0:	398d4002 	xori	t5,t4,0x4002
800069b4:	01897026 	xor	t6,t4,t1
800069b8:	000d7842 	srl	t7,t5,0x1
800069bc:	31d80001 	andi	t8,t6,0x1
800069c0:	0009c842 	srl	t9,t1,0x1
800069c4:	35e58000 	ori	a1,t7,0x8000
800069c8:	000c1842 	srl	v1,t4,0x1
800069cc:	1700013b 	bnez	t8,80006ebc <crcu32+0x53c>
800069d0:	00000000 	nop
800069d4:	3062ffff 	andi	v0,v1,0xffff
800069d8:	38474002 	xori	a3,v0,0x4002
800069dc:	00593026 	xor	a2,v0,t9
800069e0:	00074042 	srl	t0,a3,0x1
800069e4:	30c90001 	andi	t1,a2,0x1
800069e8:	00195042 	srl	t2,t9,0x1
800069ec:	350b8000 	ori	t3,t0,0x8000
800069f0:	00026042 	srl	t4,v0,0x1
800069f4:	1520013c 	bnez	t1,80006ee8 <crcu32+0x568>
800069f8:	00000000 	nop
800069fc:	318dffff 	andi	t5,t4,0xffff
80006a00:	39ae4002 	xori	t6,t5,0x4002
80006a04:	01aa7826 	xor	t7,t5,t2
80006a08:	000ec042 	srl	t8,t6,0x1
80006a0c:	31f90001 	andi	t9,t7,0x1
80006a10:	000a3842 	srl	a3,t2,0x1
80006a14:	37038000 	ori	v1,t8,0x8000
80006a18:	000d2842 	srl	a1,t5,0x1
80006a1c:	1720013d 	bnez	t9,80006f14 <crcu32+0x594>
80006a20:	00000000 	nop
80006a24:	30a8ffff 	andi	t0,a1,0xffff
80006a28:	39024002 	xori	v0,t0,0x4002
80006a2c:	01073026 	xor	a2,t0,a3
80006a30:	00024842 	srl	t1,v0,0x1
80006a34:	30ca0001 	andi	t2,a2,0x1
80006a38:	00075842 	srl	t3,a3,0x1
80006a3c:	352c8000 	ori	t4,t1,0x8000
80006a40:	00086842 	srl	t5,t0,0x1
80006a44:	1540013e 	bnez	t2,80006f40 <crcu32+0x5c0>
80006a48:	00000000 	nop
80006a4c:	31aeffff 	andi	t6,t5,0xffff
80006a50:	39cf4002 	xori	t7,t6,0x4002
80006a54:	01cbc026 	xor	t8,t6,t3
80006a58:	000fc842 	srl	t9,t7,0x1
80006a5c:	33070001 	andi	a3,t8,0x1
80006a60:	000b4042 	srl	t0,t3,0x1
80006a64:	37238000 	ori	v1,t9,0x8000
80006a68:	000e2842 	srl	a1,t6,0x1
80006a6c:	14e0013f 	bnez	a3,80006f6c <crcu32+0x5ec>
80006a70:	00000000 	nop
80006a74:	30a6ffff 	andi	a2,a1,0xffff
80006a78:	38c94002 	xori	t1,a2,0x4002
80006a7c:	00c81026 	xor	v0,a2,t0
80006a80:	00095042 	srl	t2,t1,0x1
80006a84:	304b0001 	andi	t3,v0,0x1
80006a88:	354c8000 	ori	t4,t2,0x8000
80006a8c:	00066842 	srl	t5,a2,0x1
80006a90:	15600140 	bnez	t3,80006f94 <crcu32+0x614>
80006a94:	00000000 	nop
80006a98:	31aeffff 	andi	t6,t5,0xffff
80006a9c:	39cf4002 	xori	t7,t6,0x4002
80006aa0:	000fc042 	srl	t8,t7,0x1
80006aa4:	0008c842 	srl	t9,t0,0x1
80006aa8:	31c70001 	andi	a3,t6,0x1
80006aac:	37088000 	ori	t0,t8,0x8000
80006ab0:	000e1842 	srl	v1,t6,0x1
80006ab4:	14f90141 	bne	a3,t9,80006fbc <crcu32+0x63c>
80006ab8:	00000000 	nop
80006abc:	3085ffff 	andi	a1,a0,0xffff
80006ac0:	3069ffff 	andi	t1,v1,0xffff
80006ac4:	00053202 	srl	a2,a1,0x8
80006ac8:	39224002 	xori	v0,t1,0x4002
80006acc:	01265026 	xor	t2,t1,a2
80006ad0:	00025842 	srl	t3,v0,0x1
80006ad4:	314c0001 	andi	t4,t2,0x1
80006ad8:	00066842 	srl	t5,a2,0x1
80006adc:	356e8000 	ori	t6,t3,0x8000
80006ae0:	00097842 	srl	t7,t1,0x1
80006ae4:	15800142 	bnez	t4,80006ff0 <crcu32+0x670>
80006ae8:	00000000 	nop
80006aec:	31f8ffff 	andi	t8,t7,0xffff
80006af0:	3b194002 	xori	t9,t8,0x4002
80006af4:	030d3826 	xor	a3,t8,t5
80006af8:	00194042 	srl	t0,t9,0x1
80006afc:	30e90001 	andi	t1,a3,0x1
80006b00:	000d3042 	srl	a2,t5,0x1
80006b04:	35038000 	ori	v1,t0,0x8000
80006b08:	00182842 	srl	a1,t8,0x1
80006b0c:	15200143 	bnez	t1,8000701c <crcu32+0x69c>
80006b10:	00000000 	nop
80006b14:	30aaffff 	andi	t2,a1,0xffff
80006b18:	39424002 	xori	v0,t2,0x4002
80006b1c:	01465826 	xor	t3,t2,a2
80006b20:	00026042 	srl	t4,v0,0x1
80006b24:	316d0001 	andi	t5,t3,0x1
80006b28:	00067042 	srl	t6,a2,0x1
80006b2c:	358f8000 	ori	t7,t4,0x8000
80006b30:	000ac042 	srl	t8,t2,0x1
80006b34:	15a00144 	bnez	t5,80007048 <crcu32+0x6c8>
80006b38:	00000000 	nop
80006b3c:	3319ffff 	andi	t9,t8,0xffff
80006b40:	3b274002 	xori	a3,t9,0x4002
80006b44:	032e4026 	xor	t0,t9,t6
80006b48:	00074842 	srl	t1,a3,0x1
80006b4c:	31030001 	andi	v1,t0,0x1
80006b50:	000e3042 	srl	a2,t6,0x1
80006b54:	35258000 	ori	a1,t1,0x8000
80006b58:	00195042 	srl	t2,t9,0x1
80006b5c:	14600145 	bnez	v1,80007074 <crcu32+0x6f4>
80006b60:	00000000 	nop
80006b64:	314bffff 	andi	t3,t2,0xffff
80006b68:	396c4002 	xori	t4,t3,0x4002
80006b6c:	01661026 	xor	v0,t3,a2
80006b70:	000c6842 	srl	t5,t4,0x1
80006b74:	304e0001 	andi	t6,v0,0x1
80006b78:	00067842 	srl	t7,a2,0x1
80006b7c:	35b88000 	ori	t8,t5,0x8000
80006b80:	000bc842 	srl	t9,t3,0x1
80006b84:	15c00146 	bnez	t6,800070a0 <crcu32+0x720>
80006b88:	00000000 	nop
80006b8c:	3327ffff 	andi	a3,t9,0xffff
80006b90:	38e84002 	xori	t0,a3,0x4002
80006b94:	00ef4826 	xor	t1,a3,t7
80006b98:	00081842 	srl	v1,t0,0x1
80006b9c:	31250001 	andi	a1,t1,0x1
80006ba0:	000f3042 	srl	a2,t7,0x1
80006ba4:	346a8000 	ori	t2,v1,0x8000
80006ba8:	00075842 	srl	t3,a3,0x1
80006bac:	14a00147 	bnez	a1,800070cc <crcu32+0x74c>
80006bb0:	00000000 	nop
80006bb4:	316cffff 	andi	t4,t3,0xffff
80006bb8:	39824002 	xori	v0,t4,0x4002
80006bbc:	01866826 	xor	t5,t4,a2
80006bc0:	00027042 	srl	t6,v0,0x1
80006bc4:	31af0001 	andi	t7,t5,0x1
80006bc8:	35d88000 	ori	t8,t6,0x8000
80006bcc:	000cc842 	srl	t9,t4,0x1
80006bd0:	15e00148 	bnez	t7,800070f4 <crcu32+0x774>
80006bd4:	00000000 	nop
80006bd8:	3327ffff 	andi	a3,t9,0xffff
80006bdc:	38e84002 	xori	t0,a3,0x4002
80006be0:	00084842 	srl	t1,t0,0x1
80006be4:	00063042 	srl	a2,a2,0x1
80006be8:	30ea0001 	andi	t2,a3,0x1
80006bec:	35238000 	ori	v1,t1,0x8000
80006bf0:	00072842 	srl	a1,a3,0x1
80006bf4:	15460149 	bne	t2,a2,8000711c <crcu32+0x79c>
80006bf8:	00000000 	nop
80006bfc:	30abffff 	andi	t3,a1,0xffff
80006c00:	00042402 	srl	a0,a0,0x10
80006c04:	396c4002 	xori	t4,t3,0x4002
80006c08:	01646826 	xor	t5,t3,a0
80006c0c:	000c1042 	srl	v0,t4,0x1
80006c10:	308e00ff 	andi	t6,a0,0xff
80006c14:	31af0001 	andi	t7,t5,0x1
80006c18:	000ec042 	srl	t8,t6,0x1
80006c1c:	34598000 	ori	t9,v0,0x8000
80006c20:	000b3842 	srl	a3,t3,0x1
80006c24:	15e0014a 	bnez	t7,80007150 <crcu32+0x7d0>
80006c28:	00000000 	nop
80006c2c:	30e8ffff 	andi	t0,a3,0xffff
80006c30:	39094002 	xori	t1,t0,0x4002
80006c34:	01183026 	xor	a2,t0,t8
80006c38:	00095042 	srl	t2,t1,0x1
80006c3c:	30c30001 	andi	v1,a2,0x1
80006c40:	00185842 	srl	t3,t8,0x1
80006c44:	35458000 	ori	a1,t2,0x8000
80006c48:	00086042 	srl	t4,t0,0x1
80006c4c:	1460014b 	bnez	v1,8000717c <crcu32+0x7fc>
80006c50:	00000000 	nop
80006c54:	318dffff 	andi	t5,t4,0xffff
80006c58:	39ae4002 	xori	t6,t5,0x4002
80006c5c:	01ab1026 	xor	v0,t5,t3
80006c60:	000e7842 	srl	t7,t6,0x1
80006c64:	30580001 	andi	t8,v0,0x1
80006c68:	000bc842 	srl	t9,t3,0x1
80006c6c:	35e78000 	ori	a3,t7,0x8000
80006c70:	000d4042 	srl	t0,t5,0x1
80006c74:	1700014c 	bnez	t8,800071a8 <crcu32+0x828>
80006c78:	00000000 	nop
80006c7c:	3109ffff 	andi	t1,t0,0xffff
80006c80:	39264002 	xori	a2,t1,0x4002
80006c84:	01395026 	xor	t2,t1,t9
80006c88:	00061842 	srl	v1,a2,0x1
80006c8c:	314b0001 	andi	t3,t2,0x1
80006c90:	00196042 	srl	t4,t9,0x1
80006c94:	34658000 	ori	a1,v1,0x8000
80006c98:	00096842 	srl	t5,t1,0x1
80006c9c:	1560014d 	bnez	t3,800071d4 <crcu32+0x854>
80006ca0:	00000000 	nop
80006ca4:	31aeffff 	andi	t6,t5,0xffff
80006ca8:	39c24002 	xori	v0,t6,0x4002
80006cac:	01cc7826 	xor	t7,t6,t4
80006cb0:	0002c042 	srl	t8,v0,0x1
80006cb4:	31f90001 	andi	t9,t7,0x1
80006cb8:	000c3842 	srl	a3,t4,0x1
80006cbc:	37088000 	ori	t0,t8,0x8000
80006cc0:	000e4842 	srl	t1,t6,0x1
80006cc4:	1720014e 	bnez	t9,80007200 <crcu32+0x880>
80006cc8:	00000000 	nop
80006ccc:	312affff 	andi	t2,t1,0xffff
80006cd0:	39464002 	xori	a2,t2,0x4002
80006cd4:	01475826 	xor	t3,t2,a3
80006cd8:	00061842 	srl	v1,a2,0x1
80006cdc:	316c0001 	andi	t4,t3,0x1
80006ce0:	00076842 	srl	t5,a3,0x1
80006ce4:	346e8000 	ori	t6,v1,0x8000
80006ce8:	000a2842 	srl	a1,t2,0x1
80006cec:	1580014f 	bnez	t4,8000722c <crcu32+0x8ac>
80006cf0:	00000000 	nop
80006cf4:	30afffff 	andi	t7,a1,0xffff
80006cf8:	39e24002 	xori	v0,t7,0x4002
80006cfc:	01edc026 	xor	t8,t7,t5
80006d00:	0002c842 	srl	t9,v0,0x1
80006d04:	33070001 	andi	a3,t8,0x1
80006d08:	37288000 	ori	t0,t9,0x8000
80006d0c:	000f4842 	srl	t1,t7,0x1
80006d10:	14e00150 	bnez	a3,80007254 <crcu32+0x8d4>
80006d14:	00000000 	nop
80006d18:	312affff 	andi	t2,t1,0xffff
80006d1c:	39464002 	xori	a2,t2,0x4002
80006d20:	00065842 	srl	t3,a2,0x1
80006d24:	000d6042 	srl	t4,t5,0x1
80006d28:	31430001 	andi	v1,t2,0x1
80006d2c:	356d8000 	ori	t5,t3,0x8000
80006d30:	000a7042 	srl	t6,t2,0x1
80006d34:	146c0151 	bne	v1,t4,8000727c <crcu32+0x8fc>
80006d38:	00000000 	nop
80006d3c:	31c5ffff 	andi	a1,t6,0xffff
80006d40:	00042202 	srl	a0,a0,0x8
80006d44:	38af4002 	xori	t7,a1,0x4002
80006d48:	00851026 	xor	v0,a0,a1
80006d4c:	000fc042 	srl	t8,t7,0x1
80006d50:	30590001 	andi	t9,v0,0x1
80006d54:	00043842 	srl	a3,a0,0x1
80006d58:	37088000 	ori	t0,t8,0x8000
80006d5c:	00054842 	srl	t1,a1,0x1
80006d60:	17200152 	bnez	t9,800072ac <crcu32+0x92c>
80006d64:	00000000 	nop
80006d68:	312affff 	andi	t2,t1,0xffff
80006d6c:	394b4002 	xori	t3,t2,0x4002
80006d70:	00ea3026 	xor	a2,a3,t2
80006d74:	000b6042 	srl	t4,t3,0x1
80006d78:	30cd0001 	andi	t5,a2,0x1
80006d7c:	00077042 	srl	t6,a3,0x1
80006d80:	35858000 	ori	a1,t4,0x8000
80006d84:	000a1842 	srl	v1,t2,0x1
80006d88:	15a00153 	bnez	t5,800072d8 <crcu32+0x958>
80006d8c:	00000000 	nop
80006d90:	306fffff 	andi	t7,v1,0xffff
80006d94:	39e44002 	xori	a0,t7,0x4002
80006d98:	01cf1026 	xor	v0,t6,t7
80006d9c:	0004c042 	srl	t8,a0,0x1
80006da0:	30590001 	andi	t9,v0,0x1
80006da4:	000e3842 	srl	a3,t6,0x1
80006da8:	37088000 	ori	t0,t8,0x8000
80006dac:	000f4842 	srl	t1,t7,0x1
80006db0:	17200154 	bnez	t9,80007304 <crcu32+0x984>
80006db4:	00000000 	nop
80006db8:	312affff 	andi	t2,t1,0xffff
80006dbc:	394b4002 	xori	t3,t2,0x4002
80006dc0:	00ea3026 	xor	a2,a3,t2
80006dc4:	000b6042 	srl	t4,t3,0x1
80006dc8:	30cd0001 	andi	t5,a2,0x1
80006dcc:	00077042 	srl	t6,a3,0x1
80006dd0:	35858000 	ori	a1,t4,0x8000
80006dd4:	000a1842 	srl	v1,t2,0x1
80006dd8:	15a00155 	bnez	t5,80007330 <crcu32+0x9b0>
80006ddc:	00000000 	nop
80006de0:	306fffff 	andi	t7,v1,0xffff
80006de4:	39e24002 	xori	v0,t7,0x4002
80006de8:	01cf2026 	xor	a0,t6,t7
80006dec:	0002c042 	srl	t8,v0,0x1
80006df0:	30990001 	andi	t9,a0,0x1
80006df4:	000e3842 	srl	a3,t6,0x1
80006df8:	37088000 	ori	t0,t8,0x8000
80006dfc:	000f4842 	srl	t1,t7,0x1
80006e00:	17200156 	bnez	t9,8000735c <crcu32+0x9dc>
80006e04:	00000000 	nop
80006e08:	312affff 	andi	t2,t1,0xffff
80006e0c:	394b4002 	xori	t3,t2,0x4002
80006e10:	00ea3026 	xor	a2,a3,t2
80006e14:	000b6042 	srl	t4,t3,0x1
80006e18:	30cd0001 	andi	t5,a2,0x1
80006e1c:	00077042 	srl	t6,a3,0x1
80006e20:	35858000 	ori	a1,t4,0x8000
80006e24:	000a1842 	srl	v1,t2,0x1
80006e28:	15a00157 	bnez	t5,80007388 <crcu32+0xa08>
80006e2c:	00000000 	nop
80006e30:	306fffff 	andi	t7,v1,0xffff
80006e34:	39e44002 	xori	a0,t7,0x4002
80006e38:	01ee1026 	xor	v0,t7,t6
80006e3c:	0004c042 	srl	t8,a0,0x1
80006e40:	30590001 	andi	t9,v0,0x1
80006e44:	37078000 	ori	a3,t8,0x8000
80006e48:	000f4042 	srl	t0,t7,0x1
80006e4c:	17200158 	bnez	t9,800073b0 <crcu32+0xa30>
80006e50:	00000000 	nop
80006e54:	3109ffff 	andi	t1,t0,0xffff
80006e58:	392a4002 	xori	t2,t1,0x4002
80006e5c:	000a5842 	srl	t3,t2,0x1
80006e60:	000e3042 	srl	a2,t6,0x1
80006e64:	312c0001 	andi	t4,t1,0x1
80006e68:	356e8000 	ori	t6,t3,0x8000
80006e6c:	00096842 	srl	t5,t1,0x1
80006e70:	15860002 	bne	t4,a2,80006e7c <crcu32+0x4fc>
80006e74:	00000000 	nop
80006e78:	01a07025 	move	t6,t5
80006e7c:	31c2ffff 	andi	v0,t6,0xffff
80006e80:	03e00008 	jr	ra
80006e84:	00000000 	nop
	...
80006e90:	01405825 	move	t3,t2
80006e94:	316cffff 	andi	t4,t3,0xffff
80006e98:	398d4002 	xori	t5,t4,0x4002
80006e9c:	01897026 	xor	t6,t4,t1
80006ea0:	000d7842 	srl	t7,t5,0x1
80006ea4:	31d80001 	andi	t8,t6,0x1
80006ea8:	0009c842 	srl	t9,t1,0x1
80006eac:	35e58000 	ori	a1,t7,0x8000
80006eb0:	000c1842 	srl	v1,t4,0x1
80006eb4:	1300fec7 	beqz	t8,800069d4 <crcu32+0x54>
80006eb8:	00000000 	nop
80006ebc:	00a01825 	move	v1,a1
80006ec0:	3062ffff 	andi	v0,v1,0xffff
80006ec4:	38474002 	xori	a3,v0,0x4002
80006ec8:	00593026 	xor	a2,v0,t9
80006ecc:	00074042 	srl	t0,a3,0x1
80006ed0:	30c90001 	andi	t1,a2,0x1
80006ed4:	00195042 	srl	t2,t9,0x1
80006ed8:	350b8000 	ori	t3,t0,0x8000
80006edc:	00026042 	srl	t4,v0,0x1
80006ee0:	1120fec6 	beqz	t1,800069fc <crcu32+0x7c>
80006ee4:	00000000 	nop
80006ee8:	01606025 	move	t4,t3
80006eec:	318dffff 	andi	t5,t4,0xffff
80006ef0:	39ae4002 	xori	t6,t5,0x4002
80006ef4:	01aa7826 	xor	t7,t5,t2
80006ef8:	000ec042 	srl	t8,t6,0x1
80006efc:	31f90001 	andi	t9,t7,0x1
80006f00:	000a3842 	srl	a3,t2,0x1
80006f04:	37038000 	ori	v1,t8,0x8000
80006f08:	000d2842 	srl	a1,t5,0x1
80006f0c:	1320fec5 	beqz	t9,80006a24 <crcu32+0xa4>
80006f10:	00000000 	nop
80006f14:	00602825 	move	a1,v1
80006f18:	30a8ffff 	andi	t0,a1,0xffff
80006f1c:	39024002 	xori	v0,t0,0x4002
80006f20:	01073026 	xor	a2,t0,a3
80006f24:	00024842 	srl	t1,v0,0x1
80006f28:	30ca0001 	andi	t2,a2,0x1
80006f2c:	00075842 	srl	t3,a3,0x1
80006f30:	352c8000 	ori	t4,t1,0x8000
80006f34:	00086842 	srl	t5,t0,0x1
80006f38:	1140fec4 	beqz	t2,80006a4c <crcu32+0xcc>
80006f3c:	00000000 	nop
80006f40:	01806825 	move	t5,t4
80006f44:	31aeffff 	andi	t6,t5,0xffff
80006f48:	39cf4002 	xori	t7,t6,0x4002
80006f4c:	01cbc026 	xor	t8,t6,t3
80006f50:	000fc842 	srl	t9,t7,0x1
80006f54:	33070001 	andi	a3,t8,0x1
80006f58:	000b4042 	srl	t0,t3,0x1
80006f5c:	37238000 	ori	v1,t9,0x8000
80006f60:	000e2842 	srl	a1,t6,0x1
80006f64:	10e0fec3 	beqz	a3,80006a74 <crcu32+0xf4>
80006f68:	00000000 	nop
80006f6c:	00602825 	move	a1,v1
80006f70:	30a6ffff 	andi	a2,a1,0xffff
80006f74:	38c94002 	xori	t1,a2,0x4002
80006f78:	00c81026 	xor	v0,a2,t0
80006f7c:	00095042 	srl	t2,t1,0x1
80006f80:	304b0001 	andi	t3,v0,0x1
80006f84:	354c8000 	ori	t4,t2,0x8000
80006f88:	00066842 	srl	t5,a2,0x1
80006f8c:	1160fec2 	beqz	t3,80006a98 <crcu32+0x118>
80006f90:	00000000 	nop
80006f94:	01806825 	move	t5,t4
80006f98:	31aeffff 	andi	t6,t5,0xffff
80006f9c:	39cf4002 	xori	t7,t6,0x4002
80006fa0:	000fc042 	srl	t8,t7,0x1
80006fa4:	0008c842 	srl	t9,t0,0x1
80006fa8:	31c70001 	andi	a3,t6,0x1
80006fac:	37088000 	ori	t0,t8,0x8000
80006fb0:	000e1842 	srl	v1,t6,0x1
80006fb4:	10f9fec1 	beq	a3,t9,80006abc <crcu32+0x13c>
80006fb8:	00000000 	nop
80006fbc:	01001825 	move	v1,t0
80006fc0:	3085ffff 	andi	a1,a0,0xffff
80006fc4:	3069ffff 	andi	t1,v1,0xffff
80006fc8:	00053202 	srl	a2,a1,0x8
80006fcc:	39224002 	xori	v0,t1,0x4002
80006fd0:	01265026 	xor	t2,t1,a2
80006fd4:	00025842 	srl	t3,v0,0x1
80006fd8:	314c0001 	andi	t4,t2,0x1
80006fdc:	00066842 	srl	t5,a2,0x1
80006fe0:	356e8000 	ori	t6,t3,0x8000
80006fe4:	00097842 	srl	t7,t1,0x1
80006fe8:	1180fec0 	beqz	t4,80006aec <crcu32+0x16c>
80006fec:	00000000 	nop
80006ff0:	01c07825 	move	t7,t6
80006ff4:	31f8ffff 	andi	t8,t7,0xffff
80006ff8:	3b194002 	xori	t9,t8,0x4002
80006ffc:	030d3826 	xor	a3,t8,t5
80007000:	00194042 	srl	t0,t9,0x1
80007004:	30e90001 	andi	t1,a3,0x1
80007008:	000d3042 	srl	a2,t5,0x1
8000700c:	35038000 	ori	v1,t0,0x8000
80007010:	00182842 	srl	a1,t8,0x1
80007014:	1120febf 	beqz	t1,80006b14 <crcu32+0x194>
80007018:	00000000 	nop
8000701c:	00602825 	move	a1,v1
80007020:	30aaffff 	andi	t2,a1,0xffff
80007024:	39424002 	xori	v0,t2,0x4002
80007028:	01465826 	xor	t3,t2,a2
8000702c:	00026042 	srl	t4,v0,0x1
80007030:	316d0001 	andi	t5,t3,0x1
80007034:	00067042 	srl	t6,a2,0x1
80007038:	358f8000 	ori	t7,t4,0x8000
8000703c:	000ac042 	srl	t8,t2,0x1
80007040:	11a0febe 	beqz	t5,80006b3c <crcu32+0x1bc>
80007044:	00000000 	nop
80007048:	01e0c025 	move	t8,t7
8000704c:	3319ffff 	andi	t9,t8,0xffff
80007050:	3b274002 	xori	a3,t9,0x4002
80007054:	032e4026 	xor	t0,t9,t6
80007058:	00074842 	srl	t1,a3,0x1
8000705c:	31030001 	andi	v1,t0,0x1
80007060:	000e3042 	srl	a2,t6,0x1
80007064:	35258000 	ori	a1,t1,0x8000
80007068:	00195042 	srl	t2,t9,0x1
8000706c:	1060febd 	beqz	v1,80006b64 <crcu32+0x1e4>
80007070:	00000000 	nop
80007074:	00a05025 	move	t2,a1
80007078:	314bffff 	andi	t3,t2,0xffff
8000707c:	396c4002 	xori	t4,t3,0x4002
80007080:	01661026 	xor	v0,t3,a2
80007084:	000c6842 	srl	t5,t4,0x1
80007088:	304e0001 	andi	t6,v0,0x1
8000708c:	00067842 	srl	t7,a2,0x1
80007090:	35b88000 	ori	t8,t5,0x8000
80007094:	000bc842 	srl	t9,t3,0x1
80007098:	11c0febc 	beqz	t6,80006b8c <crcu32+0x20c>
8000709c:	00000000 	nop
800070a0:	0300c825 	move	t9,t8
800070a4:	3327ffff 	andi	a3,t9,0xffff
800070a8:	38e84002 	xori	t0,a3,0x4002
800070ac:	00ef4826 	xor	t1,a3,t7
800070b0:	00081842 	srl	v1,t0,0x1
800070b4:	31250001 	andi	a1,t1,0x1
800070b8:	000f3042 	srl	a2,t7,0x1
800070bc:	346a8000 	ori	t2,v1,0x8000
800070c0:	00075842 	srl	t3,a3,0x1
800070c4:	10a0febb 	beqz	a1,80006bb4 <crcu32+0x234>
800070c8:	00000000 	nop
800070cc:	01405825 	move	t3,t2
800070d0:	316cffff 	andi	t4,t3,0xffff
800070d4:	39824002 	xori	v0,t4,0x4002
800070d8:	01866826 	xor	t5,t4,a2
800070dc:	00027042 	srl	t6,v0,0x1
800070e0:	31af0001 	andi	t7,t5,0x1
800070e4:	35d88000 	ori	t8,t6,0x8000
800070e8:	000cc842 	srl	t9,t4,0x1
800070ec:	11e0feba 	beqz	t7,80006bd8 <crcu32+0x258>
800070f0:	00000000 	nop
800070f4:	0300c825 	move	t9,t8
800070f8:	3327ffff 	andi	a3,t9,0xffff
800070fc:	38e84002 	xori	t0,a3,0x4002
80007100:	00084842 	srl	t1,t0,0x1
80007104:	00063042 	srl	a2,a2,0x1
80007108:	30ea0001 	andi	t2,a3,0x1
8000710c:	35238000 	ori	v1,t1,0x8000
80007110:	00072842 	srl	a1,a3,0x1
80007114:	1146feb9 	beq	t2,a2,80006bfc <crcu32+0x27c>
80007118:	00000000 	nop
8000711c:	00602825 	move	a1,v1
80007120:	30abffff 	andi	t3,a1,0xffff
80007124:	00042402 	srl	a0,a0,0x10
80007128:	396c4002 	xori	t4,t3,0x4002
8000712c:	01646826 	xor	t5,t3,a0
80007130:	000c1042 	srl	v0,t4,0x1
80007134:	308e00ff 	andi	t6,a0,0xff
80007138:	31af0001 	andi	t7,t5,0x1
8000713c:	000ec042 	srl	t8,t6,0x1
80007140:	34598000 	ori	t9,v0,0x8000
80007144:	000b3842 	srl	a3,t3,0x1
80007148:	11e0feb8 	beqz	t7,80006c2c <crcu32+0x2ac>
8000714c:	00000000 	nop
80007150:	03203825 	move	a3,t9
80007154:	30e8ffff 	andi	t0,a3,0xffff
80007158:	39094002 	xori	t1,t0,0x4002
8000715c:	01183026 	xor	a2,t0,t8
80007160:	00095042 	srl	t2,t1,0x1
80007164:	30c30001 	andi	v1,a2,0x1
80007168:	00185842 	srl	t3,t8,0x1
8000716c:	35458000 	ori	a1,t2,0x8000
80007170:	00086042 	srl	t4,t0,0x1
80007174:	1060feb7 	beqz	v1,80006c54 <crcu32+0x2d4>
80007178:	00000000 	nop
8000717c:	00a06025 	move	t4,a1
80007180:	318dffff 	andi	t5,t4,0xffff
80007184:	39ae4002 	xori	t6,t5,0x4002
80007188:	01ab1026 	xor	v0,t5,t3
8000718c:	000e7842 	srl	t7,t6,0x1
80007190:	30580001 	andi	t8,v0,0x1
80007194:	000bc842 	srl	t9,t3,0x1
80007198:	35e78000 	ori	a3,t7,0x8000
8000719c:	000d4042 	srl	t0,t5,0x1
800071a0:	1300feb6 	beqz	t8,80006c7c <crcu32+0x2fc>
800071a4:	00000000 	nop
800071a8:	00e04025 	move	t0,a3
800071ac:	3109ffff 	andi	t1,t0,0xffff
800071b0:	39264002 	xori	a2,t1,0x4002
800071b4:	01395026 	xor	t2,t1,t9
800071b8:	00061842 	srl	v1,a2,0x1
800071bc:	314b0001 	andi	t3,t2,0x1
800071c0:	00196042 	srl	t4,t9,0x1
800071c4:	34658000 	ori	a1,v1,0x8000
800071c8:	00096842 	srl	t5,t1,0x1
800071cc:	1160feb5 	beqz	t3,80006ca4 <crcu32+0x324>
800071d0:	00000000 	nop
800071d4:	00a06825 	move	t5,a1
800071d8:	31aeffff 	andi	t6,t5,0xffff
800071dc:	39c24002 	xori	v0,t6,0x4002
800071e0:	01cc7826 	xor	t7,t6,t4
800071e4:	0002c042 	srl	t8,v0,0x1
800071e8:	31f90001 	andi	t9,t7,0x1
800071ec:	000c3842 	srl	a3,t4,0x1
800071f0:	37088000 	ori	t0,t8,0x8000
800071f4:	000e4842 	srl	t1,t6,0x1
800071f8:	1320feb4 	beqz	t9,80006ccc <crcu32+0x34c>
800071fc:	00000000 	nop
80007200:	01004825 	move	t1,t0
80007204:	312affff 	andi	t2,t1,0xffff
80007208:	39464002 	xori	a2,t2,0x4002
8000720c:	01475826 	xor	t3,t2,a3
80007210:	00061842 	srl	v1,a2,0x1
80007214:	316c0001 	andi	t4,t3,0x1
80007218:	00076842 	srl	t5,a3,0x1
8000721c:	346e8000 	ori	t6,v1,0x8000
80007220:	000a2842 	srl	a1,t2,0x1
80007224:	1180feb3 	beqz	t4,80006cf4 <crcu32+0x374>
80007228:	00000000 	nop
8000722c:	01c02825 	move	a1,t6
80007230:	30afffff 	andi	t7,a1,0xffff
80007234:	39e24002 	xori	v0,t7,0x4002
80007238:	01edc026 	xor	t8,t7,t5
8000723c:	0002c842 	srl	t9,v0,0x1
80007240:	33070001 	andi	a3,t8,0x1
80007244:	37288000 	ori	t0,t9,0x8000
80007248:	000f4842 	srl	t1,t7,0x1
8000724c:	10e0feb2 	beqz	a3,80006d18 <crcu32+0x398>
80007250:	00000000 	nop
80007254:	01004825 	move	t1,t0
80007258:	312affff 	andi	t2,t1,0xffff
8000725c:	39464002 	xori	a2,t2,0x4002
80007260:	00065842 	srl	t3,a2,0x1
80007264:	000d6042 	srl	t4,t5,0x1
80007268:	31430001 	andi	v1,t2,0x1
8000726c:	356d8000 	ori	t5,t3,0x8000
80007270:	000a7042 	srl	t6,t2,0x1
80007274:	106cfeb1 	beq	v1,t4,80006d3c <crcu32+0x3bc>
80007278:	00000000 	nop
8000727c:	01a07025 	move	t6,t5
80007280:	31c5ffff 	andi	a1,t6,0xffff
80007284:	00042202 	srl	a0,a0,0x8
80007288:	38af4002 	xori	t7,a1,0x4002
8000728c:	00851026 	xor	v0,a0,a1
80007290:	000fc042 	srl	t8,t7,0x1
80007294:	30590001 	andi	t9,v0,0x1
80007298:	00043842 	srl	a3,a0,0x1
8000729c:	37088000 	ori	t0,t8,0x8000
800072a0:	00054842 	srl	t1,a1,0x1
800072a4:	1320feb0 	beqz	t9,80006d68 <crcu32+0x3e8>
800072a8:	00000000 	nop
800072ac:	01004825 	move	t1,t0
800072b0:	312affff 	andi	t2,t1,0xffff
800072b4:	394b4002 	xori	t3,t2,0x4002
800072b8:	00ea3026 	xor	a2,a3,t2
800072bc:	000b6042 	srl	t4,t3,0x1
800072c0:	30cd0001 	andi	t5,a2,0x1
800072c4:	00077042 	srl	t6,a3,0x1
800072c8:	35858000 	ori	a1,t4,0x8000
800072cc:	000a1842 	srl	v1,t2,0x1
800072d0:	11a0feaf 	beqz	t5,80006d90 <crcu32+0x410>
800072d4:	00000000 	nop
800072d8:	00a01825 	move	v1,a1
800072dc:	306fffff 	andi	t7,v1,0xffff
800072e0:	39e44002 	xori	a0,t7,0x4002
800072e4:	01cf1026 	xor	v0,t6,t7
800072e8:	0004c042 	srl	t8,a0,0x1
800072ec:	30590001 	andi	t9,v0,0x1
800072f0:	000e3842 	srl	a3,t6,0x1
800072f4:	37088000 	ori	t0,t8,0x8000
800072f8:	000f4842 	srl	t1,t7,0x1
800072fc:	1320feae 	beqz	t9,80006db8 <crcu32+0x438>
80007300:	00000000 	nop
80007304:	01004825 	move	t1,t0
80007308:	312affff 	andi	t2,t1,0xffff
8000730c:	394b4002 	xori	t3,t2,0x4002
80007310:	00ea3026 	xor	a2,a3,t2
80007314:	000b6042 	srl	t4,t3,0x1
80007318:	30cd0001 	andi	t5,a2,0x1
8000731c:	00077042 	srl	t6,a3,0x1
80007320:	35858000 	ori	a1,t4,0x8000
80007324:	000a1842 	srl	v1,t2,0x1
80007328:	11a0fead 	beqz	t5,80006de0 <crcu32+0x460>
8000732c:	00000000 	nop
80007330:	00a01825 	move	v1,a1
80007334:	306fffff 	andi	t7,v1,0xffff
80007338:	39e24002 	xori	v0,t7,0x4002
8000733c:	01cf2026 	xor	a0,t6,t7
80007340:	0002c042 	srl	t8,v0,0x1
80007344:	30990001 	andi	t9,a0,0x1
80007348:	000e3842 	srl	a3,t6,0x1
8000734c:	37088000 	ori	t0,t8,0x8000
80007350:	000f4842 	srl	t1,t7,0x1
80007354:	1320feac 	beqz	t9,80006e08 <crcu32+0x488>
80007358:	00000000 	nop
8000735c:	01004825 	move	t1,t0
80007360:	312affff 	andi	t2,t1,0xffff
80007364:	394b4002 	xori	t3,t2,0x4002
80007368:	00ea3026 	xor	a2,a3,t2
8000736c:	000b6042 	srl	t4,t3,0x1
80007370:	30cd0001 	andi	t5,a2,0x1
80007374:	00077042 	srl	t6,a3,0x1
80007378:	35858000 	ori	a1,t4,0x8000
8000737c:	000a1842 	srl	v1,t2,0x1
80007380:	11a0feab 	beqz	t5,80006e30 <crcu32+0x4b0>
80007384:	00000000 	nop
80007388:	00a01825 	move	v1,a1
8000738c:	306fffff 	andi	t7,v1,0xffff
80007390:	39e44002 	xori	a0,t7,0x4002
80007394:	01ee1026 	xor	v0,t7,t6
80007398:	0004c042 	srl	t8,a0,0x1
8000739c:	30590001 	andi	t9,v0,0x1
800073a0:	37078000 	ori	a3,t8,0x8000
800073a4:	000f4042 	srl	t0,t7,0x1
800073a8:	1320feaa 	beqz	t9,80006e54 <crcu32+0x4d4>
800073ac:	00000000 	nop
800073b0:	00e04025 	move	t0,a3
800073b4:	1000fea7 	b	80006e54 <crcu32+0x4d4>
800073b8:	00000000 	nop
800073bc:	00000000 	nop

800073c0 <crc16>:
crc16():
800073c0:	00042400 	sll	a0,a0,0x10
800073c4:	30a5ffff 	andi	a1,a1,0xffff
800073c8:	00043c03 	sra	a3,a0,0x10
800073cc:	38a24002 	xori	v0,a1,0x4002
800073d0:	00a71826 	xor	v1,a1,a3
800073d4:	00024042 	srl	t0,v0,0x1
800073d8:	30e600ff 	andi	a2,a3,0xff
800073dc:	30690001 	andi	t1,v1,0x1
800073e0:	00065042 	srl	t2,a2,0x1
800073e4:	350b8000 	ori	t3,t0,0x8000
800073e8:	00056042 	srl	t4,a1,0x1
800073ec:	1520009c 	bnez	t1,80007660 <crc16+0x2a0>
800073f0:	00000000 	nop
800073f4:	318dffff 	andi	t5,t4,0xffff
800073f8:	39ae4002 	xori	t6,t5,0x4002
800073fc:	01aa7826 	xor	t7,t5,t2
80007400:	000ec042 	srl	t8,t6,0x1
80007404:	31f90001 	andi	t9,t7,0x1
80007408:	000a2042 	srl	a0,t2,0x1
8000740c:	37058000 	ori	a1,t8,0x8000
80007410:	000d1042 	srl	v0,t5,0x1
80007414:	1720009d 	bnez	t9,8000768c <crc16+0x2cc>
80007418:	00000000 	nop
8000741c:	3048ffff 	andi	t0,v0,0xffff
80007420:	39034002 	xori	v1,t0,0x4002
80007424:	01043026 	xor	a2,t0,a0
80007428:	00034842 	srl	t1,v1,0x1
8000742c:	30ca0001 	andi	t2,a2,0x1
80007430:	00045842 	srl	t3,a0,0x1
80007434:	352c8000 	ori	t4,t1,0x8000
80007438:	00086842 	srl	t5,t0,0x1
8000743c:	1540009e 	bnez	t2,800076b8 <crc16+0x2f8>
80007440:	00000000 	nop
80007444:	31aeffff 	andi	t6,t5,0xffff
80007448:	39cf4002 	xori	t7,t6,0x4002
8000744c:	01cbc026 	xor	t8,t6,t3
80007450:	000fc842 	srl	t9,t7,0x1
80007454:	33040001 	andi	a0,t8,0x1
80007458:	000b4042 	srl	t0,t3,0x1
8000745c:	37258000 	ori	a1,t9,0x8000
80007460:	000e1042 	srl	v0,t6,0x1
80007464:	1480009f 	bnez	a0,800076e4 <crc16+0x324>
80007468:	00000000 	nop
8000746c:	3049ffff 	andi	t1,v0,0xffff
80007470:	39264002 	xori	a2,t1,0x4002
80007474:	01281826 	xor	v1,t1,t0
80007478:	00065042 	srl	t2,a2,0x1
8000747c:	306b0001 	andi	t3,v1,0x1
80007480:	00086042 	srl	t4,t0,0x1
80007484:	354d8000 	ori	t5,t2,0x8000
80007488:	00097042 	srl	t6,t1,0x1
8000748c:	156000a0 	bnez	t3,80007710 <crc16+0x350>
80007490:	00000000 	nop
80007494:	31cfffff 	andi	t7,t6,0xffff
80007498:	39f84002 	xori	t8,t7,0x4002
8000749c:	01ecc826 	xor	t9,t7,t4
800074a0:	00182042 	srl	a0,t8,0x1
800074a4:	33280001 	andi	t0,t9,0x1
800074a8:	000c4842 	srl	t1,t4,0x1
800074ac:	34828000 	ori	v0,a0,0x8000
800074b0:	000f2842 	srl	a1,t7,0x1
800074b4:	150000a1 	bnez	t0,8000773c <crc16+0x37c>
800074b8:	00000000 	nop
800074bc:	30a6ffff 	andi	a2,a1,0xffff
800074c0:	38c34002 	xori	v1,a2,0x4002
800074c4:	00c95026 	xor	t2,a2,t1
800074c8:	00035842 	srl	t3,v1,0x1
800074cc:	314c0001 	andi	t4,t2,0x1
800074d0:	356d8000 	ori	t5,t3,0x8000
800074d4:	00067042 	srl	t6,a2,0x1
800074d8:	158000a2 	bnez	t4,80007764 <crc16+0x3a4>
800074dc:	00000000 	nop
800074e0:	31cfffff 	andi	t7,t6,0xffff
800074e4:	39f84002 	xori	t8,t7,0x4002
800074e8:	0018c842 	srl	t9,t8,0x1
800074ec:	00092042 	srl	a0,t1,0x1
800074f0:	31e80001 	andi	t0,t7,0x1
800074f4:	37298000 	ori	t1,t9,0x8000
800074f8:	000f1042 	srl	v0,t7,0x1
800074fc:	150400a3 	bne	t0,a0,8000778c <crc16+0x3cc>
80007500:	00000000 	nop
80007504:	30e7ffff 	andi	a3,a3,0xffff
80007508:	3045ffff 	andi	a1,v0,0xffff
8000750c:	00073202 	srl	a2,a3,0x8
80007510:	38a34002 	xori	v1,a1,0x4002
80007514:	00a65026 	xor	t2,a1,a2
80007518:	00035842 	srl	t3,v1,0x1
8000751c:	314c0001 	andi	t4,t2,0x1
80007520:	00066842 	srl	t5,a2,0x1
80007524:	356e8000 	ori	t6,t3,0x8000
80007528:	00057842 	srl	t7,a1,0x1
8000752c:	158000a4 	bnez	t4,800077c0 <crc16+0x400>
80007530:	00000000 	nop
80007534:	31f8ffff 	andi	t8,t7,0xffff
80007538:	3b194002 	xori	t9,t8,0x4002
8000753c:	01b82026 	xor	a0,t5,t8
80007540:	00194042 	srl	t0,t9,0x1
80007544:	30890001 	andi	t1,a0,0x1
80007548:	000d3842 	srl	a3,t5,0x1
8000754c:	35028000 	ori	v0,t0,0x8000
80007550:	00182842 	srl	a1,t8,0x1
80007554:	152000a5 	bnez	t1,800077ec <crc16+0x42c>
80007558:	00000000 	nop
8000755c:	30a6ffff 	andi	a2,a1,0xffff
80007560:	38ca4002 	xori	t2,a2,0x4002
80007564:	00e61826 	xor	v1,a3,a2
80007568:	000a5842 	srl	t3,t2,0x1
8000756c:	306c0001 	andi	t4,v1,0x1
80007570:	00076842 	srl	t5,a3,0x1
80007574:	356e8000 	ori	t6,t3,0x8000
80007578:	00067842 	srl	t7,a2,0x1
8000757c:	158000a6 	bnez	t4,80007818 <crc16+0x458>
80007580:	00000000 	nop
80007584:	31f8ffff 	andi	t8,t7,0xffff
80007588:	3b194002 	xori	t9,t8,0x4002
8000758c:	030d2026 	xor	a0,t8,t5
80007590:	00194042 	srl	t0,t9,0x1
80007594:	30890001 	andi	t1,a0,0x1
80007598:	000d3842 	srl	a3,t5,0x1
8000759c:	35028000 	ori	v0,t0,0x8000
800075a0:	00182842 	srl	a1,t8,0x1
800075a4:	152000a7 	bnez	t1,80007844 <crc16+0x484>
800075a8:	00000000 	nop
800075ac:	30a6ffff 	andi	a2,a1,0xffff
800075b0:	38ca4002 	xori	t2,a2,0x4002
800075b4:	00c71826 	xor	v1,a2,a3
800075b8:	000a5842 	srl	t3,t2,0x1
800075bc:	306c0001 	andi	t4,v1,0x1
800075c0:	00076842 	srl	t5,a3,0x1
800075c4:	356e8000 	ori	t6,t3,0x8000
800075c8:	00067842 	srl	t7,a2,0x1
800075cc:	158000a8 	bnez	t4,80007870 <crc16+0x4b0>
800075d0:	00000000 	nop
800075d4:	31f8ffff 	andi	t8,t7,0xffff
800075d8:	3b194002 	xori	t9,t8,0x4002
800075dc:	030d4026 	xor	t0,t8,t5
800075e0:	00192042 	srl	a0,t9,0x1
800075e4:	31090001 	andi	t1,t0,0x1
800075e8:	000d3842 	srl	a3,t5,0x1
800075ec:	34858000 	ori	a1,a0,0x8000
800075f0:	00181042 	srl	v0,t8,0x1
800075f4:	152000a9 	bnez	t1,8000789c <crc16+0x4dc>
800075f8:	00000000 	nop
800075fc:	3046ffff 	andi	a2,v0,0xffff
80007600:	38ca4002 	xori	t2,a2,0x4002
80007604:	00c75826 	xor	t3,a2,a3
80007608:	000a1842 	srl	v1,t2,0x1
8000760c:	316c0001 	andi	t4,t3,0x1
80007610:	346d8000 	ori	t5,v1,0x8000
80007614:	00067042 	srl	t6,a2,0x1
80007618:	158000aa 	bnez	t4,800078c4 <crc16+0x504>
8000761c:	00000000 	nop
80007620:	31cfffff 	andi	t7,t6,0xffff
80007624:	39f84002 	xori	t8,t7,0x4002
80007628:	0018c842 	srl	t9,t8,0x1
8000762c:	00074042 	srl	t0,a3,0x1
80007630:	31e40001 	andi	a0,t7,0x1
80007634:	37278000 	ori	a3,t9,0x8000
80007638:	000f4842 	srl	t1,t7,0x1
8000763c:	14880002 	bne	a0,t0,80007648 <crc16+0x288>
80007640:	00000000 	nop
80007644:	01203825 	move	a3,t1
80007648:	30e2ffff 	andi	v0,a3,0xffff
8000764c:	03e00008 	jr	ra
80007650:	00000000 	nop
	...
80007660:	01606025 	move	t4,t3
80007664:	318dffff 	andi	t5,t4,0xffff
80007668:	39ae4002 	xori	t6,t5,0x4002
8000766c:	01aa7826 	xor	t7,t5,t2
80007670:	000ec042 	srl	t8,t6,0x1
80007674:	31f90001 	andi	t9,t7,0x1
80007678:	000a2042 	srl	a0,t2,0x1
8000767c:	37058000 	ori	a1,t8,0x8000
80007680:	000d1042 	srl	v0,t5,0x1
80007684:	1320ff65 	beqz	t9,8000741c <crc16+0x5c>
80007688:	00000000 	nop
8000768c:	00a01025 	move	v0,a1
80007690:	3048ffff 	andi	t0,v0,0xffff
80007694:	39034002 	xori	v1,t0,0x4002
80007698:	01043026 	xor	a2,t0,a0
8000769c:	00034842 	srl	t1,v1,0x1
800076a0:	30ca0001 	andi	t2,a2,0x1
800076a4:	00045842 	srl	t3,a0,0x1
800076a8:	352c8000 	ori	t4,t1,0x8000
800076ac:	00086842 	srl	t5,t0,0x1
800076b0:	1140ff64 	beqz	t2,80007444 <crc16+0x84>
800076b4:	00000000 	nop
800076b8:	01806825 	move	t5,t4
800076bc:	31aeffff 	andi	t6,t5,0xffff
800076c0:	39cf4002 	xori	t7,t6,0x4002
800076c4:	01cbc026 	xor	t8,t6,t3
800076c8:	000fc842 	srl	t9,t7,0x1
800076cc:	33040001 	andi	a0,t8,0x1
800076d0:	000b4042 	srl	t0,t3,0x1
800076d4:	37258000 	ori	a1,t9,0x8000
800076d8:	000e1042 	srl	v0,t6,0x1
800076dc:	1080ff63 	beqz	a0,8000746c <crc16+0xac>
800076e0:	00000000 	nop
800076e4:	00a01025 	move	v0,a1
800076e8:	3049ffff 	andi	t1,v0,0xffff
800076ec:	39264002 	xori	a2,t1,0x4002
800076f0:	01281826 	xor	v1,t1,t0
800076f4:	00065042 	srl	t2,a2,0x1
800076f8:	306b0001 	andi	t3,v1,0x1
800076fc:	00086042 	srl	t4,t0,0x1
80007700:	354d8000 	ori	t5,t2,0x8000
80007704:	00097042 	srl	t6,t1,0x1
80007708:	1160ff62 	beqz	t3,80007494 <crc16+0xd4>
8000770c:	00000000 	nop
80007710:	01a07025 	move	t6,t5
80007714:	31cfffff 	andi	t7,t6,0xffff
80007718:	39f84002 	xori	t8,t7,0x4002
8000771c:	01ecc826 	xor	t9,t7,t4
80007720:	00182042 	srl	a0,t8,0x1
80007724:	33280001 	andi	t0,t9,0x1
80007728:	000c4842 	srl	t1,t4,0x1
8000772c:	34828000 	ori	v0,a0,0x8000
80007730:	000f2842 	srl	a1,t7,0x1
80007734:	1100ff61 	beqz	t0,800074bc <crc16+0xfc>
80007738:	00000000 	nop
8000773c:	00402825 	move	a1,v0
80007740:	30a6ffff 	andi	a2,a1,0xffff
80007744:	38c34002 	xori	v1,a2,0x4002
80007748:	00c95026 	xor	t2,a2,t1
8000774c:	00035842 	srl	t3,v1,0x1
80007750:	314c0001 	andi	t4,t2,0x1
80007754:	356d8000 	ori	t5,t3,0x8000
80007758:	00067042 	srl	t6,a2,0x1
8000775c:	1180ff60 	beqz	t4,800074e0 <crc16+0x120>
80007760:	00000000 	nop
80007764:	01a07025 	move	t6,t5
80007768:	31cfffff 	andi	t7,t6,0xffff
8000776c:	39f84002 	xori	t8,t7,0x4002
80007770:	0018c842 	srl	t9,t8,0x1
80007774:	00092042 	srl	a0,t1,0x1
80007778:	31e80001 	andi	t0,t7,0x1
8000777c:	37298000 	ori	t1,t9,0x8000
80007780:	000f1042 	srl	v0,t7,0x1
80007784:	1104ff5f 	beq	t0,a0,80007504 <crc16+0x144>
80007788:	00000000 	nop
8000778c:	01201025 	move	v0,t1
80007790:	30e7ffff 	andi	a3,a3,0xffff
80007794:	3045ffff 	andi	a1,v0,0xffff
80007798:	00073202 	srl	a2,a3,0x8
8000779c:	38a34002 	xori	v1,a1,0x4002
800077a0:	00a65026 	xor	t2,a1,a2
800077a4:	00035842 	srl	t3,v1,0x1
800077a8:	314c0001 	andi	t4,t2,0x1
800077ac:	00066842 	srl	t5,a2,0x1
800077b0:	356e8000 	ori	t6,t3,0x8000
800077b4:	00057842 	srl	t7,a1,0x1
800077b8:	1180ff5e 	beqz	t4,80007534 <crc16+0x174>
800077bc:	00000000 	nop
800077c0:	01c07825 	move	t7,t6
800077c4:	31f8ffff 	andi	t8,t7,0xffff
800077c8:	3b194002 	xori	t9,t8,0x4002
800077cc:	01b82026 	xor	a0,t5,t8
800077d0:	00194042 	srl	t0,t9,0x1
800077d4:	30890001 	andi	t1,a0,0x1
800077d8:	000d3842 	srl	a3,t5,0x1
800077dc:	35028000 	ori	v0,t0,0x8000
800077e0:	00182842 	srl	a1,t8,0x1
800077e4:	1120ff5d 	beqz	t1,8000755c <crc16+0x19c>
800077e8:	00000000 	nop
800077ec:	00402825 	move	a1,v0
800077f0:	30a6ffff 	andi	a2,a1,0xffff
800077f4:	38ca4002 	xori	t2,a2,0x4002
800077f8:	00e61826 	xor	v1,a3,a2
800077fc:	000a5842 	srl	t3,t2,0x1
80007800:	306c0001 	andi	t4,v1,0x1
80007804:	00076842 	srl	t5,a3,0x1
80007808:	356e8000 	ori	t6,t3,0x8000
8000780c:	00067842 	srl	t7,a2,0x1
80007810:	1180ff5c 	beqz	t4,80007584 <crc16+0x1c4>
80007814:	00000000 	nop
80007818:	01c07825 	move	t7,t6
8000781c:	31f8ffff 	andi	t8,t7,0xffff
80007820:	3b194002 	xori	t9,t8,0x4002
80007824:	030d2026 	xor	a0,t8,t5
80007828:	00194042 	srl	t0,t9,0x1
8000782c:	30890001 	andi	t1,a0,0x1
80007830:	000d3842 	srl	a3,t5,0x1
80007834:	35028000 	ori	v0,t0,0x8000
80007838:	00182842 	srl	a1,t8,0x1
8000783c:	1120ff5b 	beqz	t1,800075ac <crc16+0x1ec>
80007840:	00000000 	nop
80007844:	00402825 	move	a1,v0
80007848:	30a6ffff 	andi	a2,a1,0xffff
8000784c:	38ca4002 	xori	t2,a2,0x4002
80007850:	00c71826 	xor	v1,a2,a3
80007854:	000a5842 	srl	t3,t2,0x1
80007858:	306c0001 	andi	t4,v1,0x1
8000785c:	00076842 	srl	t5,a3,0x1
80007860:	356e8000 	ori	t6,t3,0x8000
80007864:	00067842 	srl	t7,a2,0x1
80007868:	1180ff5a 	beqz	t4,800075d4 <crc16+0x214>
8000786c:	00000000 	nop
80007870:	01c07825 	move	t7,t6
80007874:	31f8ffff 	andi	t8,t7,0xffff
80007878:	3b194002 	xori	t9,t8,0x4002
8000787c:	030d4026 	xor	t0,t8,t5
80007880:	00192042 	srl	a0,t9,0x1
80007884:	31090001 	andi	t1,t0,0x1
80007888:	000d3842 	srl	a3,t5,0x1
8000788c:	34858000 	ori	a1,a0,0x8000
80007890:	00181042 	srl	v0,t8,0x1
80007894:	1120ff59 	beqz	t1,800075fc <crc16+0x23c>
80007898:	00000000 	nop
8000789c:	00a01025 	move	v0,a1
800078a0:	3046ffff 	andi	a2,v0,0xffff
800078a4:	38ca4002 	xori	t2,a2,0x4002
800078a8:	00c75826 	xor	t3,a2,a3
800078ac:	000a1842 	srl	v1,t2,0x1
800078b0:	316c0001 	andi	t4,t3,0x1
800078b4:	346d8000 	ori	t5,v1,0x8000
800078b8:	00067042 	srl	t6,a2,0x1
800078bc:	1180ff58 	beqz	t4,80007620 <crc16+0x260>
800078c0:	00000000 	nop
800078c4:	01a07025 	move	t6,t5
800078c8:	1000ff55 	b	80007620 <crc16+0x260>
800078cc:	00000000 	nop

800078d0 <check_data_types>:
check_data_types():
800078d0:	00001025 	move	v0,zero
800078d4:	03e00008 	jr	ra
800078d8:	00000000 	nop
800078dc:	00000000 	nop

800078e0 <core_bench_state>:
core_bench_state():
800078e0:	27bdff78 	addiu	sp,sp,-136
800078e4:	00071c00 	sll	v1,a3,0x10
800078e8:	afa5008c 	sw	a1,140(sp)
800078ec:	00063400 	sll	a2,a2,0x10
800078f0:	afbf0084 	sw	ra,132(sp)
800078f4:	00033c03 	sra	a3,v1,0x10
800078f8:	afbe0080 	sw	s8,128(sp)
800078fc:	00063403 	sra	a2,a2,0x10
80007900:	afb7007c 	sw	s7,124(sp)
80007904:	afb60078 	sw	s6,120(sp)
80007908:	afb50074 	sw	s5,116(sp)
8000790c:	afb40070 	sw	s4,112(sp)
80007910:	afb3006c 	sw	s3,108(sp)
80007914:	afb20068 	sw	s2,104(sp)
80007918:	afb10064 	sw	s1,100(sp)
8000791c:	afb00060 	sw	s0,96(sp)
80007920:	8fa2008c 	lw	v0,140(sp)
80007924:	87bf0098 	lh	ra,152(sp)
80007928:	97a5009c 	lhu	a1,156(sp)
8000792c:	afa40088 	sw	a0,136(sp)
80007930:	afa70050 	sw	a3,80(sp)
80007934:	afa00010 	sw	zero,16(sp)
80007938:	afa00030 	sw	zero,48(sp)
8000793c:	afa00014 	sw	zero,20(sp)
80007940:	afa00034 	sw	zero,52(sp)
80007944:	afa00018 	sw	zero,24(sp)
80007948:	afa00038 	sw	zero,56(sp)
8000794c:	afa0001c 	sw	zero,28(sp)
80007950:	afa0003c 	sw	zero,60(sp)
80007954:	afa00020 	sw	zero,32(sp)
80007958:	afa00040 	sw	zero,64(sp)
8000795c:	afa00024 	sw	zero,36(sp)
80007960:	afa00044 	sw	zero,68(sp)
80007964:	afa00028 	sw	zero,40(sp)
80007968:	afa00048 	sw	zero,72(sp)
8000796c:	90420000 	lbu	v0,0(v0)
80007970:	afa0002c 	sw	zero,44(sp)
80007974:	afa0004c 	sw	zero,76(sp)
80007978:	1040016c 	beqz	v0,80007f2c <core_bench_state+0x64c>
8000797c:	00000000 	nop
80007980:	00004825 	move	t1,zero
80007984:	8fa4008c 	lw	a0,140(sp)
80007988:	00004025 	move	t0,zero
8000798c:	afa20054 	sw	v0,84(sp)
80007990:	240a002c 	li	t2,44
80007994:	afa50058 	sw	a1,88(sp)
80007998:	00401825 	move	v1,v0
8000799c:	00006025 	move	t4,zero
800079a0:	00007825 	move	t7,zero
800079a4:	00003825 	move	a3,zero
800079a8:	0000a025 	move	s4,zero
800079ac:	00009825 	move	s3,zero
800079b0:	0000c025 	move	t8,zero
800079b4:	00007025 	move	t6,zero
800079b8:	0000b025 	move	s6,zero
800079bc:	00008825 	move	s1,zero
800079c0:	0000c825 	move	t9,zero
800079c4:	00005825 	move	t3,zero
800079c8:	00006825 	move	t5,zero
800079cc:	27be0010 	addiu	s8,sp,16
800079d0:	2410002e 	li	s0,46
800079d4:	2412002b 	li	s2,43
800079d8:	2415002d 	li	s5,45
800079dc:	24170045 	li	s7,69
800079e0:	01001025 	move	v0,t0
800079e4:	01202825 	move	a1,t1
800079e8:	106a0067 	beq	v1,t2,80007b88 <core_bench_state+0x2a8>
800079ec:	00000000 	nop
800079f0:	246bffd0 	addiu	t3,v1,-48
800079f4:	316900ff 	andi	t1,t3,0xff
800079f8:	2d28000a 	sltiu	t0,t1,10
800079fc:	15000038 	bnez	t0,80007ae0 <core_bench_state+0x200>
80007a00:	00000000 	nop
80007a04:	10720066 	beq	v1,s2,80007ba0 <core_bench_state+0x2c0>
80007a08:	00000000 	nop
80007a0c:	10750064 	beq	v1,s5,80007ba0 <core_bench_state+0x2c0>
80007a10:	00000000 	nop
80007a14:	10700076 	beq	v1,s0,80007bf0 <core_bench_state+0x310>
80007a18:	00000000 	nop
80007a1c:	24090001 	li	t1,1
80007a20:	90830001 	lbu	v1,1(a0)
80007a24:	24880001 	addiu	t0,a0,1
80007a28:	00092080 	sll	a0,t1,0x2
80007a2c:	258c0001 	addiu	t4,t4,1
80007a30:	03c44821 	addu	t1,s8,a0
80007a34:	24e70001 	addiu	a3,a3,1
80007a38:	240b0001 	li	t3,1
80007a3c:	8d240020 	lw	a0,32(t1)
80007a40:	240d0001 	li	t5,1
80007a44:	24840001 	addiu	a0,a0,1
80007a48:	ad240020 	sw	a0,32(t1)
80007a4c:	1460004b 	bnez	v1,80007b7c <core_bench_state+0x29c>
80007a50:	00000000 	nop
80007a54:	00405025 	move	t2,v0
80007a58:	8fa20054 	lw	v0,84(sp)
80007a5c:	00a08025 	move	s0,a1
80007a60:	8fa50058 	lw	a1,88(sp)
80007a64:	15a002e7 	bnez	t5,80008604 <core_bench_state+0xd24>
80007a68:	00000000 	nop
80007a6c:	156002e8 	bnez	t3,80008610 <core_bench_state+0xd30>
80007a70:	00000000 	nop
80007a74:	11400002 	beqz	t2,80007a80 <core_bench_state+0x1a0>
80007a78:	00000000 	nop
80007a7c:	afaf0018 	sw	t7,24(sp)
80007a80:	12000002 	beqz	s0,80007a8c <core_bench_state+0x1ac>
80007a84:	00000000 	nop
80007a88:	afb40020 	sw	s4,32(sp)
80007a8c:	13200002 	beqz	t9,80007a98 <core_bench_state+0x1b8>
80007a90:	00000000 	nop
80007a94:	afb30024 	sw	s3,36(sp)
80007a98:	12200002 	beqz	s1,80007aa4 <core_bench_state+0x1c4>
80007a9c:	00000000 	nop
80007aa0:	afb8001c 	sw	t8,28(sp)
80007aa4:	12c00002 	beqz	s6,80007ab0 <core_bench_state+0x1d0>
80007aa8:	00000000 	nop
80007aac:	afae0028 	sw	t6,40(sp)
80007ab0:	8faf008c 	lw	t7,140(sp)
80007ab4:	8fb20088 	lw	s2,136(sp)
80007ab8:	00000000 	nop
80007abc:	01f22021 	addu	a0,t7,s2
80007ac0:	01e4a82b 	sltu	s5,t7,a0
80007ac4:	afb50054 	sw	s5,84(sp)
80007ac8:	16a0011f 	bnez	s5,80007f48 <core_bench_state+0x668>
80007acc:	00000000 	nop
80007ad0:	1000012f 	b	80007f90 <core_bench_state+0x6b0>
80007ad4:	00000000 	nop
	...
80007ae0:	90830001 	lbu	v1,1(a0)
80007ae4:	24e70001 	addiu	a3,a3,1
80007ae8:	24840001 	addiu	a0,a0,1
80007aec:	10600018 	beqz	v1,80007b50 <core_bench_state+0x270>
80007af0:	00000000 	nop
80007af4:	106a0010 	beq	v1,t2,80007b38 <core_bench_state+0x258>
80007af8:	00000000 	nop
80007afc:	246bffd0 	addiu	t3,v1,-48
80007b00:	107000bf 	beq	v1,s0,80007e00 <core_bench_state+0x520>
80007b04:	00000000 	nop
80007b08:	316300ff 	andi	v1,t3,0xff
80007b0c:	2c69000a 	sltiu	t1,v1,10
80007b10:	24880001 	addiu	t0,a0,1
80007b14:	112000b2 	beqz	t1,80007de0 <core_bench_state+0x500>
80007b18:	00000000 	nop
80007b1c:	90830001 	lbu	v1,1(a0)
80007b20:	01002025 	move	a0,t0
80007b24:	106000e6 	beqz	v1,80007ec0 <core_bench_state+0x5e0>
80007b28:	00000000 	nop
80007b2c:	146afff3 	bne	v1,t2,80007afc <core_bench_state+0x21c>
80007b30:	00000000 	nop
80007b34:	01002025 	move	a0,t0
80007b38:	240b0001 	li	t3,1
80007b3c:	24090004 	li	t1,4
80007b40:	24880001 	addiu	t0,a0,1
80007b44:	90830001 	lbu	v1,1(a0)
80007b48:	10000004 	b	80007b5c <core_bench_state+0x27c>
80007b4c:	00000000 	nop
80007b50:	240b0001 	li	t3,1
80007b54:	24090004 	li	t1,4
80007b58:	00804025 	move	t0,a0
80007b5c:	00092080 	sll	a0,t1,0x2
80007b60:	03c44821 	addu	t1,s8,a0
80007b64:	8d240020 	lw	a0,32(t1)
80007b68:	00000000 	nop
80007b6c:	24840001 	addiu	a0,a0,1
80007b70:	ad240020 	sw	a0,32(t1)
80007b74:	1060ffb7 	beqz	v1,80007a54 <core_bench_state+0x174>
80007b78:	00000000 	nop
80007b7c:	01002025 	move	a0,t0
80007b80:	146aff9b 	bne	v1,t2,800079f0 <core_bench_state+0x110>
80007b84:	00000000 	nop
80007b88:	00004825 	move	t1,zero
80007b8c:	1000ffec 	b	80007b40 <core_bench_state+0x260>
80007b90:	00000000 	nop
	...
80007ba0:	90830001 	lbu	v1,1(a0)
80007ba4:	24e70001 	addiu	a3,a3,1
80007ba8:	24880001 	addiu	t0,a0,1
80007bac:	106000b4 	beqz	v1,80007e80 <core_bench_state+0x5a0>
80007bb0:	00000000 	nop
80007bb4:	106a00b6 	beq	v1,t2,80007e90 <core_bench_state+0x5b0>
80007bb8:	00000000 	nop
80007bbc:	2462ffd0 	addiu	v0,v1,-48
80007bc0:	304b00ff 	andi	t3,v0,0xff
80007bc4:	2d69000a 	sltiu	t1,t3,10
80007bc8:	11200025 	beqz	t1,80007c60 <core_bench_state+0x380>
80007bcc:	00000000 	nop
80007bd0:	91030001 	lbu	v1,1(t0)
80007bd4:	25ef0001 	addiu	t7,t7,1
80007bd8:	25040001 	addiu	a0,t0,1
80007bdc:	106000b6 	beqz	v1,80007eb8 <core_bench_state+0x5d8>
80007be0:	00000000 	nop
80007be4:	24020001 	li	v0,1
80007be8:	1000ffc2 	b	80007af4 <core_bench_state+0x214>
80007bec:	00000000 	nop
80007bf0:	90830001 	lbu	v1,1(a0)
80007bf4:	24e70001 	addiu	a3,a3,1
80007bf8:	24840001 	addiu	a0,a0,1
80007bfc:	106000a9 	beqz	v1,80007ea4 <core_bench_state+0x5c4>
80007c00:	00000000 	nop
80007c04:	106a0087 	beq	v1,t2,80007e24 <core_bench_state+0x544>
80007c08:	00000000 	nop
80007c0c:	2468ffd0 	addiu	t0,v1,-48
80007c10:	306b00df 	andi	t3,v1,0xdf
80007c14:	310300ff 	andi	v1,t0,0xff
80007c18:	1177001d 	beq	t3,s7,80007c90 <core_bench_state+0x3b0>
80007c1c:	00000000 	nop
80007c20:	2c69000a 	sltiu	t1,v1,10
80007c24:	11200086 	beqz	t1,80007e40 <core_bench_state+0x560>
80007c28:	00000000 	nop
80007c2c:	90830001 	lbu	v1,1(a0)
80007c30:	24880001 	addiu	t0,a0,1
80007c34:	01002025 	move	a0,t0
80007c38:	10600278 	beqz	v1,8000861c <core_bench_state+0xd3c>
80007c3c:	00000000 	nop
80007c40:	146afff2 	bne	v1,t2,80007c0c <core_bench_state+0x32c>
80007c44:	00000000 	nop
80007c48:	01002025 	move	a0,t0
80007c4c:	240b0001 	li	t3,1
80007c50:	24090005 	li	t1,5
80007c54:	1000ffba 	b	80007b40 <core_bench_state+0x260>
80007c58:	00000000 	nop
80007c5c:	00000000 	nop
80007c60:	1070007f 	beq	v1,s0,80007e60 <core_bench_state+0x580>
80007c64:	00000000 	nop
80007c68:	25ef0001 	addiu	t7,t7,1
80007c6c:	90830002 	lbu	v1,2(a0)
80007c70:	25080001 	addiu	t0,t0,1
80007c74:	24020001 	li	v0,1
80007c78:	240b0001 	li	t3,1
80007c7c:	24090001 	li	t1,1
80007c80:	1000ffb6 	b	80007b5c <core_bench_state+0x27c>
80007c84:	00000000 	nop
	...
80007c90:	90830001 	lbu	v1,1(a0)
80007c94:	26730001 	addiu	s3,s3,1
80007c98:	24880001 	addiu	t0,a0,1
80007c9c:	10600099 	beqz	v1,80007f04 <core_bench_state+0x624>
80007ca0:	00000000 	nop
80007ca4:	106a0270 	beq	v1,t2,80008668 <core_bench_state+0xd88>
80007ca8:	00000000 	nop
80007cac:	1072000c 	beq	v1,s2,80007ce0 <core_bench_state+0x400>
80007cb0:	00000000 	nop
80007cb4:	1075000a 	beq	v1,s5,80007ce0 <core_bench_state+0x400>
80007cb8:	00000000 	nop
80007cbc:	27180001 	addiu	t8,t8,1
80007cc0:	90830002 	lbu	v1,2(a0)
80007cc4:	24880002 	addiu	t0,a0,2
80007cc8:	24110001 	li	s1,1
80007ccc:	24190001 	li	t9,1
80007cd0:	240b0001 	li	t3,1
80007cd4:	24090001 	li	t1,1
80007cd8:	1000ffa0 	b	80007b5c <core_bench_state+0x27c>
80007cdc:	00000000 	nop
80007ce0:	90830002 	lbu	v1,2(a0)
80007ce4:	27180001 	addiu	t8,t8,1
80007ce8:	24880002 	addiu	t0,a0,2
80007cec:	1060007f 	beqz	v1,80007eec <core_bench_state+0x60c>
80007cf0:	00000000 	nop
80007cf4:	106a0255 	beq	v1,t2,8000864c <core_bench_state+0xd6c>
80007cf8:	00000000 	nop
80007cfc:	2471ffd0 	addiu	s1,v1,-48
80007d00:	323600ff 	andi	s6,s1,0xff
80007d04:	2ed9000a 	sltiu	t9,s6,10
80007d08:	1320001d 	beqz	t9,80007d80 <core_bench_state+0x4a0>
80007d0c:	00000000 	nop
80007d10:	90830003 	lbu	v1,3(a0)
80007d14:	25ce0001 	addiu	t6,t6,1
80007d18:	24880003 	addiu	t0,a0,3
80007d1c:	1060006c 	beqz	v1,80007ed0 <core_bench_state+0x5f0>
80007d20:	00000000 	nop
80007d24:	01002025 	move	a0,t0
80007d28:	106a0240 	beq	v1,t2,8000862c <core_bench_state+0xd4c>
80007d2c:	00000000 	nop
80007d30:	246bffd0 	addiu	t3,v1,-48
80007d34:	316300ff 	andi	v1,t3,0xff
80007d38:	2c69000a 	sltiu	t1,v1,10
80007d3c:	1120001c 	beqz	t1,80007db0 <core_bench_state+0x4d0>
80007d40:	00000000 	nop
80007d44:	25080001 	addiu	t0,t0,1
80007d48:	91030000 	lbu	v1,0(t0)
80007d4c:	01002025 	move	a0,t0
80007d50:	1060005f 	beqz	v1,80007ed0 <core_bench_state+0x5f0>
80007d54:	00000000 	nop
80007d58:	146afff5 	bne	v1,t2,80007d30 <core_bench_state+0x450>
80007d5c:	00000000 	nop
80007d60:	01002025 	move	a0,t0
80007d64:	24160001 	li	s6,1
80007d68:	24110001 	li	s1,1
80007d6c:	24190001 	li	t9,1
80007d70:	240b0001 	li	t3,1
80007d74:	24090007 	li	t1,7
80007d78:	1000ff71 	b	80007b40 <core_bench_state+0x260>
80007d7c:	00000000 	nop
80007d80:	25ce0001 	addiu	t6,t6,1
80007d84:	90830003 	lbu	v1,3(a0)
80007d88:	24880003 	addiu	t0,a0,3
80007d8c:	24160001 	li	s6,1
80007d90:	24110001 	li	s1,1
80007d94:	24190001 	li	t9,1
80007d98:	240b0001 	li	t3,1
80007d9c:	24090001 	li	t1,1
80007da0:	1000ff6e 	b	80007b5c <core_bench_state+0x27c>
80007da4:	00000000 	nop
	...
80007db0:	258c0001 	addiu	t4,t4,1
80007db4:	90830001 	lbu	v1,1(a0)
80007db8:	25080001 	addiu	t0,t0,1
80007dbc:	24160001 	li	s6,1
80007dc0:	24110001 	li	s1,1
80007dc4:	24190001 	li	t9,1
80007dc8:	240b0001 	li	t3,1
80007dcc:	240d0001 	li	t5,1
80007dd0:	24090001 	li	t1,1
80007dd4:	1000ff61 	b	80007b5c <core_bench_state+0x27c>
80007dd8:	00000000 	nop
80007ddc:	00000000 	nop
80007de0:	26940001 	addiu	s4,s4,1
80007de4:	90830001 	lbu	v1,1(a0)
80007de8:	24880001 	addiu	t0,a0,1
80007dec:	24050001 	li	a1,1
80007df0:	240b0001 	li	t3,1
80007df4:	24090001 	li	t1,1
80007df8:	1000ff58 	b	80007b5c <core_bench_state+0x27c>
80007dfc:	00000000 	nop
80007e00:	90830001 	lbu	v1,1(a0)
80007e04:	26940001 	addiu	s4,s4,1
80007e08:	24880001 	addiu	t0,a0,1
80007e0c:	10600042 	beqz	v1,80007f18 <core_bench_state+0x638>
80007e10:	00000000 	nop
80007e14:	01002025 	move	a0,t0
80007e18:	24050001 	li	a1,1
80007e1c:	146aff7b 	bne	v1,t2,80007c0c <core_bench_state+0x32c>
80007e20:	00000000 	nop
80007e24:	240b0001 	li	t3,1
80007e28:	24090005 	li	t1,5
80007e2c:	1000ff44 	b	80007b40 <core_bench_state+0x260>
80007e30:	00000000 	nop
	...
80007e40:	26730001 	addiu	s3,s3,1
80007e44:	90830001 	lbu	v1,1(a0)
80007e48:	24880001 	addiu	t0,a0,1
80007e4c:	24190001 	li	t9,1
80007e50:	240b0001 	li	t3,1
80007e54:	24090001 	li	t1,1
80007e58:	1000ff40 	b	80007b5c <core_bench_state+0x27c>
80007e5c:	00000000 	nop
80007e60:	91030001 	lbu	v1,1(t0)
80007e64:	25ef0001 	addiu	t7,t7,1
80007e68:	25040001 	addiu	a0,t0,1
80007e6c:	106001d6 	beqz	v1,800085c8 <core_bench_state+0xce8>
80007e70:	00000000 	nop
80007e74:	24020001 	li	v0,1
80007e78:	1000ff62 	b	80007c04 <core_bench_state+0x324>
80007e7c:	00000000 	nop
80007e80:	240b0001 	li	t3,1
80007e84:	24090002 	li	t1,2
80007e88:	1000ff34 	b	80007b5c <core_bench_state+0x27c>
80007e8c:	00000000 	nop
80007e90:	01002025 	move	a0,t0
80007e94:	240b0001 	li	t3,1
80007e98:	24090002 	li	t1,2
80007e9c:	1000ff28 	b	80007b40 <core_bench_state+0x260>
80007ea0:	00000000 	nop
80007ea4:	00804025 	move	t0,a0
80007ea8:	240b0001 	li	t3,1
80007eac:	24090005 	li	t1,5
80007eb0:	1000ff2a 	b	80007b5c <core_bench_state+0x27c>
80007eb4:	00000000 	nop
80007eb8:	24020001 	li	v0,1
80007ebc:	00804025 	move	t0,a0
80007ec0:	240b0001 	li	t3,1
80007ec4:	24090004 	li	t1,4
80007ec8:	1000ff24 	b	80007b5c <core_bench_state+0x27c>
80007ecc:	00000000 	nop
80007ed0:	24160001 	li	s6,1
80007ed4:	24110001 	li	s1,1
80007ed8:	24190001 	li	t9,1
80007edc:	240b0001 	li	t3,1
80007ee0:	24090007 	li	t1,7
80007ee4:	1000ff1d 	b	80007b5c <core_bench_state+0x27c>
80007ee8:	00000000 	nop
80007eec:	24110001 	li	s1,1
80007ef0:	24190001 	li	t9,1
80007ef4:	240b0001 	li	t3,1
80007ef8:	24090006 	li	t1,6
80007efc:	1000ff17 	b	80007b5c <core_bench_state+0x27c>
80007f00:	00000000 	nop
80007f04:	24190001 	li	t9,1
80007f08:	240b0001 	li	t3,1
80007f0c:	24090003 	li	t1,3
80007f10:	1000ff12 	b	80007b5c <core_bench_state+0x27c>
80007f14:	00000000 	nop
80007f18:	24050001 	li	a1,1
80007f1c:	240b0001 	li	t3,1
80007f20:	24090005 	li	t1,5
80007f24:	1000ff0d 	b	80007b5c <core_bench_state+0x27c>
80007f28:	00000000 	nop
80007f2c:	8fa8008c 	lw	t0,140(sp)
80007f30:	27be0010 	addiu	s8,sp,16
80007f34:	01042021 	addu	a0,t0,a0
80007f38:	0104482b 	sltu	t1,t0,a0
80007f3c:	afa90054 	sw	t1,84(sp)
80007f40:	1120006d 	beqz	t1,800080f8 <core_bench_state+0x818>
80007f44:	00000000 	nop
80007f48:	8fa2008c 	lw	v0,140(sp)
80007f4c:	2417002c 	li	s7,44
80007f50:	90580000 	lbu	t8,0(v0)
80007f54:	00000000 	nop
80007f58:	0306a026 	xor	s4,t8,a2
80007f5c:	13170002 	beq	t8,s7,80007f68 <core_bench_state+0x688>
80007f60:	00000000 	nop
80007f64:	a0540000 	sb	s4,0(v0)
80007f68:	005f1021 	addu	v0,v0,ra
80007f6c:	0044982b 	sltu	s3,v0,a0
80007f70:	1660fff7 	bnez	s3,80007f50 <core_bench_state+0x670>
80007f74:	00000000 	nop
80007f78:	8fa6008c 	lw	a2,140(sp)
80007f7c:	00000000 	nop
80007f80:	90c20000 	lbu	v0,0(a2)
80007f84:	00000000 	nop
80007f88:	1040004e 	beqz	v0,800080c4 <core_bench_state+0x7e4>
80007f8c:	00000000 	nop
80007f90:	00001825 	move	v1,zero
80007f94:	8fa90010 	lw	t1,16(sp)
80007f98:	8fb80014 	lw	t8,20(sp)
80007f9c:	0000a025 	move	s4,zero
80007fa0:	8fad0018 	lw	t5,24(sp)
80007fa4:	0000c825 	move	t9,zero
80007fa8:	8fb20020 	lw	s2,32(sp)
80007fac:	00007025 	move	t6,zero
80007fb0:	8fb10024 	lw	s1,36(sp)
80007fb4:	0000b825 	move	s7,zero
80007fb8:	8fac001c 	lw	t4,28(sp)
80007fbc:	00005025 	move	t2,zero
80007fc0:	8fab0028 	lw	t3,40(sp)
80007fc4:	00003825 	move	a3,zero
80007fc8:	8fa6008c 	lw	a2,140(sp)
80007fcc:	2408002c 	li	t0,44
80007fd0:	240f002e 	li	t7,46
80007fd4:	afbf005c 	sw	ra,92(sp)
80007fd8:	2410002b 	li	s0,43
80007fdc:	afa40058 	sw	a0,88(sp)
80007fe0:	2413002d 	li	s3,45
80007fe4:	2416ffdf 	li	s6,-33
80007fe8:	24150045 	li	s5,69
80007fec:	0060f825 	move	ra,v1
80007ff0:	1048007c 	beq	v0,t0,800081e4 <core_bench_state+0x904>
80007ff4:	00000000 	nop
80007ff8:	2444ffd0 	addiu	a0,v0,-48
80007ffc:	2c8a000a 	sltiu	t2,a0,10
80008000:	15400059 	bnez	t2,80008168 <core_bench_state+0x888>
80008004:	00000000 	nop
80008008:	1050007d 	beq	v0,s0,80008200 <core_bench_state+0x920>
8000800c:	00000000 	nop
80008010:	1053007b 	beq	v0,s3,80008200 <core_bench_state+0x920>
80008014:	00000000 	nop
80008018:	104f00c1 	beq	v0,t7,80008320 <core_bench_state+0xa40>
8000801c:	00000000 	nop
80008020:	24040001 	li	a0,1
80008024:	90c20001 	lbu	v0,1(a2)
80008028:	27180001 	addiu	t8,t8,1
8000802c:	00041880 	sll	v1,a0,0x2
80008030:	25290001 	addiu	t1,t1,1
80008034:	03c32021 	addu	a0,s8,v1
80008038:	24c60001 	addiu	a2,a2,1
8000803c:	240a0001 	li	t2,1
80008040:	8c830020 	lw	v1,32(a0)
80008044:	24070001 	li	a3,1
80008048:	24630001 	addiu	v1,v1,1
8000804c:	ac830020 	sw	v1,32(a0)
80008050:	1440ffe7 	bnez	v0,80007ff0 <core_bench_state+0x710>
80008054:	00000000 	nop
80008058:	03e04025 	move	t0,ra
8000805c:	8fa40058 	lw	a0,88(sp)
80008060:	8fbf005c 	lw	ra,92(sp)
80008064:	14e00164 	bnez	a3,800085f8 <core_bench_state+0xd18>
80008068:	00000000 	nop
8000806c:	11400002 	beqz	t2,80008078 <core_bench_state+0x798>
80008070:	00000000 	nop
80008074:	afa90010 	sw	t1,16(sp)
80008078:	12e00002 	beqz	s7,80008084 <core_bench_state+0x7a4>
8000807c:	00000000 	nop
80008080:	afad0018 	sw	t5,24(sp)
80008084:	11000002 	beqz	t0,80008090 <core_bench_state+0x7b0>
80008088:	00000000 	nop
8000808c:	afb20020 	sw	s2,32(sp)
80008090:	11c00002 	beqz	t6,8000809c <core_bench_state+0x7bc>
80008094:	00000000 	nop
80008098:	afb10024 	sw	s1,36(sp)
8000809c:	13200002 	beqz	t9,800080a8 <core_bench_state+0x7c8>
800080a0:	00000000 	nop
800080a4:	afac001c 	sw	t4,28(sp)
800080a8:	12800002 	beqz	s4,800080b4 <core_bench_state+0x7d4>
800080ac:	00000000 	nop
800080b0:	afab0028 	sw	t3,40(sp)
800080b4:	8fac0054 	lw	t4,84(sp)
800080b8:	00000000 	nop
800080bc:	1180000e 	beqz	t4,800080f8 <core_bench_state+0x818>
800080c0:	00000000 	nop
800080c4:	8fad008c 	lw	t5,140(sp)
800080c8:	2410002c 	li	s0,44
800080cc:	8fb30050 	lw	s3,80(sp)
800080d0:	91b60000 	lbu	s6,0(t5)
800080d4:	00000000 	nop
800080d8:	02d3a826 	xor	s5,s6,s3
800080dc:	12d00002 	beq	s6,s0,800080e8 <core_bench_state+0x808>
800080e0:	00000000 	nop
800080e4:	a1b50000 	sb	s5,0(t5)
800080e8:	01bf6821 	addu	t5,t5,ra
800080ec:	01a4b82b 	sltu	s7,t5,a0
800080f0:	16e0fff7 	bnez	s7,800080d0 <core_bench_state+0x7f0>
800080f4:	00000000 	nop
800080f8:	27b40030 	addiu	s4,sp,48
800080fc:	27b20050 	addiu	s2,sp,80
80008100:	03c08825 	move	s1,s8
80008104:	8e840000 	lw	a0,0(s4)
80008108:	26310004 	addiu	s1,s1,4
8000810c:	26940004 	addiu	s4,s4,4
80008110:	0c001a60 	jal	80006980 <crcu32>
80008114:	00000000 	nop
80008118:	8e24fffc 	lw	a0,-4(s1)
8000811c:	00402825 	move	a1,v0
80008120:	0c001a60 	jal	80006980 <crcu32>
80008124:	00000000 	nop
80008128:	00402825 	move	a1,v0
8000812c:	1692fff5 	bne	s4,s2,80008104 <core_bench_state+0x824>
80008130:	00000000 	nop
80008134:	8fbf0084 	lw	ra,132(sp)
80008138:	8fbe0080 	lw	s8,128(sp)
8000813c:	8fb7007c 	lw	s7,124(sp)
80008140:	8fb60078 	lw	s6,120(sp)
80008144:	8fb50074 	lw	s5,116(sp)
80008148:	8fb40070 	lw	s4,112(sp)
8000814c:	8fb3006c 	lw	s3,108(sp)
80008150:	8fb20068 	lw	s2,104(sp)
80008154:	8fb10064 	lw	s1,100(sp)
80008158:	8fb00060 	lw	s0,96(sp)
8000815c:	27bd0088 	addiu	sp,sp,136
80008160:	03e00008 	jr	ra
80008164:	00000000 	nop
80008168:	90c20001 	lbu	v0,1(a2)
8000816c:	25290001 	addiu	t1,t1,1
80008170:	24c30001 	addiu	v1,a2,1
80008174:	1040000e 	beqz	v0,800081b0 <core_bench_state+0x8d0>
80008178:	00000000 	nop
8000817c:	10480033 	beq	v0,t0,8000824c <core_bench_state+0x96c>
80008180:	00000000 	nop
80008184:	2446ffd0 	addiu	a2,v0,-48
80008188:	104f0049 	beq	v0,t7,800082b0 <core_bench_state+0x9d0>
8000818c:	00000000 	nop
80008190:	2cc2000a 	sltiu	v0,a2,10
80008194:	1040003e 	beqz	v0,80008290 <core_bench_state+0x9b0>
80008198:	00000000 	nop
8000819c:	24630001 	addiu	v1,v1,1
800081a0:	90620000 	lbu	v0,0(v1)
800081a4:	00000000 	nop
800081a8:	1440fff4 	bnez	v0,8000817c <core_bench_state+0x89c>
800081ac:	00000000 	nop
800081b0:	240a0001 	li	t2,1
800081b4:	24040004 	li	a0,4
800081b8:	00603025 	move	a2,v1
800081bc:	00041880 	sll	v1,a0,0x2
800081c0:	03c32021 	addu	a0,s8,v1
800081c4:	8c830020 	lw	v1,32(a0)
800081c8:	00000000 	nop
800081cc:	24630001 	addiu	v1,v1,1
800081d0:	ac830020 	sw	v1,32(a0)
800081d4:	1040ffa0 	beqz	v0,80008058 <core_bench_state+0x778>
800081d8:	00000000 	nop
800081dc:	1448ff86 	bne	v0,t0,80007ff8 <core_bench_state+0x718>
800081e0:	00000000 	nop
800081e4:	00c01825 	move	v1,a2
800081e8:	00002025 	move	a0,zero
800081ec:	10000048 	b	80008310 <core_bench_state+0xa30>
800081f0:	00000000 	nop
	...
80008200:	90c20001 	lbu	v0,1(a2)
80008204:	25290001 	addiu	t1,t1,1
80008208:	24c30001 	addiu	v1,a2,1
8000820c:	104000c7 	beqz	v0,8000852c <core_bench_state+0xc4c>
80008210:	00000000 	nop
80008214:	104800d0 	beq	v0,t0,80008558 <core_bench_state+0xc78>
80008218:	00000000 	nop
8000821c:	2457ffd0 	addiu	s7,v0,-48
80008220:	2ee4000a 	sltiu	a0,s7,10
80008224:	1080000e 	beqz	a0,80008260 <core_bench_state+0x980>
80008228:	00000000 	nop
8000822c:	90620001 	lbu	v0,1(v1)
80008230:	25ad0001 	addiu	t5,t5,1
80008234:	24630001 	addiu	v1,v1,1
80008238:	104000c1 	beqz	v0,80008540 <core_bench_state+0xc60>
8000823c:	00000000 	nop
80008240:	24170001 	li	s7,1
80008244:	1448ffcf 	bne	v0,t0,80008184 <core_bench_state+0x8a4>
80008248:	00000000 	nop
8000824c:	240a0001 	li	t2,1
80008250:	24040004 	li	a0,4
80008254:	1000002e 	b	80008310 <core_bench_state+0xa30>
80008258:	00000000 	nop
8000825c:	00000000 	nop
80008260:	104f009b 	beq	v0,t7,800084d0 <core_bench_state+0xbf0>
80008264:	00000000 	nop
80008268:	90c20002 	lbu	v0,2(a2)
8000826c:	25ad0001 	addiu	t5,t5,1
80008270:	24660001 	addiu	a2,v1,1
80008274:	24170001 	li	s7,1
80008278:	240a0001 	li	t2,1
8000827c:	24040001 	li	a0,1
80008280:	1000ffce 	b	800081bc <core_bench_state+0x8dc>
80008284:	00000000 	nop
	...
80008290:	26520001 	addiu	s2,s2,1
80008294:	90620001 	lbu	v0,1(v1)
80008298:	24660001 	addiu	a2,v1,1
8000829c:	241f0001 	li	ra,1
800082a0:	240a0001 	li	t2,1
800082a4:	24040001 	li	a0,1
800082a8:	1000ffc4 	b	800081bc <core_bench_state+0x8dc>
800082ac:	00000000 	nop
800082b0:	90620001 	lbu	v0,1(v1)
800082b4:	26520001 	addiu	s2,s2,1
800082b8:	24630001 	addiu	v1,v1,1
800082bc:	104000bc 	beqz	v0,800085b0 <core_bench_state+0xcd0>
800082c0:	00000000 	nop
800082c4:	241f0001 	li	ra,1
800082c8:	1048000f 	beq	v0,t0,80008308 <core_bench_state+0xa28>
800082cc:	00000000 	nop
800082d0:	244affd0 	addiu	t2,v0,-48
800082d4:	00563024 	and	a2,v0,s6
800082d8:	2d44000a 	sltiu	a0,t2,10
800082dc:	10d5001c 	beq	a2,s5,80008350 <core_bench_state+0xa70>
800082e0:	00000000 	nop
800082e4:	10800072 	beqz	a0,800084b0 <core_bench_state+0xbd0>
800082e8:	00000000 	nop
800082ec:	24630001 	addiu	v1,v1,1
800082f0:	90620000 	lbu	v0,0(v1)
800082f4:	00000000 	nop
800082f8:	1040000e 	beqz	v0,80008334 <core_bench_state+0xa54>
800082fc:	00000000 	nop
80008300:	1448fff3 	bne	v0,t0,800082d0 <core_bench_state+0x9f0>
80008304:	00000000 	nop
80008308:	240a0001 	li	t2,1
8000830c:	24040005 	li	a0,5
80008310:	24660001 	addiu	a2,v1,1
80008314:	90620001 	lbu	v0,1(v1)
80008318:	1000ffa8 	b	800081bc <core_bench_state+0x8dc>
8000831c:	00000000 	nop
80008320:	90c20001 	lbu	v0,1(a2)
80008324:	25290001 	addiu	t1,t1,1
80008328:	24c30001 	addiu	v1,a2,1
8000832c:	1440fff4 	bnez	v0,80008300 <core_bench_state+0xa20>
80008330:	00000000 	nop
80008334:	00603025 	move	a2,v1
80008338:	240a0001 	li	t2,1
8000833c:	24040005 	li	a0,5
80008340:	1000ff9e 	b	800081bc <core_bench_state+0x8dc>
80008344:	00000000 	nop
	...
80008350:	90620001 	lbu	v0,1(v1)
80008354:	26310001 	addiu	s1,s1,1
80008358:	24660001 	addiu	a2,v1,1
8000835c:	10400089 	beqz	v0,80008584 <core_bench_state+0xca4>
80008360:	00000000 	nop
80008364:	1048008c 	beq	v0,t0,80008598 <core_bench_state+0xcb8>
80008368:	00000000 	nop
8000836c:	1050000c 	beq	v0,s0,800083a0 <core_bench_state+0xac0>
80008370:	00000000 	nop
80008374:	1053000a 	beq	v0,s3,800083a0 <core_bench_state+0xac0>
80008378:	00000000 	nop
8000837c:	258c0001 	addiu	t4,t4,1
80008380:	90620002 	lbu	v0,2(v1)
80008384:	24660002 	addiu	a2,v1,2
80008388:	24190001 	li	t9,1
8000838c:	240e0001 	li	t6,1
80008390:	240a0001 	li	t2,1
80008394:	24040001 	li	a0,1
80008398:	1000ff88 	b	800081bc <core_bench_state+0x8dc>
8000839c:	00000000 	nop
800083a0:	90620002 	lbu	v0,2(v1)
800083a4:	258c0001 	addiu	t4,t4,1
800083a8:	24660002 	addiu	a2,v1,2
800083ac:	10400059 	beqz	v0,80008514 <core_bench_state+0xc34>
800083b0:	00000000 	nop
800083b4:	1048006c 	beq	v0,t0,80008568 <core_bench_state+0xc88>
800083b8:	00000000 	nop
800083bc:	244effd0 	addiu	t6,v0,-48
800083c0:	2dd9000a 	sltiu	t9,t6,10
800083c4:	1320002e 	beqz	t9,80008480 <core_bench_state+0xba0>
800083c8:	00000000 	nop
800083cc:	90620003 	lbu	v0,3(v1)
800083d0:	256b0001 	addiu	t3,t3,1
800083d4:	24630003 	addiu	v1,v1,3
800083d8:	10400014 	beqz	v0,8000842c <core_bench_state+0xb4c>
800083dc:	00000000 	nop
800083e0:	10480045 	beq	v0,t0,800084f8 <core_bench_state+0xc18>
800083e4:	00000000 	nop
800083e8:	2454ffd0 	addiu	s4,v0,-48
800083ec:	2e82000a 	sltiu	v0,s4,10
800083f0:	10400017 	beqz	v0,80008450 <core_bench_state+0xb70>
800083f4:	00000000 	nop
800083f8:	24630001 	addiu	v1,v1,1
800083fc:	90620000 	lbu	v0,0(v1)
80008400:	00000000 	nop
80008404:	1440fff6 	bnez	v0,800083e0 <core_bench_state+0xb00>
80008408:	00000000 	nop
8000840c:	00603025 	move	a2,v1
80008410:	24140001 	li	s4,1
80008414:	24190001 	li	t9,1
80008418:	240e0001 	li	t6,1
8000841c:	240a0001 	li	t2,1
80008420:	24040007 	li	a0,7
80008424:	1000ff65 	b	800081bc <core_bench_state+0x8dc>
80008428:	00000000 	nop
8000842c:	24140001 	li	s4,1
80008430:	24190001 	li	t9,1
80008434:	240e0001 	li	t6,1
80008438:	240a0001 	li	t2,1
8000843c:	24040007 	li	a0,7
80008440:	00603025 	move	a2,v1
80008444:	1000ff5d 	b	800081bc <core_bench_state+0x8dc>
80008448:	00000000 	nop
8000844c:	00000000 	nop
80008450:	27180001 	addiu	t8,t8,1
80008454:	90620001 	lbu	v0,1(v1)
80008458:	24660001 	addiu	a2,v1,1
8000845c:	24140001 	li	s4,1
80008460:	24190001 	li	t9,1
80008464:	240e0001 	li	t6,1
80008468:	240a0001 	li	t2,1
8000846c:	24070001 	li	a3,1
80008470:	24040001 	li	a0,1
80008474:	1000ff51 	b	800081bc <core_bench_state+0x8dc>
80008478:	00000000 	nop
8000847c:	00000000 	nop
80008480:	256b0001 	addiu	t3,t3,1
80008484:	90620003 	lbu	v0,3(v1)
80008488:	24660003 	addiu	a2,v1,3
8000848c:	24140001 	li	s4,1
80008490:	24190001 	li	t9,1
80008494:	240e0001 	li	t6,1
80008498:	240a0001 	li	t2,1
8000849c:	24040001 	li	a0,1
800084a0:	1000ff46 	b	800081bc <core_bench_state+0x8dc>
800084a4:	00000000 	nop
	...
800084b0:	26310001 	addiu	s1,s1,1
800084b4:	90620001 	lbu	v0,1(v1)
800084b8:	24660001 	addiu	a2,v1,1
800084bc:	240e0001 	li	t6,1
800084c0:	240a0001 	li	t2,1
800084c4:	24040001 	li	a0,1
800084c8:	1000ff3c 	b	800081bc <core_bench_state+0x8dc>
800084cc:	00000000 	nop
800084d0:	90620001 	lbu	v0,1(v1)
800084d4:	25ad0001 	addiu	t5,t5,1
800084d8:	24630001 	addiu	v1,v1,1
800084dc:	10400040 	beqz	v0,800085e0 <core_bench_state+0xd00>
800084e0:	00000000 	nop
800084e4:	24170001 	li	s7,1
800084e8:	1448ff79 	bne	v0,t0,800082d0 <core_bench_state+0x9f0>
800084ec:	00000000 	nop
800084f0:	1000ff85 	b	80008308 <core_bench_state+0xa28>
800084f4:	00000000 	nop
800084f8:	24140001 	li	s4,1
800084fc:	24190001 	li	t9,1
80008500:	240e0001 	li	t6,1
80008504:	240a0001 	li	t2,1
80008508:	24040007 	li	a0,7
8000850c:	1000ff80 	b	80008310 <core_bench_state+0xa30>
80008510:	00000000 	nop
80008514:	24190001 	li	t9,1
80008518:	240e0001 	li	t6,1
8000851c:	240a0001 	li	t2,1
80008520:	24040006 	li	a0,6
80008524:	1000ff25 	b	800081bc <core_bench_state+0x8dc>
80008528:	00000000 	nop
8000852c:	00603025 	move	a2,v1
80008530:	240a0001 	li	t2,1
80008534:	24040002 	li	a0,2
80008538:	1000ff20 	b	800081bc <core_bench_state+0x8dc>
8000853c:	00000000 	nop
80008540:	00603025 	move	a2,v1
80008544:	24170001 	li	s7,1
80008548:	240a0001 	li	t2,1
8000854c:	24040004 	li	a0,4
80008550:	1000ff1a 	b	800081bc <core_bench_state+0x8dc>
80008554:	00000000 	nop
80008558:	240a0001 	li	t2,1
8000855c:	24040002 	li	a0,2
80008560:	1000ff6b 	b	80008310 <core_bench_state+0xa30>
80008564:	00000000 	nop
80008568:	00c01825 	move	v1,a2
8000856c:	24190001 	li	t9,1
80008570:	240e0001 	li	t6,1
80008574:	240a0001 	li	t2,1
80008578:	24040006 	li	a0,6
8000857c:	1000ff64 	b	80008310 <core_bench_state+0xa30>
80008580:	00000000 	nop
80008584:	240e0001 	li	t6,1
80008588:	240a0001 	li	t2,1
8000858c:	24040003 	li	a0,3
80008590:	1000ff0a 	b	800081bc <core_bench_state+0x8dc>
80008594:	00000000 	nop
80008598:	00c01825 	move	v1,a2
8000859c:	240e0001 	li	t6,1
800085a0:	240a0001 	li	t2,1
800085a4:	24040003 	li	a0,3
800085a8:	1000ff59 	b	80008310 <core_bench_state+0xa30>
800085ac:	00000000 	nop
800085b0:	00603025 	move	a2,v1
800085b4:	241f0001 	li	ra,1
800085b8:	240a0001 	li	t2,1
800085bc:	24040005 	li	a0,5
800085c0:	1000fefe 	b	800081bc <core_bench_state+0x8dc>
800085c4:	00000000 	nop
800085c8:	00804025 	move	t0,a0
800085cc:	24020001 	li	v0,1
800085d0:	240b0001 	li	t3,1
800085d4:	24090005 	li	t1,5
800085d8:	1000fd60 	b	80007b5c <core_bench_state+0x27c>
800085dc:	00000000 	nop
800085e0:	00603025 	move	a2,v1
800085e4:	24170001 	li	s7,1
800085e8:	240a0001 	li	t2,1
800085ec:	24040005 	li	a0,5
800085f0:	1000fef2 	b	800081bc <core_bench_state+0x8dc>
800085f4:	00000000 	nop
800085f8:	afb80014 	sw	t8,20(sp)
800085fc:	1000fe9b 	b	8000806c <core_bench_state+0x78c>
80008600:	00000000 	nop
80008604:	afac0014 	sw	t4,20(sp)
80008608:	1000fd18 	b	80007a6c <core_bench_state+0x18c>
8000860c:	00000000 	nop
80008610:	afa70010 	sw	a3,16(sp)
80008614:	1000fd17 	b	80007a74 <core_bench_state+0x194>
80008618:	00000000 	nop
8000861c:	240b0001 	li	t3,1
80008620:	24090005 	li	t1,5
80008624:	1000fd4d 	b	80007b5c <core_bench_state+0x27c>
80008628:	00000000 	nop
8000862c:	24160001 	li	s6,1
80008630:	24110001 	li	s1,1
80008634:	24190001 	li	t9,1
80008638:	240b0001 	li	t3,1
8000863c:	24090007 	li	t1,7
80008640:	01002025 	move	a0,t0
80008644:	1000fd3e 	b	80007b40 <core_bench_state+0x260>
80008648:	00000000 	nop
8000864c:	01002025 	move	a0,t0
80008650:	24110001 	li	s1,1
80008654:	24190001 	li	t9,1
80008658:	240b0001 	li	t3,1
8000865c:	24090006 	li	t1,6
80008660:	1000fd37 	b	80007b40 <core_bench_state+0x260>
80008664:	00000000 	nop
80008668:	01002025 	move	a0,t0
8000866c:	24190001 	li	t9,1
80008670:	240b0001 	li	t3,1
80008674:	24090003 	li	t1,3
80008678:	1000fd31 	b	80007b40 <core_bench_state+0x260>
8000867c:	00000000 	nop

80008680 <core_init_state>:
core_init_state():
80008680:	00001825 	move	v1,zero
80008684:	00007025 	move	t6,zero
80008688:	27bdfff8 	addiu	sp,sp,-8
8000868c:	01c3c021 	addu	t8,t6,v1
80008690:	afb00000 	sw	s0,0(sp)
80008694:	2487ffff 	addiu	a3,a0,-1
80008698:	27100001 	addiu	s0,t8,1
8000869c:	afb10004 	sw	s1,4(sp)
800086a0:	24a50001 	addiu	a1,a1,1
800086a4:	3c0d8001 	lui	t5,0x8001
800086a8:	3c088001 	lui	t0,0x8001
800086ac:	3c0c8001 	lui	t4,0x8001
800086b0:	3c0b8001 	lui	t3,0x8001
800086b4:	3c0a8001 	lui	t2,0x8001
800086b8:	0207782b 	sltu	t7,s0,a3
800086bc:	30a5ffff 	andi	a1,a1,0xffff
800086c0:	00001025 	move	v0,zero
800086c4:	2409002c 	li	t1,44
800086c8:	25adbfb4 	addiu	t5,t5,-16460
800086cc:	2508bf70 	addiu	t0,t0,-16528
800086d0:	258cbf84 	addiu	t4,t4,-16508
800086d4:	256bbf94 	addiu	t3,t3,-16492
800086d8:	254abfa4 	addiu	t2,t2,-16476
800086dc:	11e00078 	beqz	t7,800088c0 <core_init_state+0x240>
800086e0:	00000000 	nop
800086e4:	1060005c 	beqz	v1,80008858 <core_init_state+0x1d8>
800086e8:	00000000 	nop
800086ec:	0043c821 	addu	t9,v0,v1
800086f0:	90510000 	lbu	s1,0(v0)
800086f4:	00021827 	nor	v1,zero,v0
800086f8:	00ce7021 	addu	t6,a2,t6
800086fc:	00797821 	addu	t7,v1,t9
80008700:	24420001 	addiu	v0,v0,1
80008704:	a1d10000 	sb	s1,0(t6)
80008708:	31ef0007 	andi	t7,t7,0x7
8000870c:	25c30001 	addiu	v1,t6,1
80008710:	1059004e 	beq	v0,t9,8000884c <core_init_state+0x1cc>
80008714:	00000000 	nop
80008718:	11e00031 	beqz	t7,800087e0 <core_init_state+0x160>
8000871c:	00000000 	nop
80008720:	24110001 	li	s1,1
80008724:	11f10028 	beq	t7,s1,800087c8 <core_init_state+0x148>
80008728:	00000000 	nop
8000872c:	24110002 	li	s1,2
80008730:	11f10021 	beq	t7,s1,800087b8 <core_init_state+0x138>
80008734:	00000000 	nop
80008738:	24110003 	li	s1,3
8000873c:	11f1001a 	beq	t7,s1,800087a8 <core_init_state+0x128>
80008740:	00000000 	nop
80008744:	24110004 	li	s1,4
80008748:	11f10013 	beq	t7,s1,80008798 <core_init_state+0x118>
8000874c:	00000000 	nop
80008750:	24110005 	li	s1,5
80008754:	11f1000c 	beq	t7,s1,80008788 <core_init_state+0x108>
80008758:	00000000 	nop
8000875c:	24110006 	li	s1,6
80008760:	11f10005 	beq	t7,s1,80008778 <core_init_state+0xf8>
80008764:	00000000 	nop
80008768:	904f0000 	lbu	t7,0(v0)
8000876c:	24630001 	addiu	v1,v1,1
80008770:	24420001 	addiu	v0,v0,1
80008774:	a1cf0001 	sb	t7,1(t6)
80008778:	904e0000 	lbu	t6,0(v0)
8000877c:	24630001 	addiu	v1,v1,1
80008780:	24420001 	addiu	v0,v0,1
80008784:	a06effff 	sb	t6,-1(v1)
80008788:	90510000 	lbu	s1,0(v0)
8000878c:	24630001 	addiu	v1,v1,1
80008790:	24420001 	addiu	v0,v0,1
80008794:	a071ffff 	sb	s1,-1(v1)
80008798:	904f0000 	lbu	t7,0(v0)
8000879c:	24630001 	addiu	v1,v1,1
800087a0:	24420001 	addiu	v0,v0,1
800087a4:	a06fffff 	sb	t7,-1(v1)
800087a8:	904e0000 	lbu	t6,0(v0)
800087ac:	24630001 	addiu	v1,v1,1
800087b0:	24420001 	addiu	v0,v0,1
800087b4:	a06effff 	sb	t6,-1(v1)
800087b8:	90510000 	lbu	s1,0(v0)
800087bc:	24630001 	addiu	v1,v1,1
800087c0:	24420001 	addiu	v0,v0,1
800087c4:	a071ffff 	sb	s1,-1(v1)
800087c8:	904f0000 	lbu	t7,0(v0)
800087cc:	24630001 	addiu	v1,v1,1
800087d0:	24420001 	addiu	v0,v0,1
800087d4:	a06fffff 	sb	t7,-1(v1)
800087d8:	1059001c 	beq	v0,t9,8000884c <core_init_state+0x1cc>
800087dc:	00000000 	nop
800087e0:	904e0000 	lbu	t6,0(v0)
800087e4:	24630008 	addiu	v1,v1,8
800087e8:	24420008 	addiu	v0,v0,8
800087ec:	a06efff8 	sb	t6,-8(v1)
800087f0:	9051fff9 	lbu	s1,-7(v0)
800087f4:	00000000 	nop
800087f8:	a071fff9 	sb	s1,-7(v1)
800087fc:	904ffffa 	lbu	t7,-6(v0)
80008800:	00000000 	nop
80008804:	a06ffffa 	sb	t7,-6(v1)
80008808:	904efffb 	lbu	t6,-5(v0)
8000880c:	00000000 	nop
80008810:	a06efffb 	sb	t6,-5(v1)
80008814:	9051fffc 	lbu	s1,-4(v0)
80008818:	00000000 	nop
8000881c:	a071fffc 	sb	s1,-4(v1)
80008820:	904ffffd 	lbu	t7,-3(v0)
80008824:	00000000 	nop
80008828:	a06ffffd 	sb	t7,-3(v1)
8000882c:	904efffe 	lbu	t6,-2(v0)
80008830:	00000000 	nop
80008834:	a06efffe 	sb	t6,-2(v1)
80008838:	9051ffff 	lbu	s1,-1(v0)
8000883c:	00000000 	nop
80008840:	a071ffff 	sb	s1,-1(v1)
80008844:	1459ffe6 	bne	v0,t9,800087e0 <core_init_state+0x160>
80008848:	00000000 	nop
8000884c:	00d8c021 	addu	t8,a2,t8
80008850:	02007025 	move	t6,s0
80008854:	a3090000 	sb	t1,0(t8)
80008858:	30b00007 	andi	s0,a1,0x7
8000885c:	2619fffd 	addiu	t9,s0,-3
80008860:	00051400 	sll	v0,a1,0x10
80008864:	3331ffff 	andi	s1,t9,0xffff
80008868:	2e2f0005 	sltiu	t7,s1,5
8000886c:	00021c03 	sra	v1,v0,0x10
80008870:	11e000bb 	beqz	t7,80008b60 <core_init_state+0x4e0>
80008874:	00000000 	nop
80008878:	0011c080 	sll	t8,s1,0x2
8000887c:	01188021 	addu	s0,t0,t8
80008880:	8e190000 	lw	t9,0(s0)
80008884:	00000000 	nop
80008888:	03200008 	jr	t9
8000888c:	00000000 	nop
80008890:	00031042 	srl	v0,v1,0x1
80008894:	24a50001 	addiu	a1,a1,1
80008898:	3051000c 	andi	s1,v0,0xc
8000889c:	022a7821 	addu	t7,s1,t2
800088a0:	24030008 	li	v1,8
800088a4:	30a5ffff 	andi	a1,a1,0xffff
800088a8:	8de20000 	lw	v0,0(t7)
800088ac:	01c3c021 	addu	t8,t6,v1
800088b0:	27100001 	addiu	s0,t8,1
800088b4:	0207782b 	sltu	t7,s0,a3
800088b8:	15e0ff8a 	bnez	t7,800086e4 <core_init_state+0x64>
800088bc:	00000000 	nop
800088c0:	01c4102b 	sltu	v0,t6,a0
800088c4:	1040008c 	beqz	v0,80008af8 <core_init_state+0x478>
800088c8:	00000000 	nop
800088cc:	00ce1821 	addu	v1,a2,t6
800088d0:	008e4823 	subu	t1,a0,t6
800088d4:	00033823 	negu	a3,v1
800088d8:	30ed0003 	andi	t5,a3,0x3
800088dc:	012d882b 	sltu	s1,t1,t5
800088e0:	162000ab 	bnez	s1,80008b90 <core_init_state+0x510>
800088e4:	00000000 	nop
800088e8:	2d390007 	sltiu	t9,t1,7
800088ec:	13200002 	beqz	t9,800088f8 <core_init_state+0x278>
800088f0:	00000000 	nop
800088f4:	01206825 	move	t5,t1
800088f8:	11a000a9 	beqz	t5,80008ba0 <core_init_state+0x520>
800088fc:	00000000 	nop
80008900:	24050001 	li	a1,1
80008904:	a0600000 	sb	zero,0(v1)
80008908:	25c30001 	addiu	v1,t6,1
8000890c:	11a5001c 	beq	t5,a1,80008980 <core_init_state+0x300>
80008910:	00000000 	nop
80008914:	00c34021 	addu	t0,a2,v1
80008918:	240c0002 	li	t4,2
8000891c:	a1000000 	sb	zero,0(t0)
80008920:	25c30002 	addiu	v1,t6,2
80008924:	11ac0016 	beq	t5,t4,80008980 <core_init_state+0x300>
80008928:	00000000 	nop
8000892c:	00c35821 	addu	t3,a2,v1
80008930:	240a0003 	li	t2,3
80008934:	a1600000 	sb	zero,0(t3)
80008938:	25c30003 	addiu	v1,t6,3
8000893c:	11aa0010 	beq	t5,t2,80008980 <core_init_state+0x300>
80008940:	00000000 	nop
80008944:	00c3c021 	addu	t8,a2,v1
80008948:	24100004 	li	s0,4
8000894c:	a3000000 	sb	zero,0(t8)
80008950:	25c30004 	addiu	v1,t6,4
80008954:	11b0000a 	beq	t5,s0,80008980 <core_init_state+0x300>
80008958:	00000000 	nop
8000895c:	00c37821 	addu	t7,a2,v1
80008960:	24020006 	li	v0,6
80008964:	a1e00000 	sb	zero,0(t7)
80008968:	25c30005 	addiu	v1,t6,5
8000896c:	15a20004 	bne	t5,v0,80008980 <core_init_state+0x300>
80008970:	00000000 	nop
80008974:	00c33821 	addu	a3,a2,v1
80008978:	25c30006 	addiu	v1,t6,6
8000897c:	a0e00000 	sb	zero,0(a3)
80008980:	11a9005d 	beq	t5,t1,80008af8 <core_init_state+0x478>
80008984:	00000000 	nop
80008988:	012d5023 	subu	t2,t1,t5
8000898c:	2529ffff 	addiu	t1,t1,-1
80008990:	2551fffc 	addiu	s1,t2,-4
80008994:	012dc823 	subu	t9,t1,t5
80008998:	0011c082 	srl	t8,s1,0x2
8000899c:	2f250003 	sltiu	a1,t9,3
800089a0:	27100001 	addiu	s0,t8,1
800089a4:	00105880 	sll	t3,s0,0x2
800089a8:	14a00045 	bnez	a1,80008ac0 <core_init_state+0x440>
800089ac:	00000000 	nop
800089b0:	01cd7021 	addu	t6,t6,t5
800089b4:	24080001 	li	t0,1
800089b8:	00ce6821 	addu	t5,a2,t6
800089bc:	0110602b 	sltu	t4,t0,s0
800089c0:	330f0007 	andi	t7,t8,0x7
800089c4:	ada00000 	sw	zero,0(t5)
800089c8:	25b80004 	addiu	t8,t5,4
800089cc:	11800039 	beqz	t4,80008ab4 <core_init_state+0x434>
800089d0:	00000000 	nop
800089d4:	11e0002a 	beqz	t7,80008a80 <core_init_state+0x400>
800089d8:	00000000 	nop
800089dc:	11e80022 	beq	t7,t0,80008a68 <core_init_state+0x3e8>
800089e0:	00000000 	nop
800089e4:	24020002 	li	v0,2
800089e8:	11e2001c 	beq	t7,v0,80008a5c <core_init_state+0x3dc>
800089ec:	00000000 	nop
800089f0:	24070003 	li	a3,3
800089f4:	11e70016 	beq	t7,a3,80008a50 <core_init_state+0x3d0>
800089f8:	00000000 	nop
800089fc:	24090004 	li	t1,4
80008a00:	11e90010 	beq	t7,t1,80008a44 <core_init_state+0x3c4>
80008a04:	00000000 	nop
80008a08:	24110005 	li	s1,5
80008a0c:	11f1000a 	beq	t7,s1,80008a38 <core_init_state+0x3b8>
80008a10:	00000000 	nop
80008a14:	24190006 	li	t9,6
80008a18:	11f90004 	beq	t7,t9,80008a2c <core_init_state+0x3ac>
80008a1c:	00000000 	nop
80008a20:	af000000 	sw	zero,0(t8)
80008a24:	24080002 	li	t0,2
80008a28:	25b80008 	addiu	t8,t5,8
80008a2c:	af000000 	sw	zero,0(t8)
80008a30:	25080001 	addiu	t0,t0,1
80008a34:	27180004 	addiu	t8,t8,4
80008a38:	af000000 	sw	zero,0(t8)
80008a3c:	25080001 	addiu	t0,t0,1
80008a40:	27180004 	addiu	t8,t8,4
80008a44:	af000000 	sw	zero,0(t8)
80008a48:	25080001 	addiu	t0,t0,1
80008a4c:	27180004 	addiu	t8,t8,4
80008a50:	af000000 	sw	zero,0(t8)
80008a54:	25080001 	addiu	t0,t0,1
80008a58:	27180004 	addiu	t8,t8,4
80008a5c:	af000000 	sw	zero,0(t8)
80008a60:	25080001 	addiu	t0,t0,1
80008a64:	27180004 	addiu	t8,t8,4
80008a68:	25080001 	addiu	t0,t0,1
80008a6c:	af000000 	sw	zero,0(t8)
80008a70:	27180004 	addiu	t8,t8,4
80008a74:	0110282b 	sltu	a1,t0,s0
80008a78:	10a0000e 	beqz	a1,80008ab4 <core_init_state+0x434>
80008a7c:	00000000 	nop
80008a80:	25080008 	addiu	t0,t0,8
80008a84:	af000000 	sw	zero,0(t8)
80008a88:	af000004 	sw	zero,4(t8)
80008a8c:	27180020 	addiu	t8,t8,32
80008a90:	0110702b 	sltu	t6,t0,s0
80008a94:	af00ffe8 	sw	zero,-24(t8)
80008a98:	af00ffec 	sw	zero,-20(t8)
80008a9c:	af00fff0 	sw	zero,-16(t8)
80008aa0:	af00fff4 	sw	zero,-12(t8)
80008aa4:	af00fff8 	sw	zero,-8(t8)
80008aa8:	af00fffc 	sw	zero,-4(t8)
80008aac:	15c0fff4 	bnez	t6,80008a80 <core_init_state+0x400>
80008ab0:	00000000 	nop
80008ab4:	006b1821 	addu	v1,v1,t3
80008ab8:	116a000f 	beq	t3,t2,80008af8 <core_init_state+0x478>
80008abc:	00000000 	nop
80008ac0:	24700001 	addiu	s0,v1,1
80008ac4:	00c36821 	addu	t5,a2,v1
80008ac8:	0204602b 	sltu	t4,s0,a0
80008acc:	a1a00000 	sb	zero,0(t5)
80008ad0:	11800009 	beqz	t4,80008af8 <core_init_state+0x478>
80008ad4:	00000000 	nop
80008ad8:	246f0002 	addiu	t7,v1,2
80008adc:	00d01021 	addu	v0,a2,s0
80008ae0:	01e4202b 	sltu	a0,t7,a0
80008ae4:	a0400000 	sb	zero,0(v0)
80008ae8:	10800003 	beqz	a0,80008af8 <core_init_state+0x478>
80008aec:	00000000 	nop
80008af0:	00cf3021 	addu	a2,a2,t7
80008af4:	a0c00000 	sb	zero,0(a2)
80008af8:	8fb10004 	lw	s1,4(sp)
80008afc:	8fb00000 	lw	s0,0(sp)
80008b00:	27bd0008 	addiu	sp,sp,8
80008b04:	03e00008 	jr	ra
80008b08:	00000000 	nop
80008b0c:	00000000 	nop
80008b10:	0003c042 	srl	t8,v1,0x1
80008b14:	24a50001 	addiu	a1,a1,1
80008b18:	3310000c 	andi	s0,t8,0xc
80008b1c:	020bc821 	addu	t9,s0,t3
80008b20:	24030008 	li	v1,8
80008b24:	30a5ffff 	andi	a1,a1,0xffff
80008b28:	8f220000 	lw	v0,0(t9)
80008b2c:	1000ff5f 	b	800088ac <core_init_state+0x22c>
80008b30:	00000000 	nop
80008b34:	00031042 	srl	v0,v1,0x1
80008b38:	24a50001 	addiu	a1,a1,1
80008b3c:	3051000c 	andi	s1,v0,0xc
80008b40:	022c7821 	addu	t7,s1,t4
80008b44:	24030008 	li	v1,8
80008b48:	30a5ffff 	andi	a1,a1,0xffff
80008b4c:	8de20000 	lw	v0,0(t7)
80008b50:	1000ff56 	b	800088ac <core_init_state+0x22c>
80008b54:	00000000 	nop
	...
80008b60:	0003c042 	srl	t8,v1,0x1
80008b64:	24a50001 	addiu	a1,a1,1
80008b68:	3310000c 	andi	s0,t8,0xc
80008b6c:	020dc821 	addu	t9,s0,t5
80008b70:	24030004 	li	v1,4
80008b74:	30a5ffff 	andi	a1,a1,0xffff
80008b78:	8f220000 	lw	v0,0(t9)
80008b7c:	1000ff4b 	b	800088ac <core_init_state+0x22c>
80008b80:	00000000 	nop
	...
80008b90:	01206825 	move	t5,t1
80008b94:	1000ff54 	b	800088e8 <core_init_state+0x268>
80008b98:	00000000 	nop
80008b9c:	00000000 	nop
80008ba0:	012d5023 	subu	t2,t1,t5
80008ba4:	2529ffff 	addiu	t1,t1,-1
80008ba8:	2551fffc 	addiu	s1,t2,-4
80008bac:	012dc823 	subu	t9,t1,t5
80008bb0:	0011c082 	srl	t8,s1,0x2
80008bb4:	2f250003 	sltiu	a1,t9,3
80008bb8:	27100001 	addiu	s0,t8,1
80008bbc:	01c01825 	move	v1,t6
80008bc0:	00105880 	sll	t3,s0,0x2
80008bc4:	10a0ff7a 	beqz	a1,800089b0 <core_init_state+0x330>
80008bc8:	00000000 	nop
80008bcc:	1000ffbc 	b	80008ac0 <core_init_state+0x440>
80008bd0:	00000000 	nop
	...

80008be0 <core_state_transition>:
core_state_transition():
80008be0:	8c860000 	lw	a2,0(a0)
80008be4:	00000000 	nop
80008be8:	90c20000 	lbu	v0,0(a2)
80008bec:	00000000 	nop
80008bf0:	10400110 	beqz	v0,80009034 <core_state_transition+0x454>
80008bf4:	00000000 	nop
80008bf8:	2407002c 	li	a3,44
80008bfc:	10470111 	beq	v0,a3,80009044 <core_state_transition+0x464>
80008c00:	00000000 	nop
80008c04:	2443ffd0 	addiu	v1,v0,-48
80008c08:	2c68000a 	sltiu	t0,v1,10
80008c0c:	1100001f 	beqz	t0,80008c8c <core_state_transition+0xac>
80008c10:	00000000 	nop
80008c14:	8ca80000 	lw	t0,0(a1)
80008c18:	24c30001 	addiu	v1,a2,1
80008c1c:	25090001 	addiu	t1,t0,1
80008c20:	aca90000 	sw	t1,0(a1)
80008c24:	90c20001 	lbu	v0,1(a2)
80008c28:	00000000 	nop
80008c2c:	104000f4 	beqz	v0,80009000 <core_state_transition+0x420>
80008c30:	00000000 	nop
80008c34:	10470010 	beq	v0,a3,80008c78 <core_state_transition+0x98>
80008c38:	00000000 	nop
80008c3c:	2406002e 	li	a2,46
80008c40:	2407002c 	li	a3,44
80008c44:	244affd0 	addiu	t2,v0,-48
80008c48:	104600c9 	beq	v0,a2,80008f70 <core_state_transition+0x390>
80008c4c:	00000000 	nop
80008c50:	2d4b000a 	sltiu	t3,t2,10
80008c54:	1160004a 	beqz	t3,80008d80 <core_state_transition+0x1a0>
80008c58:	00000000 	nop
80008c5c:	24630001 	addiu	v1,v1,1
80008c60:	90620000 	lbu	v0,0(v1)
80008c64:	00000000 	nop
80008c68:	104000e5 	beqz	v0,80009000 <core_state_transition+0x420>
80008c6c:	00000000 	nop
80008c70:	1447fff4 	bne	v0,a3,80008c44 <core_state_transition+0x64>
80008c74:	00000000 	nop
80008c78:	24020004 	li	v0,4
80008c7c:	24630001 	addiu	v1,v1,1
80008c80:	ac830000 	sw	v1,0(a0)
80008c84:	03e00008 	jr	ra
80008c88:	00000000 	nop
80008c8c:	2409002b 	li	t1,43
80008c90:	10490013 	beq	v0,t1,80008ce0 <core_state_transition+0x100>
80008c94:	00000000 	nop
80008c98:	240a002d 	li	t2,45
80008c9c:	104a0010 	beq	v0,t2,80008ce0 <core_state_transition+0x100>
80008ca0:	00000000 	nop
80008ca4:	240b002e 	li	t3,46
80008ca8:	104b003d 	beq	v0,t3,80008da0 <core_state_transition+0x1c0>
80008cac:	00000000 	nop
80008cb0:	8cac0004 	lw	t4,4(a1)
80008cb4:	24c30001 	addiu	v1,a2,1
80008cb8:	8cad0000 	lw	t5,0(a1)
80008cbc:	24020001 	li	v0,1
80008cc0:	258e0001 	addiu	t6,t4,1
80008cc4:	25af0001 	addiu	t7,t5,1
80008cc8:	acae0004 	sw	t6,4(a1)
80008ccc:	acaf0000 	sw	t7,0(a1)
80008cd0:	ac830000 	sw	v1,0(a0)
80008cd4:	03e00008 	jr	ra
80008cd8:	00000000 	nop
80008cdc:	00000000 	nop
80008ce0:	8ca20000 	lw	v0,0(a1)
80008ce4:	24c30001 	addiu	v1,a2,1
80008ce8:	24480001 	addiu	t0,v0,1
80008cec:	aca80000 	sw	t0,0(a1)
80008cf0:	90c90001 	lbu	t1,1(a2)
80008cf4:	00000000 	nop
80008cf8:	112000c7 	beqz	t1,80009018 <core_state_transition+0x438>
80008cfc:	00000000 	nop
80008d00:	112700c8 	beq	t1,a3,80009024 <core_state_transition+0x444>
80008d04:	00000000 	nop
80008d08:	2526ffd0 	addiu	a2,t1,-48
80008d0c:	2cc7000a 	sltiu	a3,a2,10
80008d10:	10e0000f 	beqz	a3,80008d50 <core_state_transition+0x170>
80008d14:	00000000 	nop
80008d18:	8caf0008 	lw	t7,8(a1)
80008d1c:	24780001 	addiu	t8,v1,1
80008d20:	25f90001 	addiu	t9,t7,1
80008d24:	acb90008 	sw	t9,8(a1)
80008d28:	90620001 	lbu	v0,1(v1)
80008d2c:	00000000 	nop
80008d30:	104000c9 	beqz	v0,80009058 <core_state_transition+0x478>
80008d34:	00000000 	nop
80008d38:	2403002c 	li	v1,44
80008d3c:	104300d8 	beq	v0,v1,800090a0 <core_state_transition+0x4c0>
80008d40:	00000000 	nop
80008d44:	03001825 	move	v1,t8
80008d48:	1000ffbc 	b	80008c3c <core_state_transition+0x5c>
80008d4c:	00000000 	nop
80008d50:	240a002e 	li	t2,46
80008d54:	112a009e 	beq	t1,t2,80008fd0 <core_state_transition+0x3f0>
80008d58:	00000000 	nop
80008d5c:	8cab0008 	lw	t3,8(a1)
80008d60:	24630001 	addiu	v1,v1,1
80008d64:	24020001 	li	v0,1
80008d68:	256c0001 	addiu	t4,t3,1
80008d6c:	acac0008 	sw	t4,8(a1)
80008d70:	ac830000 	sw	v1,0(a0)
80008d74:	03e00008 	jr	ra
80008d78:	00000000 	nop
80008d7c:	00000000 	nop
80008d80:	8cac0010 	lw	t4,16(a1)
80008d84:	24630001 	addiu	v1,v1,1
80008d88:	24020001 	li	v0,1
80008d8c:	258d0001 	addiu	t5,t4,1
80008d90:	acad0010 	sw	t5,16(a1)
80008d94:	ac830000 	sw	v1,0(a0)
80008d98:	03e00008 	jr	ra
80008d9c:	00000000 	nop
80008da0:	8cb80000 	lw	t8,0(a1)
80008da4:	24cc0001 	addiu	t4,a2,1
80008da8:	27190001 	addiu	t9,t8,1
80008dac:	acb90000 	sw	t9,0(a1)
80008db0:	90cb0001 	lbu	t3,1(a2)
80008db4:	00000000 	nop
80008db8:	1160008d 	beqz	t3,80008ff0 <core_state_transition+0x410>
80008dbc:	00000000 	nop
80008dc0:	11670076 	beq	t3,a3,80008f9c <core_state_transition+0x3bc>
80008dc4:	00000000 	nop
80008dc8:	2419ffdf 	li	t9,-33
80008dcc:	24060045 	li	a2,69
80008dd0:	2409002c 	li	t1,44
80008dd4:	2563ffd0 	addiu	v1,t3,-48
80008dd8:	01791024 	and	v0,t3,t9
80008ddc:	2c67000a 	sltiu	a3,v1,10
80008de0:	1046000f 	beq	v0,a2,80008e20 <core_state_transition+0x240>
80008de4:	00000000 	nop
80008de8:	10e00071 	beqz	a3,80008fb0 <core_state_transition+0x3d0>
80008dec:	00000000 	nop
80008df0:	918b0001 	lbu	t3,1(t4)
80008df4:	25830001 	addiu	v1,t4,1
80008df8:	00606025 	move	t4,v1
80008dfc:	116000ad 	beqz	t3,800090b4 <core_state_transition+0x4d4>
80008e00:	00000000 	nop
80008e04:	1569fff3 	bne	t3,t1,80008dd4 <core_state_transition+0x1f4>
80008e08:	00000000 	nop
80008e0c:	24020005 	li	v0,5
80008e10:	24630001 	addiu	v1,v1,1
80008e14:	1000ff9a 	b	80008c80 <core_state_transition+0xa0>
80008e18:	00000000 	nop
80008e1c:	00000000 	nop
80008e20:	8cad0014 	lw	t5,20(a1)
80008e24:	25830001 	addiu	v1,t4,1
80008e28:	25ae0001 	addiu	t6,t5,1
80008e2c:	acae0014 	sw	t6,20(a1)
80008e30:	918f0001 	lbu	t7,1(t4)
80008e34:	00000000 	nop
80008e38:	11e0008e 	beqz	t7,80009074 <core_state_transition+0x494>
80008e3c:	00000000 	nop
80008e40:	2418002c 	li	t8,44
80008e44:	11f8008e 	beq	t7,t8,80009080 <core_state_transition+0x4a0>
80008e48:	00000000 	nop
80008e4c:	2419002b 	li	t9,43
80008e50:	11f9000b 	beq	t7,t9,80008e80 <core_state_transition+0x2a0>
80008e54:	00000000 	nop
80008e58:	2406002d 	li	a2,45
80008e5c:	11e60008 	beq	t7,a2,80008e80 <core_state_transition+0x2a0>
80008e60:	00000000 	nop
80008e64:	8ca9000c 	lw	t1,12(a1)
80008e68:	25830002 	addiu	v1,t4,2
80008e6c:	24020001 	li	v0,1
80008e70:	25270001 	addiu	a3,t1,1
80008e74:	aca7000c 	sw	a3,12(a1)
80008e78:	1000ffc6 	b	80008d94 <core_state_transition+0x1b4>
80008e7c:	00000000 	nop
80008e80:	8ca2000c 	lw	v0,12(a1)
80008e84:	25830002 	addiu	v1,t4,2
80008e88:	244a0001 	addiu	t2,v0,1
80008e8c:	acaa000c 	sw	t2,12(a1)
80008e90:	91880002 	lbu	t0,2(t4)
80008e94:	00000000 	nop
80008e98:	11000073 	beqz	t0,80009068 <core_state_transition+0x488>
80008e9c:	00000000 	nop
80008ea0:	240b002c 	li	t3,44
80008ea4:	110b007a 	beq	t0,t3,80009090 <core_state_transition+0x4b0>
80008ea8:	00000000 	nop
80008eac:	2503ffd0 	addiu	v1,t0,-48
80008eb0:	2c6d000a 	sltiu	t5,v1,10
80008eb4:	11a0001e 	beqz	t5,80008f30 <core_state_transition+0x350>
80008eb8:	00000000 	nop
80008ebc:	8caf0018 	lw	t7,24(a1)
80008ec0:	25830003 	addiu	v1,t4,3
80008ec4:	25f80001 	addiu	t8,t7,1
80008ec8:	acb80018 	sw	t8,24(a1)
80008ecc:	91990003 	lbu	t9,3(t4)
80008ed0:	00000000 	nop
80008ed4:	1320004d 	beqz	t9,8000900c <core_state_transition+0x42c>
80008ed8:	00000000 	nop
80008edc:	132b000d 	beq	t9,t3,80008f14 <core_state_transition+0x334>
80008ee0:	00000000 	nop
80008ee4:	2406002c 	li	a2,44
80008ee8:	2729ffd0 	addiu	t1,t9,-48
80008eec:	2d27000a 	sltiu	a3,t1,10
80008ef0:	10e00017 	beqz	a3,80008f50 <core_state_transition+0x370>
80008ef4:	00000000 	nop
80008ef8:	24630001 	addiu	v1,v1,1
80008efc:	90790000 	lbu	t9,0(v1)
80008f00:	00000000 	nop
80008f04:	13200041 	beqz	t9,8000900c <core_state_transition+0x42c>
80008f08:	00000000 	nop
80008f0c:	1726fff6 	bne	t9,a2,80008ee8 <core_state_transition+0x308>
80008f10:	00000000 	nop
80008f14:	24020007 	li	v0,7
80008f18:	24630001 	addiu	v1,v1,1
80008f1c:	1000ff58 	b	80008c80 <core_state_transition+0xa0>
80008f20:	00000000 	nop
	...
80008f30:	8cae0018 	lw	t6,24(a1)
80008f34:	25830003 	addiu	v1,t4,3
80008f38:	24020001 	li	v0,1
80008f3c:	25cc0001 	addiu	t4,t6,1
80008f40:	acac0018 	sw	t4,24(a1)
80008f44:	1000ff93 	b	80008d94 <core_state_transition+0x1b4>
80008f48:	00000000 	nop
80008f4c:	00000000 	nop
80008f50:	8caa0004 	lw	t2,4(a1)
80008f54:	24630001 	addiu	v1,v1,1
80008f58:	24020001 	li	v0,1
80008f5c:	25480001 	addiu	t0,t2,1
80008f60:	aca80004 	sw	t0,4(a1)
80008f64:	1000ff8b 	b	80008d94 <core_state_transition+0x1b4>
80008f68:	00000000 	nop
80008f6c:	00000000 	nop
80008f70:	8cae0010 	lw	t6,16(a1)
80008f74:	246c0001 	addiu	t4,v1,1
80008f78:	25cf0001 	addiu	t7,t6,1
80008f7c:	acaf0010 	sw	t7,16(a1)
80008f80:	906b0001 	lbu	t3,1(v1)
80008f84:	00000000 	nop
80008f88:	11600019 	beqz	t3,80008ff0 <core_state_transition+0x410>
80008f8c:	00000000 	nop
80008f90:	2418002c 	li	t8,44
80008f94:	1578ff8c 	bne	t3,t8,80008dc8 <core_state_transition+0x1e8>
80008f98:	00000000 	nop
80008f9c:	01801825 	move	v1,t4
80008fa0:	24020005 	li	v0,5
80008fa4:	24630001 	addiu	v1,v1,1
80008fa8:	1000ff35 	b	80008c80 <core_state_transition+0xa0>
80008fac:	00000000 	nop
80008fb0:	8caa0014 	lw	t2,20(a1)
80008fb4:	25830001 	addiu	v1,t4,1
80008fb8:	24020001 	li	v0,1
80008fbc:	25480001 	addiu	t0,t2,1
80008fc0:	aca80014 	sw	t0,20(a1)
80008fc4:	1000ff73 	b	80008d94 <core_state_transition+0x1b4>
80008fc8:	00000000 	nop
80008fcc:	00000000 	nop
80008fd0:	8cad0008 	lw	t5,8(a1)
80008fd4:	246c0001 	addiu	t4,v1,1
80008fd8:	25ae0001 	addiu	t6,t5,1
80008fdc:	acae0008 	sw	t6,8(a1)
80008fe0:	906b0001 	lbu	t3,1(v1)
80008fe4:	00000000 	nop
80008fe8:	1560ffe9 	bnez	t3,80008f90 <core_state_transition+0x3b0>
80008fec:	00000000 	nop
80008ff0:	01801825 	move	v1,t4
80008ff4:	24020005 	li	v0,5
80008ff8:	1000ff66 	b	80008d94 <core_state_transition+0x1b4>
80008ffc:	00000000 	nop
80009000:	24020004 	li	v0,4
80009004:	1000ff63 	b	80008d94 <core_state_transition+0x1b4>
80009008:	00000000 	nop
8000900c:	24020007 	li	v0,7
80009010:	1000ff60 	b	80008d94 <core_state_transition+0x1b4>
80009014:	00000000 	nop
80009018:	24020002 	li	v0,2
8000901c:	1000ff5d 	b	80008d94 <core_state_transition+0x1b4>
80009020:	00000000 	nop
80009024:	24020002 	li	v0,2
80009028:	24630001 	addiu	v1,v1,1
8000902c:	1000ff14 	b	80008c80 <core_state_transition+0xa0>
80009030:	00000000 	nop
80009034:	00c01825 	move	v1,a2
80009038:	00001025 	move	v0,zero
8000903c:	1000ff55 	b	80008d94 <core_state_transition+0x1b4>
80009040:	00000000 	nop
80009044:	00c01825 	move	v1,a2
80009048:	00001025 	move	v0,zero
8000904c:	24630001 	addiu	v1,v1,1
80009050:	1000ff0b 	b	80008c80 <core_state_transition+0xa0>
80009054:	00000000 	nop
80009058:	24020004 	li	v0,4
8000905c:	03001825 	move	v1,t8
80009060:	1000ff4c 	b	80008d94 <core_state_transition+0x1b4>
80009064:	00000000 	nop
80009068:	24020006 	li	v0,6
8000906c:	1000ff49 	b	80008d94 <core_state_transition+0x1b4>
80009070:	00000000 	nop
80009074:	24020003 	li	v0,3
80009078:	1000ff46 	b	80008d94 <core_state_transition+0x1b4>
8000907c:	00000000 	nop
80009080:	24020003 	li	v0,3
80009084:	24630001 	addiu	v1,v1,1
80009088:	1000fefd 	b	80008c80 <core_state_transition+0xa0>
8000908c:	00000000 	nop
80009090:	24020006 	li	v0,6
80009094:	24630001 	addiu	v1,v1,1
80009098:	1000fef9 	b	80008c80 <core_state_transition+0xa0>
8000909c:	00000000 	nop
800090a0:	03001825 	move	v1,t8
800090a4:	24020004 	li	v0,4
800090a8:	24630001 	addiu	v1,v1,1
800090ac:	1000fef4 	b	80008c80 <core_state_transition+0xa0>
800090b0:	00000000 	nop
800090b4:	24020005 	li	v0,5
800090b8:	1000ff36 	b	80008d94 <core_state_transition+0x1b4>
800090bc:	00000000 	nop

800090c0 <calc_func>:
calc_func():
800090c0:	27bdffd0 	addiu	sp,sp,-48
800090c4:	afb0001c 	sw	s0,28(sp)
800090c8:	84900000 	lh	s0,0(a0)
800090cc:	afbf002c 	sw	ra,44(sp)
800090d0:	afb30028 	sw	s3,40(sp)
800090d4:	001011c3 	sra	v0,s0,0x7
800090d8:	afb20024 	sw	s2,36(sp)
800090dc:	afb10020 	sw	s1,32(sp)
800090e0:	30430001 	andi	v1,v0,0x1
800090e4:	14600042 	bnez	v1,800091f0 <calc_func+0x130>
800090e8:	00000000 	nop
800090ec:	00808825 	move	s1,a0
800090f0:	001020c3 	sra	a0,s0,0x3
800090f4:	00a09825 	move	s3,a1
800090f8:	3087000f 	andi	a3,a0,0xf
800090fc:	00072900 	sll	a1,a3,0x4
80009100:	32060007 	andi	a2,s0,0x7
80009104:	00e52825 	or	a1,a3,a1
80009108:	10c00021 	beqz	a2,80009190 <calc_func+0xd0>
8000910c:	00000000 	nop
80009110:	24080001 	li	t0,1
80009114:	14c80042 	bne	a2,t0,80009220 <calc_func+0x160>
80009118:	00000000 	nop
8000911c:	96660038 	lhu	a2,56(s3)
80009120:	26640028 	addiu	a0,s3,40
80009124:	0c0005dc 	jal	80001770 <core_bench_matrix>
80009128:	00000000 	nop
8000912c:	9669003c 	lhu	t1,60(s3)
80009130:	00025400 	sll	t2,v0,0x10
80009134:	000a9403 	sra	s2,t2,0x10
80009138:	11200041 	beqz	t1,80009240 <calc_func+0x180>
8000913c:	00000000 	nop
80009140:	96650038 	lhu	a1,56(s3)
80009144:	3244ffff 	andi	a0,s2,0xffff
80009148:	0c001920 	jal	80006480 <crcu16>
8000914c:	00000000 	nop
80009150:	2419ff00 	li	t9,-256
80009154:	8fbf002c 	lw	ra,44(sp)
80009158:	3258007f 	andi	t8,s2,0x7f
8000915c:	02198024 	and	s0,s0,t9
80009160:	8fb20024 	lw	s2,36(sp)
80009164:	a6620038 	sh	v0,56(s3)
80009168:	36020080 	ori	v0,s0,0x80
8000916c:	03021825 	or	v1,t8,v0
80009170:	8fb30028 	lw	s3,40(sp)
80009174:	8fb0001c 	lw	s0,28(sp)
80009178:	03001025 	move	v0,t8
8000917c:	a6230000 	sh	v1,0(s1)
80009180:	8fb10020 	lw	s1,32(sp)
80009184:	27bd0030 	addiu	sp,sp,48
80009188:	03e00008 	jr	ra
8000918c:	00000000 	nop
80009190:	28ab0022 	slti	t3,a1,34
80009194:	15600026 	bnez	t3,80009230 <calc_func+0x170>
80009198:	00000000 	nop
8000919c:	00a06025 	move	t4,a1
800091a0:	966d0038 	lhu	t5,56(s3)
800091a4:	86670002 	lh	a3,2(s3)
800091a8:	86660000 	lh	a2,0(s3)
800091ac:	8e650014 	lw	a1,20(s3)
800091b0:	8e640018 	lw	a0,24(s3)
800091b4:	afad0014 	sw	t5,20(sp)
800091b8:	afac0010 	sw	t4,16(sp)
800091bc:	0c001e38 	jal	800078e0 <core_bench_state>
800091c0:	00000000 	nop
800091c4:	966e003e 	lhu	t6,62(s3)
800091c8:	00027c00 	sll	t7,v0,0x10
800091cc:	000f9403 	sra	s2,t7,0x10
800091d0:	15c0ffdb 	bnez	t6,80009140 <calc_func+0x80>
800091d4:	00000000 	nop
800091d8:	a662003e 	sh	v0,62(s3)
800091dc:	1000ffd8 	b	80009140 <calc_func+0x80>
800091e0:	00000000 	nop
	...
800091f0:	8fbf002c 	lw	ra,44(sp)
800091f4:	3202007f 	andi	v0,s0,0x7f
800091f8:	8fb30028 	lw	s3,40(sp)
800091fc:	8fb20024 	lw	s2,36(sp)
80009200:	8fb10020 	lw	s1,32(sp)
80009204:	8fb0001c 	lw	s0,28(sp)
80009208:	27bd0030 	addiu	sp,sp,48
8000920c:	03e00008 	jr	ra
80009210:	00000000 	nop
	...
80009220:	02009025 	move	s2,s0
80009224:	1000ffc6 	b	80009140 <calc_func+0x80>
80009228:	00000000 	nop
8000922c:	00000000 	nop
80009230:	240c0022 	li	t4,34
80009234:	1000ffda 	b	800091a0 <calc_func+0xe0>
80009238:	00000000 	nop
8000923c:	00000000 	nop
80009240:	a662003c 	sh	v0,60(s3)
80009244:	1000ffbe 	b	80009140 <calc_func+0x80>
80009248:	00000000 	nop
8000924c:	00000000 	nop

80009250 <cmp_complex>:
cmp_complex():
80009250:	27bdffd0 	addiu	sp,sp,-48
80009254:	afb00018 	sw	s0,24(sp)
80009258:	84900000 	lh	s0,0(a0)
8000925c:	afb30024 	sw	s3,36(sp)
80009260:	00c09825 	move	s3,a2
80009264:	afb20020 	sw	s2,32(sp)
80009268:	00a09025 	move	s2,a1
8000926c:	001011c3 	sra	v0,s0,0x7
80009270:	afbf002c 	sw	ra,44(sp)
80009274:	afb40028 	sw	s4,40(sp)
80009278:	30430001 	andi	v1,v0,0x1
8000927c:	afb1001c 	sw	s1,28(sp)
80009280:	14600077 	bnez	v1,80009460 <cmp_complex+0x210>
80009284:	00000000 	nop
80009288:	0080a025 	move	s4,a0
8000928c:	001020c3 	sra	a0,s0,0x3
80009290:	32060007 	andi	a2,s0,0x7
80009294:	3087000f 	andi	a3,a0,0xf
80009298:	00072900 	sll	a1,a3,0x4
8000929c:	00e52825 	or	a1,a3,a1
800092a0:	10c0004b 	beqz	a2,800093d0 <cmp_complex+0x180>
800092a4:	00000000 	nop
800092a8:	24080001 	li	t0,1
800092ac:	14c80070 	bne	a2,t0,80009470 <cmp_complex+0x220>
800092b0:	00000000 	nop
800092b4:	96660038 	lhu	a2,56(s3)
800092b8:	26640028 	addiu	a0,s3,40
800092bc:	0c0005dc 	jal	80001770 <core_bench_matrix>
800092c0:	00000000 	nop
800092c4:	9669003c 	lhu	t1,60(s3)
800092c8:	00025400 	sll	t2,v0,0x10
800092cc:	000a8c03 	sra	s1,t2,0x10
800092d0:	11200093 	beqz	t1,80009520 <cmp_complex+0x2d0>
800092d4:	00000000 	nop
800092d8:	96650038 	lhu	a1,56(s3)
800092dc:	3224ffff 	andi	a0,s1,0xffff
800092e0:	0c001920 	jal	80006480 <crcu16>
800092e4:	00000000 	nop
800092e8:	2419ff00 	li	t9,-256
800092ec:	3238007f 	andi	t8,s1,0x7f
800092f0:	a6620038 	sh	v0,56(s3)
800092f4:	02198024 	and	s0,s0,t9
800092f8:	36020080 	ori	v0,s0,0x80
800092fc:	03021825 	or	v1,t8,v0
80009300:	03008025 	move	s0,t8
80009304:	a6830000 	sh	v1,0(s4)
80009308:	86510000 	lh	s1,0(s2)
8000930c:	00000000 	nop
80009310:	001121c3 	sra	a0,s1,0x7
80009314:	309f0001 	andi	ra,a0,0x1
80009318:	17e00045 	bnez	ra,80009430 <cmp_complex+0x1e0>
8000931c:	00000000 	nop
80009320:	001130c3 	sra	a2,s1,0x3
80009324:	32340007 	andi	s4,s1,0x7
80009328:	30c7000f 	andi	a3,a2,0xf
8000932c:	00072900 	sll	a1,a3,0x4
80009330:	00e52825 	or	a1,a3,a1
80009334:	12800056 	beqz	s4,80009490 <cmp_complex+0x240>
80009338:	00000000 	nop
8000933c:	24080001 	li	t0,1
80009340:	1688004f 	bne	s4,t0,80009480 <cmp_complex+0x230>
80009344:	00000000 	nop
80009348:	96660038 	lhu	a2,56(s3)
8000934c:	26640028 	addiu	a0,s3,40
80009350:	0c0005dc 	jal	80001770 <core_bench_matrix>
80009354:	00000000 	nop
80009358:	9669003c 	lhu	t1,60(s3)
8000935c:	00025400 	sll	t2,v0,0x10
80009360:	000aa403 	sra	s4,t2,0x10
80009364:	11200066 	beqz	t1,80009500 <cmp_complex+0x2b0>
80009368:	00000000 	nop
8000936c:	96650038 	lhu	a1,56(s3)
80009370:	3284ffff 	andi	a0,s4,0xffff
80009374:	0c001920 	jal	80006480 <crcu16>
80009378:	00000000 	nop
8000937c:	3298007f 	andi	t8,s4,0x7f
80009380:	8fbf002c 	lw	ra,44(sp)
80009384:	a6620038 	sh	v0,56(s3)
80009388:	2413ff00 	li	s3,-256
8000938c:	8fb40028 	lw	s4,40(sp)
80009390:	0233c824 	and	t9,s1,s3
80009394:	8fb30024 	lw	s3,36(sp)
80009398:	37220080 	ori	v0,t9,0x80
8000939c:	03021825 	or	v1,t8,v0
800093a0:	03008825 	move	s1,t8
800093a4:	02111023 	subu	v0,s0,s1
800093a8:	8fb1001c 	lw	s1,28(sp)
800093ac:	8fb00018 	lw	s0,24(sp)
800093b0:	a6430000 	sh	v1,0(s2)
800093b4:	8fb20020 	lw	s2,32(sp)
800093b8:	27bd0030 	addiu	sp,sp,48
800093bc:	03e00008 	jr	ra
800093c0:	00000000 	nop
	...
800093d0:	28ab0022 	slti	t3,a1,34
800093d4:	1560004e 	bnez	t3,80009510 <cmp_complex+0x2c0>
800093d8:	00000000 	nop
800093dc:	00a06025 	move	t4,a1
800093e0:	966d0038 	lhu	t5,56(s3)
800093e4:	86670002 	lh	a3,2(s3)
800093e8:	86660000 	lh	a2,0(s3)
800093ec:	8e650014 	lw	a1,20(s3)
800093f0:	8e640018 	lw	a0,24(s3)
800093f4:	afad0014 	sw	t5,20(sp)
800093f8:	afac0010 	sw	t4,16(sp)
800093fc:	0c001e38 	jal	800078e0 <core_bench_state>
80009400:	00000000 	nop
80009404:	966e003e 	lhu	t6,62(s3)
80009408:	00027c00 	sll	t7,v0,0x10
8000940c:	000f8c03 	sra	s1,t7,0x10
80009410:	15c0ffb1 	bnez	t6,800092d8 <cmp_complex+0x88>
80009414:	00000000 	nop
80009418:	a662003e 	sh	v0,62(s3)
8000941c:	1000ffae 	b	800092d8 <cmp_complex+0x88>
80009420:	00000000 	nop
	...
80009430:	8fbf002c 	lw	ra,44(sp)
80009434:	3231007f 	andi	s1,s1,0x7f
80009438:	02111023 	subu	v0,s0,s1
8000943c:	8fb40028 	lw	s4,40(sp)
80009440:	8fb30024 	lw	s3,36(sp)
80009444:	8fb20020 	lw	s2,32(sp)
80009448:	8fb1001c 	lw	s1,28(sp)
8000944c:	8fb00018 	lw	s0,24(sp)
80009450:	27bd0030 	addiu	sp,sp,48
80009454:	03e00008 	jr	ra
80009458:	00000000 	nop
8000945c:	00000000 	nop
80009460:	3210007f 	andi	s0,s0,0x7f
80009464:	1000ffa8 	b	80009308 <cmp_complex+0xb8>
80009468:	00000000 	nop
8000946c:	00000000 	nop
80009470:	02008825 	move	s1,s0
80009474:	1000ff98 	b	800092d8 <cmp_complex+0x88>
80009478:	00000000 	nop
8000947c:	00000000 	nop
80009480:	0220a025 	move	s4,s1
80009484:	1000ffb9 	b	8000936c <cmp_complex+0x11c>
80009488:	00000000 	nop
8000948c:	00000000 	nop
80009490:	28ab0022 	slti	t3,a1,34
80009494:	15600016 	bnez	t3,800094f0 <cmp_complex+0x2a0>
80009498:	00000000 	nop
8000949c:	00a06025 	move	t4,a1
800094a0:	966d0038 	lhu	t5,56(s3)
800094a4:	86670002 	lh	a3,2(s3)
800094a8:	86660000 	lh	a2,0(s3)
800094ac:	8e650014 	lw	a1,20(s3)
800094b0:	8e640018 	lw	a0,24(s3)
800094b4:	afad0014 	sw	t5,20(sp)
800094b8:	afac0010 	sw	t4,16(sp)
800094bc:	0c001e38 	jal	800078e0 <core_bench_state>
800094c0:	00000000 	nop
800094c4:	966e003e 	lhu	t6,62(s3)
800094c8:	00027c00 	sll	t7,v0,0x10
800094cc:	000fa403 	sra	s4,t7,0x10
800094d0:	15c0ffa6 	bnez	t6,8000936c <cmp_complex+0x11c>
800094d4:	00000000 	nop
800094d8:	a662003e 	sh	v0,62(s3)
800094dc:	1000ffa3 	b	8000936c <cmp_complex+0x11c>
800094e0:	00000000 	nop
	...
800094f0:	240c0022 	li	t4,34
800094f4:	1000ffea 	b	800094a0 <cmp_complex+0x250>
800094f8:	00000000 	nop
800094fc:	00000000 	nop
80009500:	a662003c 	sh	v0,60(s3)
80009504:	1000ff99 	b	8000936c <cmp_complex+0x11c>
80009508:	00000000 	nop
8000950c:	00000000 	nop
80009510:	240c0022 	li	t4,34
80009514:	1000ffb2 	b	800093e0 <cmp_complex+0x190>
80009518:	00000000 	nop
8000951c:	00000000 	nop
80009520:	a662003c 	sh	v0,60(s3)
80009524:	1000ff6c 	b	800092d8 <cmp_complex+0x88>
80009528:	00000000 	nop
8000952c:	00000000 	nop

80009530 <cmp_idx>:
cmp_idx():
80009530:	10c00007 	beqz	a2,80009550 <cmp_idx+0x20>
80009534:	00000000 	nop
80009538:	84840002 	lh	a0,2(a0)
8000953c:	84a50002 	lh	a1,2(a1)
80009540:	00000000 	nop
80009544:	00851023 	subu	v0,a0,a1
80009548:	03e00008 	jr	ra
8000954c:	00000000 	nop
80009550:	84830000 	lh	v1,0(a0)
80009554:	2407ff00 	li	a3,-256
80009558:	3066ffff 	andi	a2,v1,0xffff
8000955c:	00061202 	srl	v0,a2,0x8
80009560:	00674024 	and	t0,v1,a3
80009564:	01024825 	or	t1,t0,v0
80009568:	a4890000 	sh	t1,0(a0)
8000956c:	84aa0000 	lh	t2,0(a1)
80009570:	84840002 	lh	a0,2(a0)
80009574:	314bffff 	andi	t3,t2,0xffff
80009578:	000b6202 	srl	t4,t3,0x8
8000957c:	01476824 	and	t5,t2,a3
80009580:	01ac7025 	or	t6,t5,t4
80009584:	a4ae0000 	sh	t6,0(a1)
80009588:	84a50002 	lh	a1,2(a1)
8000958c:	00000000 	nop
80009590:	00851023 	subu	v0,a0,a1
80009594:	03e00008 	jr	ra
80009598:	00000000 	nop
8000959c:	00000000 	nop

800095a0 <copy_info>:
copy_info():
800095a0:	84a30000 	lh	v1,0(a1)
800095a4:	84a20002 	lh	v0,2(a1)
800095a8:	a4830000 	sh	v1,0(a0)
800095ac:	a4820002 	sh	v0,2(a0)
800095b0:	03e00008 	jr	ra
800095b4:	00000000 	nop
	...

800095c0 <core_bench_list>:
core_bench_list():
800095c0:	848a0004 	lh	t2,4(a0)
800095c4:	27bdffa0 	addiu	sp,sp,-96
800095c8:	00052c00 	sll	a1,a1,0x10
800095cc:	afbe0058 	sw	s8,88(sp)
800095d0:	afb40048 	sw	s4,72(sp)
800095d4:	0005c403 	sra	t8,a1,0x10
800095d8:	afbf005c 	sw	ra,92(sp)
800095dc:	0080a025 	move	s4,a0
800095e0:	afb70054 	sw	s7,84(sp)
800095e4:	afb60050 	sw	s6,80(sp)
800095e8:	afb5004c 	sw	s5,76(sp)
800095ec:	afb30044 	sw	s3,68(sp)
800095f0:	afb20040 	sw	s2,64(sp)
800095f4:	afb1003c 	sw	s1,60(sp)
800095f8:	afb00038 	sw	s0,56(sp)
800095fc:	8c9e0024 	lw	s8,36(a0)
80009600:	1940037b 	blez	t2,8000a3f0 <core_bench_list+0xe30>
80009604:	00000000 	nop
80009608:	00004025 	move	t0,zero
8000960c:	afb80018 	sw	t8,24(sp)
80009610:	00005825 	move	t3,zero
80009614:	00004825 	move	t1,zero
80009618:	00006025 	move	t4,zero
8000961c:	8fa30018 	lw	v1,24(sp)
80009620:	310200ff 	andi	v0,t0,0xff
80009624:	afa20024 	sw	v0,36(sp)
80009628:	0460032d 	bltz	v1,8000a2e0 <core_bench_list+0xd20>
8000962c:	00000000 	nop
80009630:	13c00343 	beqz	s8,8000a340 <core_bench_list+0xd80>
80009634:	00000000 	nop
80009638:	8fd10004 	lw	s1,4(s8)
8000963c:	03c09825 	move	s3,s8
80009640:	86320002 	lh	s2,2(s1)
80009644:	00000000 	nop
80009648:	1643000b 	bne	s2,v1,80009678 <core_bench_list+0xb8>
8000964c:	00000000 	nop
80009650:	1000000d 	b	80009688 <core_bench_list+0xc8>
80009654:	00000000 	nop
	...
80009660:	8e750004 	lw	s5,4(s3)
80009664:	8fb70018 	lw	s7,24(sp)
80009668:	86b60002 	lh	s6,2(s5)
8000966c:	00000000 	nop
80009670:	12d70005 	beq	s6,s7,80009688 <core_bench_list+0xc8>
80009674:	00000000 	nop
80009678:	8e730000 	lw	s3,0(s3)
8000967c:	00000000 	nop
80009680:	1660fff7 	bnez	s3,80009660 <core_bench_list+0xa0>
80009684:	00000000 	nop
80009688:	00007025 	move	t6,zero
8000968c:	8fd90000 	lw	t9,0(s8)
80009690:	03c0f825 	move	ra,s8
80009694:	afce0000 	sw	t6,0(s8)
80009698:	1320002b 	beqz	t9,80009748 <core_bench_list+0x188>
8000969c:	00000000 	nop
800096a0:	8f250000 	lw	a1,0(t9)
800096a4:	0320f025 	move	s8,t9
800096a8:	af3f0000 	sw	ra,0(t9)
800096ac:	10a00026 	beqz	a1,80009748 <core_bench_list+0x188>
800096b0:	00000000 	nop
800096b4:	8ca20000 	lw	v0,0(a1)
800096b8:	00a0f025 	move	s8,a1
800096bc:	acb90000 	sw	t9,0(a1)
800096c0:	10400021 	beqz	v0,80009748 <core_bench_list+0x188>
800096c4:	00000000 	nop
800096c8:	8c430000 	lw	v1,0(v0)
800096cc:	0040f025 	move	s8,v0
800096d0:	ac450000 	sw	a1,0(v0)
800096d4:	1060001c 	beqz	v1,80009748 <core_bench_list+0x188>
800096d8:	00000000 	nop
800096dc:	8c660000 	lw	a2,0(v1)
800096e0:	0060f025 	move	s8,v1
800096e4:	ac620000 	sw	v0,0(v1)
800096e8:	10c00017 	beqz	a2,80009748 <core_bench_list+0x188>
800096ec:	00000000 	nop
800096f0:	8cc70000 	lw	a3,0(a2)
800096f4:	00c0f025 	move	s8,a2
800096f8:	acc30000 	sw	v1,0(a2)
800096fc:	10e00012 	beqz	a3,80009748 <core_bench_list+0x188>
80009700:	00000000 	nop
80009704:	8ce40000 	lw	a0,0(a3)
80009708:	00e0f025 	move	s8,a3
8000970c:	ace60000 	sw	a2,0(a3)
80009710:	1080000d 	beqz	a0,80009748 <core_bench_list+0x188>
80009714:	00000000 	nop
80009718:	8c8d0000 	lw	t5,0(a0)
8000971c:	0080f025 	move	s8,a0
80009720:	ac870000 	sw	a3,0(a0)
80009724:	00807025 	move	t6,a0
80009728:	11a00007 	beqz	t5,80009748 <core_bench_list+0x188>
8000972c:	00000000 	nop
80009730:	01a0f025 	move	s8,t5
80009734:	03c0f825 	move	ra,s8
80009738:	8fd90000 	lw	t9,0(s8)
8000973c:	afce0000 	sw	t6,0(s8)
80009740:	1720ffd7 	bnez	t9,800096a0 <core_bench_list+0xe0>
80009744:	00000000 	nop
80009748:	126002fd 	beqz	s3,8000a340 <core_bench_list+0xd80>
8000974c:	00000000 	nop
80009750:	8e6f0004 	lw	t7,4(s3)
80009754:	25290001 	addiu	t1,t1,1
80009758:	3129ffff 	andi	t1,t1,0xffff
8000975c:	85f00000 	lh	s0,0(t7)
80009760:	00000000 	nop
80009764:	32110001 	andi	s1,s0,0x1
80009768:	12200005 	beqz	s1,80009780 <core_bench_list+0x1c0>
8000976c:	00000000 	nop
80009770:	00109243 	sra	s2,s0,0x9
80009774:	32550001 	andi	s5,s2,0x1
80009778:	01956021 	addu	t4,t4,s5
8000977c:	318cffff 	andi	t4,t4,0xffff
80009780:	8e760000 	lw	s6,0(s3)
80009784:	00000000 	nop
80009788:	12c00008 	beqz	s6,800097ac <core_bench_list+0x1ec>
8000978c:	00000000 	nop
80009790:	8ed70000 	lw	s7,0(s6)
80009794:	00000000 	nop
80009798:	ae770000 	sw	s7,0(s3)
8000979c:	8fd30000 	lw	s3,0(s8)
800097a0:	00000000 	nop
800097a4:	aed30000 	sw	s3,0(s6)
800097a8:	afd60000 	sw	s6,0(s8)
800097ac:	8fa60018 	lw	a2,24(sp)
800097b0:	00000000 	nop
800097b4:	04c00005 	bltz	a2,800097cc <core_bench_list+0x20c>
800097b8:	00000000 	nop
800097bc:	24c70001 	addiu	a3,a2,1
800097c0:	00072400 	sll	a0,a3,0x10
800097c4:	00046c03 	sra	t5,a0,0x10
800097c8:	afad0018 	sw	t5,24(sp)
800097cc:	25080001 	addiu	t0,t0,1
800097d0:	00087400 	sll	t6,t0,0x10
800097d4:	000e4403 	sra	t0,t6,0x10
800097d8:	1548ff90 	bne	t2,t0,8000961c <core_bench_list+0x5c>
800097dc:	00000000 	nop
800097e0:	00095080 	sll	t2,t1,0x2
800097e4:	014b7823 	subu	t7,t2,t3
800097e8:	018f4821 	addu	t1,t4,t7
800097ec:	3130ffff 	andi	s0,t1,0xffff
800097f0:	afb0002c 	sw	s0,44(sp)
800097f4:	1b0000e1 	blez	t8,80009b7c <core_bench_list+0x5bc>
800097f8:	00000000 	nop
800097fc:	24180001 	li	t8,1
80009800:	26910028 	addiu	s1,s4,40
80009804:	03c0b825 	move	s7,s8
80009808:	afb80028 	sw	t8,40(sp)
8000980c:	afb10030 	sw	s1,48(sp)
80009810:	13c002dd 	beqz	s8,8000a388 <core_bench_list+0xdc8>
80009814:	00000000 	nop
80009818:	0000f025 	move	s8,zero
8000981c:	afa00034 	sw	zero,52(sp)
80009820:	0000b025 	move	s6,zero
80009824:	8fac0034 	lw	t4,52(sp)
80009828:	8fb20028 	lw	s2,40(sp)
8000982c:	8ee20000 	lw	v0,0(s7)
80009830:	25930001 	addiu	s3,t4,1
80009834:	2655ffff 	addiu	s5,s2,-1
80009838:	afb30034 	sw	s3,52(sp)
8000983c:	32b90007 	andi	t9,s5,0x7
80009840:	24150001 	li	s5,1
80009844:	10400059 	beqz	v0,800099ac <core_bench_list+0x3ec>
80009848:	00000000 	nop
8000984c:	8fab0028 	lw	t3,40(sp)
80009850:	00000000 	nop
80009854:	12ab0055 	beq	s5,t3,800099ac <core_bench_list+0x3ec>
80009858:	00000000 	nop
8000985c:	13200032 	beqz	t9,80009928 <core_bench_list+0x368>
80009860:	00000000 	nop
80009864:	13350028 	beq	t9,s5,80009908 <core_bench_list+0x348>
80009868:	00000000 	nop
8000986c:	241f0002 	li	ra,2
80009870:	133f0021 	beq	t9,ra,800098f8 <core_bench_list+0x338>
80009874:	00000000 	nop
80009878:	24050003 	li	a1,3
8000987c:	1325001a 	beq	t9,a1,800098e8 <core_bench_list+0x328>
80009880:	00000000 	nop
80009884:	24030004 	li	v1,4
80009888:	13230013 	beq	t9,v1,800098d8 <core_bench_list+0x318>
8000988c:	00000000 	nop
80009890:	24060005 	li	a2,5
80009894:	1326000c 	beq	t9,a2,800098c8 <core_bench_list+0x308>
80009898:	00000000 	nop
8000989c:	24070006 	li	a3,6
800098a0:	13270005 	beq	t9,a3,800098b8 <core_bench_list+0x2f8>
800098a4:	00000000 	nop
800098a8:	8c420000 	lw	v0,0(v0)
800098ac:	24150002 	li	s5,2
800098b0:	1040003e 	beqz	v0,800099ac <core_bench_list+0x3ec>
800098b4:	00000000 	nop
800098b8:	8c420000 	lw	v0,0(v0)
800098bc:	26b50001 	addiu	s5,s5,1
800098c0:	1040003a 	beqz	v0,800099ac <core_bench_list+0x3ec>
800098c4:	00000000 	nop
800098c8:	8c420000 	lw	v0,0(v0)
800098cc:	26b50001 	addiu	s5,s5,1
800098d0:	10400036 	beqz	v0,800099ac <core_bench_list+0x3ec>
800098d4:	00000000 	nop
800098d8:	8c420000 	lw	v0,0(v0)
800098dc:	26b50001 	addiu	s5,s5,1
800098e0:	10400032 	beqz	v0,800099ac <core_bench_list+0x3ec>
800098e4:	00000000 	nop
800098e8:	8c420000 	lw	v0,0(v0)
800098ec:	26b50001 	addiu	s5,s5,1
800098f0:	1040002e 	beqz	v0,800099ac <core_bench_list+0x3ec>
800098f4:	00000000 	nop
800098f8:	8c420000 	lw	v0,0(v0)
800098fc:	26b50001 	addiu	s5,s5,1
80009900:	1040002a 	beqz	v0,800099ac <core_bench_list+0x3ec>
80009904:	00000000 	nop
80009908:	8c420000 	lw	v0,0(v0)
8000990c:	26b50001 	addiu	s5,s5,1
80009910:	10400026 	beqz	v0,800099ac <core_bench_list+0x3ec>
80009914:	00000000 	nop
80009918:	8fa40028 	lw	a0,40(sp)
8000991c:	00000000 	nop
80009920:	12a40022 	beq	s5,a0,800099ac <core_bench_list+0x3ec>
80009924:	00000000 	nop
80009928:	8c420000 	lw	v0,0(v0)
8000992c:	26b50001 	addiu	s5,s5,1
80009930:	02a06825 	move	t5,s5
80009934:	1040001d 	beqz	v0,800099ac <core_bench_list+0x3ec>
80009938:	00000000 	nop
8000993c:	8c420000 	lw	v0,0(v0)
80009940:	26b50001 	addiu	s5,s5,1
80009944:	10400019 	beqz	v0,800099ac <core_bench_list+0x3ec>
80009948:	00000000 	nop
8000994c:	8c420000 	lw	v0,0(v0)
80009950:	25b50002 	addiu	s5,t5,2
80009954:	10400015 	beqz	v0,800099ac <core_bench_list+0x3ec>
80009958:	00000000 	nop
8000995c:	8c420000 	lw	v0,0(v0)
80009960:	25b50003 	addiu	s5,t5,3
80009964:	10400011 	beqz	v0,800099ac <core_bench_list+0x3ec>
80009968:	00000000 	nop
8000996c:	8c420000 	lw	v0,0(v0)
80009970:	25b50004 	addiu	s5,t5,4
80009974:	1040000d 	beqz	v0,800099ac <core_bench_list+0x3ec>
80009978:	00000000 	nop
8000997c:	8c420000 	lw	v0,0(v0)
80009980:	25b50005 	addiu	s5,t5,5
80009984:	10400009 	beqz	v0,800099ac <core_bench_list+0x3ec>
80009988:	00000000 	nop
8000998c:	8c420000 	lw	v0,0(v0)
80009990:	25b50006 	addiu	s5,t5,6
80009994:	10400005 	beqz	v0,800099ac <core_bench_list+0x3ec>
80009998:	00000000 	nop
8000999c:	8c420000 	lw	v0,0(v0)
800099a0:	25b50007 	addiu	s5,t5,7
800099a4:	1440ffdc 	bnez	v0,80009918 <core_bench_list+0x358>
800099a8:	00000000 	nop
800099ac:	02e08825 	move	s1,s7
800099b0:	8fb30028 	lw	s3,40(sp)
800099b4:	0040b825 	move	s7,v0
800099b8:	12a00066 	beqz	s5,80009b54 <core_bench_list+0x594>
800099bc:	00000000 	nop
800099c0:	12600173 	beqz	s3,80009f90 <core_bench_list+0x9d0>
800099c4:	00000000 	nop
800099c8:	12e00171 	beqz	s7,80009f90 <core_bench_list+0x9d0>
800099cc:	00000000 	nop
800099d0:	8e2c0004 	lw	t4,4(s1)
800099d4:	8ef20004 	lw	s2,4(s7)
800099d8:	85900000 	lh	s0,0(t4)
800099dc:	00000000 	nop
800099e0:	32050080 	andi	a1,s0,0x80
800099e4:	14a00182 	bnez	a1,80009ff0 <core_bench_list+0xa30>
800099e8:	00000000 	nop
800099ec:	001018c3 	sra	v1,s0,0x3
800099f0:	320b0007 	andi	t3,s0,0x7
800099f4:	3079000f 	andi	t9,v1,0xf
800099f8:	00194900 	sll	t1,t9,0x4
800099fc:	03292825 	or	a1,t9,t1
80009a00:	116001a7 	beqz	t3,8000a0a0 <core_bench_list+0xae0>
80009a04:	00000000 	nop
80009a08:	241f0001 	li	ra,1
80009a0c:	157f01a0 	bne	t3,ra,8000a090 <core_bench_list+0xad0>
80009a10:	00000000 	nop
80009a14:	96860038 	lhu	a2,56(s4)
80009a18:	8fa40030 	lw	a0,48(sp)
80009a1c:	afac001c 	sw	t4,28(sp)
80009a20:	0c0005dc 	jal	80001770 <core_bench_matrix>
80009a24:	00000000 	nop
80009a28:	968f003c 	lhu	t7,60(s4)
80009a2c:	00023c00 	sll	a3,v0,0x10
80009a30:	8fac001c 	lw	t4,28(sp)
80009a34:	0007c403 	sra	t8,a3,0x10
80009a38:	15e00002 	bnez	t7,80009a44 <core_bench_list+0x484>
80009a3c:	00000000 	nop
80009a40:	a682003c 	sh	v0,60(s4)
80009a44:	96850038 	lhu	a1,56(s4)
80009a48:	3304ffff 	andi	a0,t8,0xffff
80009a4c:	afac0020 	sw	t4,32(sp)
80009a50:	afb8001c 	sw	t8,28(sp)
80009a54:	0c001920 	jal	80006480 <crcu16>
80009a58:	00000000 	nop
80009a5c:	2406ff00 	li	a2,-256
80009a60:	8fac001c 	lw	t4,28(sp)
80009a64:	02062024 	and	a0,s0,a2
80009a68:	8fab0020 	lw	t3,32(sp)
80009a6c:	34850080 	ori	a1,a0,0x80
80009a70:	a6820038 	sh	v0,56(s4)
80009a74:	3190007f 	andi	s0,t4,0x7f
80009a78:	02051825 	or	v1,s0,a1
80009a7c:	afb0001c 	sw	s0,28(sp)
80009a80:	a5630000 	sh	v1,0(t3)
80009a84:	86500000 	lh	s0,0(s2)
80009a88:	00000000 	nop
80009a8c:	32090080 	andi	t1,s0,0x80
80009a90:	1520015d 	bnez	t1,8000a008 <core_bench_list+0xa48>
80009a94:	00000000 	nop
80009a98:	001038c3 	sra	a3,s0,0x3
80009a9c:	321f0007 	andi	ra,s0,0x7
80009aa0:	30f8000f 	andi	t8,a3,0xf
80009aa4:	00187900 	sll	t7,t8,0x4
80009aa8:	030f2825 	or	a1,t8,t7
80009aac:	13e00160 	beqz	ra,8000a030 <core_bench_list+0xa70>
80009ab0:	00000000 	nop
80009ab4:	240d0001 	li	t5,1
80009ab8:	17ed0159 	bne	ra,t5,8000a020 <core_bench_list+0xa60>
80009abc:	00000000 	nop
80009ac0:	96860038 	lhu	a2,56(s4)
80009ac4:	8fa40030 	lw	a0,48(sp)
80009ac8:	0c0005dc 	jal	80001770 <core_bench_matrix>
80009acc:	00000000 	nop
80009ad0:	9688003c 	lhu	t0,60(s4)
80009ad4:	00025400 	sll	t2,v0,0x10
80009ad8:	000a7403 	sra	t6,t2,0x10
80009adc:	15000002 	bnez	t0,80009ae8 <core_bench_list+0x528>
80009ae0:	00000000 	nop
80009ae4:	a682003c 	sh	v0,60(s4)
80009ae8:	96850038 	lhu	a1,56(s4)
80009aec:	31c4ffff 	andi	a0,t6,0xffff
80009af0:	afae0020 	sw	t6,32(sp)
80009af4:	0c001920 	jal	80006480 <crcu16>
80009af8:	00000000 	nop
80009afc:	2405ff00 	li	a1,-256
80009b00:	8fb90020 	lw	t9,32(sp)
80009b04:	02055824 	and	t3,s0,a1
80009b08:	a6820038 	sh	v0,56(s4)
80009b0c:	35690080 	ori	t1,t3,0x80
80009b10:	3330007f 	andi	s0,t9,0x7f
80009b14:	02093825 	or	a3,s0,t1
80009b18:	a6470000 	sh	a3,0(s2)
80009b1c:	8fb2001c 	lw	s2,28(sp)
80009b20:	00000000 	nop
80009b24:	0250f823 	subu	ra,s2,s0
80009b28:	1be00119 	blez	ra,80009f90 <core_bench_list+0x9d0>
80009b2c:	00000000 	nop
80009b30:	02e0c025 	move	t8,s7
80009b34:	8ef70000 	lw	s7,0(s7)
80009b38:	2673ffff 	addiu	s3,s3,-1
80009b3c:	12c00119 	beqz	s6,80009fa4 <core_bench_list+0x9e4>
80009b40:	00000000 	nop
80009b44:	aed80000 	sw	t8,0(s6)
80009b48:	0300b025 	move	s6,t8
80009b4c:	16a0ff9c 	bnez	s5,800099c0 <core_bench_list+0x400>
80009b50:	00000000 	nop
80009b54:	126001db 	beqz	s3,8000a2c4 <core_bench_list+0xd04>
80009b58:	00000000 	nop
80009b5c:	16e0fff4 	bnez	s7,80009b30 <core_bench_list+0x570>
80009b60:	00000000 	nop
80009b64:	aec00000 	sw	zero,0(s6)
80009b68:	24170001 	li	s7,1
80009b6c:	8fb60034 	lw	s6,52(sp)
80009b70:	00000000 	nop
80009b74:	16d701fe 	bne	s6,s7,8000a370 <core_bench_list+0xdb0>
80009b78:	00000000 	nop
80009b7c:	8fd40000 	lw	s4,0(s8)
80009b80:	03c08025 	move	s0,s8
80009b84:	8fa90018 	lw	t1,24(sp)
80009b88:	8e920000 	lw	s2,0(s4)
80009b8c:	8e9f0004 	lw	ra,4(s4)
80009b90:	8e4a0004 	lw	t2,4(s2)
80009b94:	8e4f0000 	lw	t7,0(s2)
80009b98:	ae8a0004 	sw	t2,4(s4)
80009b9c:	ae5f0004 	sw	ra,4(s2)
80009ba0:	ae8f0000 	sw	t7,0(s4)
80009ba4:	ae400000 	sw	zero,0(s2)
80009ba8:	052001ff 	bltz	t1,8000a3a8 <core_bench_list+0xde8>
80009bac:	00000000 	nop
80009bb0:	01209825 	move	s3,t1
80009bb4:	8e190004 	lw	t9,4(s0)
80009bb8:	00000000 	nop
80009bbc:	872b0002 	lh	t3,2(t9)
80009bc0:	00000000 	nop
80009bc4:	1173000a 	beq	t3,s3,80009bf0 <core_bench_list+0x630>
80009bc8:	00000000 	nop
80009bcc:	8e100000 	lw	s0,0(s0)
80009bd0:	00000000 	nop
80009bd4:	1600fff7 	bnez	s0,80009bb4 <core_bench_list+0x5f4>
80009bd8:	00000000 	nop
80009bdc:	8fc30000 	lw	v1,0(s8)
80009be0:	00000000 	nop
80009be4:	00608025 	move	s0,v1
80009be8:	10600052 	beqz	v1,80009d34 <core_bench_list+0x774>
80009bec:	00000000 	nop
80009bf0:	8fc60004 	lw	a2,4(s8)
80009bf4:	8fa5002c 	lw	a1,44(sp)
80009bf8:	84c40000 	lh	a0,0(a2)
80009bfc:	0c001cf0 	jal	800073c0 <crc16>
80009c00:	00000000 	nop
80009c04:	8e100000 	lw	s0,0(s0)
80009c08:	afa2002c 	sw	v0,44(sp)
80009c0c:	12000046 	beqz	s0,80009d28 <core_bench_list+0x768>
80009c10:	00000000 	nop
80009c14:	8fc70004 	lw	a3,4(s8)
80009c18:	00402825 	move	a1,v0
80009c1c:	84e40000 	lh	a0,0(a3)
80009c20:	0c001cf0 	jal	800073c0 <crc16>
80009c24:	00000000 	nop
80009c28:	8e150000 	lw	s5,0(s0)
80009c2c:	00402825 	move	a1,v0
80009c30:	afa2002c 	sw	v0,44(sp)
80009c34:	12a0003c 	beqz	s5,80009d28 <core_bench_list+0x768>
80009c38:	00000000 	nop
80009c3c:	8fc40004 	lw	a0,4(s8)
80009c40:	00000000 	nop
80009c44:	84840000 	lh	a0,0(a0)
80009c48:	0c001cf0 	jal	800073c0 <crc16>
80009c4c:	00000000 	nop
80009c50:	8eb60000 	lw	s6,0(s5)
80009c54:	00402825 	move	a1,v0
80009c58:	afa2002c 	sw	v0,44(sp)
80009c5c:	12c00032 	beqz	s6,80009d28 <core_bench_list+0x768>
80009c60:	00000000 	nop
80009c64:	8fcd0004 	lw	t5,4(s8)
80009c68:	00000000 	nop
80009c6c:	85a40000 	lh	a0,0(t5)
80009c70:	0c001cf0 	jal	800073c0 <crc16>
80009c74:	00000000 	nop
80009c78:	8ed70000 	lw	s7,0(s6)
80009c7c:	00402825 	move	a1,v0
80009c80:	afa2002c 	sw	v0,44(sp)
80009c84:	12e00028 	beqz	s7,80009d28 <core_bench_list+0x768>
80009c88:	00000000 	nop
80009c8c:	8fc20004 	lw	v0,4(s8)
80009c90:	00000000 	nop
80009c94:	84440000 	lh	a0,0(v0)
80009c98:	0c001cf0 	jal	800073c0 <crc16>
80009c9c:	00000000 	nop
80009ca0:	8ef40000 	lw	s4,0(s7)
80009ca4:	00402825 	move	a1,v0
80009ca8:	afa2002c 	sw	v0,44(sp)
80009cac:	1280001e 	beqz	s4,80009d28 <core_bench_list+0x768>
80009cb0:	00000000 	nop
80009cb4:	8fce0004 	lw	t6,4(s8)
80009cb8:	00000000 	nop
80009cbc:	85c40000 	lh	a0,0(t6)
80009cc0:	0c001cf0 	jal	800073c0 <crc16>
80009cc4:	00000000 	nop
80009cc8:	8e910000 	lw	s1,0(s4)
80009ccc:	00402825 	move	a1,v0
80009cd0:	afa2002c 	sw	v0,44(sp)
80009cd4:	12200014 	beqz	s1,80009d28 <core_bench_list+0x768>
80009cd8:	00000000 	nop
80009cdc:	8fc80004 	lw	t0,4(s8)
80009ce0:	00000000 	nop
80009ce4:	85040000 	lh	a0,0(t0)
80009ce8:	0c001cf0 	jal	800073c0 <crc16>
80009cec:	00000000 	nop
80009cf0:	8e330000 	lw	s3,0(s1)
80009cf4:	00402825 	move	a1,v0
80009cf8:	afa2002c 	sw	v0,44(sp)
80009cfc:	1260000a 	beqz	s3,80009d28 <core_bench_list+0x768>
80009d00:	00000000 	nop
80009d04:	8fca0004 	lw	t2,4(s8)
80009d08:	00000000 	nop
80009d0c:	85440000 	lh	a0,0(t2)
80009d10:	0c001cf0 	jal	800073c0 <crc16>
80009d14:	00000000 	nop
80009d18:	8e700000 	lw	s0,0(s3)
80009d1c:	afa2002c 	sw	v0,44(sp)
80009d20:	1600ffb3 	bnez	s0,80009bf0 <core_bench_list+0x630>
80009d24:	00000000 	nop
80009d28:	8e5f0004 	lw	ra,4(s2)
80009d2c:	8fc30000 	lw	v1,0(s8)
80009d30:	00000000 	nop
80009d34:	8c6f0004 	lw	t7,4(v1)
80009d38:	240c0001 	li	t4,1
80009d3c:	8c650000 	lw	a1,0(v1)
80009d40:	240bff00 	li	t3,-256
80009d44:	24110001 	li	s1,1
80009d48:	ae4f0004 	sw	t7,4(s2)
80009d4c:	ac7f0004 	sw	ra,4(v1)
80009d50:	ae450000 	sw	a1,0(s2)
80009d54:	ac720000 	sw	s2,0(v1)
80009d58:	00008025 	move	s0,zero
80009d5c:	00002025 	move	a0,zero
80009d60:	0000a025 	move	s4,zero
80009d64:	8fd50000 	lw	s5,0(s8)
80009d68:	2589ffff 	addiu	t1,t4,-1
80009d6c:	26940001 	addiu	s4,s4,1
80009d70:	31380007 	andi	t8,t1,0x7
80009d74:	24160001 	li	s6,1
80009d78:	12a00055 	beqz	s5,80009ed0 <core_bench_list+0x910>
80009d7c:	00000000 	nop
80009d80:	11960144 	beq	t4,s6,8000a294 <core_bench_list+0xcd4>
80009d84:	00000000 	nop
80009d88:	13000030 	beqz	t8,80009e4c <core_bench_list+0x88c>
80009d8c:	00000000 	nop
80009d90:	13160028 	beq	t8,s6,80009e34 <core_bench_list+0x874>
80009d94:	00000000 	nop
80009d98:	24190002 	li	t9,2
80009d9c:	13190021 	beq	t8,t9,80009e24 <core_bench_list+0x864>
80009da0:	00000000 	nop
80009da4:	241f0003 	li	ra,3
80009da8:	131f001a 	beq	t8,ra,80009e14 <core_bench_list+0x854>
80009dac:	00000000 	nop
80009db0:	24120004 	li	s2,4
80009db4:	13120013 	beq	t8,s2,80009e04 <core_bench_list+0x844>
80009db8:	00000000 	nop
80009dbc:	24030005 	li	v1,5
80009dc0:	1303000c 	beq	t8,v1,80009df4 <core_bench_list+0x834>
80009dc4:	00000000 	nop
80009dc8:	24060006 	li	a2,6
80009dcc:	13060005 	beq	t8,a2,80009de4 <core_bench_list+0x824>
80009dd0:	00000000 	nop
80009dd4:	8eb50000 	lw	s5,0(s5)
80009dd8:	24160002 	li	s6,2
80009ddc:	12a0003c 	beqz	s5,80009ed0 <core_bench_list+0x910>
80009de0:	00000000 	nop
80009de4:	8eb50000 	lw	s5,0(s5)
80009de8:	26d60001 	addiu	s6,s6,1
80009dec:	12a00038 	beqz	s5,80009ed0 <core_bench_list+0x910>
80009df0:	00000000 	nop
80009df4:	8eb50000 	lw	s5,0(s5)
80009df8:	26d60001 	addiu	s6,s6,1
80009dfc:	12a00034 	beqz	s5,80009ed0 <core_bench_list+0x910>
80009e00:	00000000 	nop
80009e04:	8eb50000 	lw	s5,0(s5)
80009e08:	26d60001 	addiu	s6,s6,1
80009e0c:	12a00030 	beqz	s5,80009ed0 <core_bench_list+0x910>
80009e10:	00000000 	nop
80009e14:	8eb50000 	lw	s5,0(s5)
80009e18:	26d60001 	addiu	s6,s6,1
80009e1c:	12a0002c 	beqz	s5,80009ed0 <core_bench_list+0x910>
80009e20:	00000000 	nop
80009e24:	8eb50000 	lw	s5,0(s5)
80009e28:	26d60001 	addiu	s6,s6,1
80009e2c:	12a00028 	beqz	s5,80009ed0 <core_bench_list+0x910>
80009e30:	00000000 	nop
80009e34:	8eb50000 	lw	s5,0(s5)
80009e38:	26d60001 	addiu	s6,s6,1
80009e3c:	12a00024 	beqz	s5,80009ed0 <core_bench_list+0x910>
80009e40:	00000000 	nop
80009e44:	11960113 	beq	t4,s6,8000a294 <core_bench_list+0xcd4>
80009e48:	00000000 	nop
80009e4c:	8eb50000 	lw	s5,0(s5)
80009e50:	26d60001 	addiu	s6,s6,1
80009e54:	02c03825 	move	a3,s6
80009e58:	12a0001d 	beqz	s5,80009ed0 <core_bench_list+0x910>
80009e5c:	00000000 	nop
80009e60:	8eb50000 	lw	s5,0(s5)
80009e64:	26d60001 	addiu	s6,s6,1
80009e68:	12a00019 	beqz	s5,80009ed0 <core_bench_list+0x910>
80009e6c:	00000000 	nop
80009e70:	8eb50000 	lw	s5,0(s5)
80009e74:	24f60002 	addiu	s6,a3,2
80009e78:	12a00015 	beqz	s5,80009ed0 <core_bench_list+0x910>
80009e7c:	00000000 	nop
80009e80:	8eb50000 	lw	s5,0(s5)
80009e84:	24f60003 	addiu	s6,a3,3
80009e88:	12a00011 	beqz	s5,80009ed0 <core_bench_list+0x910>
80009e8c:	00000000 	nop
80009e90:	8eb50000 	lw	s5,0(s5)
80009e94:	24f60004 	addiu	s6,a3,4
80009e98:	12a0000d 	beqz	s5,80009ed0 <core_bench_list+0x910>
80009e9c:	00000000 	nop
80009ea0:	8eb50000 	lw	s5,0(s5)
80009ea4:	24f60005 	addiu	s6,a3,5
80009ea8:	12a00009 	beqz	s5,80009ed0 <core_bench_list+0x910>
80009eac:	00000000 	nop
80009eb0:	8eb50000 	lw	s5,0(s5)
80009eb4:	24f60006 	addiu	s6,a3,6
80009eb8:	12a00005 	beqz	s5,80009ed0 <core_bench_list+0x910>
80009ebc:	00000000 	nop
80009ec0:	8eb50000 	lw	s5,0(s5)
80009ec4:	24f60007 	addiu	s6,a3,7
80009ec8:	16a0ffde 	bnez	s5,80009e44 <core_bench_list+0x884>
80009ecc:	00000000 	nop
80009ed0:	03c02825 	move	a1,s8
80009ed4:	01803025 	move	a2,t4
80009ed8:	02a0f025 	move	s8,s5
80009edc:	1ac00022 	blez	s6,80009f68 <core_bench_list+0x9a8>
80009ee0:	00000000 	nop
80009ee4:	10c00036 	beqz	a2,80009fc0 <core_bench_list+0xa00>
80009ee8:	00000000 	nop
80009eec:	13c00034 	beqz	s8,80009fc0 <core_bench_list+0xa00>
80009ef0:	00000000 	nop
80009ef4:	8cb90004 	lw	t9,4(a1)
80009ef8:	8fc90004 	lw	t1,4(s8)
80009efc:	873f0000 	lh	ra,0(t9)
80009f00:	85380002 	lh	t8,2(t1)
80009f04:	87230002 	lh	v1,2(t9)
80009f08:	33efffff 	andi	t7,ra,0xffff
80009f0c:	000f3a02 	srl	a3,t7,0x8
80009f10:	03eb6824 	and	t5,ra,t3
80009f14:	01a79825 	or	s3,t5,a3
80009f18:	00789023 	subu	s2,v1,t8
80009f1c:	a7330000 	sh	s3,0(t9)
80009f20:	85220000 	lh	v0,0(t1)
80009f24:	00000000 	nop
80009f28:	304effff 	andi	t6,v0,0xffff
80009f2c:	000eaa02 	srl	s5,t6,0x8
80009f30:	004b4024 	and	t0,v0,t3
80009f34:	01155025 	or	t2,t0,s5
80009f38:	a52a0000 	sh	t2,0(t1)
80009f3c:	1a400020 	blez	s2,80009fc0 <core_bench_list+0xa00>
80009f40:	00000000 	nop
80009f44:	03c0b825 	move	s7,s8
80009f48:	8fde0000 	lw	s8,0(s8)
80009f4c:	24c6ffff 	addiu	a2,a2,-1
80009f50:	10800020 	beqz	a0,80009fd4 <core_bench_list+0xa14>
80009f54:	00000000 	nop
80009f58:	ac970000 	sw	s7,0(a0)
80009f5c:	02e02025 	move	a0,s7
80009f60:	1ec0ffe0 	bgtz	s6,80009ee4 <core_bench_list+0x924>
80009f64:	00000000 	nop
80009f68:	18c00065 	blez	a2,8000a100 <core_bench_list+0xb40>
80009f6c:	00000000 	nop
80009f70:	13c00065 	beqz	s8,8000a108 <core_bench_list+0xb48>
80009f74:	00000000 	nop
80009f78:	12c0fff2 	beqz	s6,80009f44 <core_bench_list+0x984>
80009f7c:	00000000 	nop
80009f80:	1000ffdc 	b	80009ef4 <core_bench_list+0x934>
80009f84:	00000000 	nop
	...
80009f90:	0220c025 	move	t8,s1
80009f94:	8e310000 	lw	s1,0(s1)
80009f98:	26b5ffff 	addiu	s5,s5,-1
80009f9c:	16c0fee9 	bnez	s6,80009b44 <core_bench_list+0x584>
80009fa0:	00000000 	nop
80009fa4:	0300f025 	move	s8,t8
80009fa8:	0300b025 	move	s6,t8
80009fac:	1000fee7 	b	80009b4c <core_bench_list+0x58c>
80009fb0:	00000000 	nop
	...
80009fc0:	00a0b825 	move	s7,a1
80009fc4:	8ca50000 	lw	a1,0(a1)
80009fc8:	26d6ffff 	addiu	s6,s6,-1
80009fcc:	1480ffe2 	bnez	a0,80009f58 <core_bench_list+0x998>
80009fd0:	00000000 	nop
80009fd4:	02e08025 	move	s0,s7
80009fd8:	02e02025 	move	a0,s7
80009fdc:	1000ffe0 	b	80009f60 <core_bench_list+0x9a0>
80009fe0:	00000000 	nop
	...
80009ff0:	3219007f 	andi	t9,s0,0x7f
80009ff4:	86500000 	lh	s0,0(s2)
80009ff8:	afb9001c 	sw	t9,28(sp)
80009ffc:	32090080 	andi	t1,s0,0x80
8000a000:	1120fea5 	beqz	t1,80009a98 <core_bench_list+0x4d8>
8000a004:	00000000 	nop
8000a008:	3210007f 	andi	s0,s0,0x7f
8000a00c:	1000fec3 	b	80009b1c <core_bench_list+0x55c>
8000a010:	00000000 	nop
	...
8000a020:	02007025 	move	t6,s0
8000a024:	1000feb0 	b	80009ae8 <core_bench_list+0x528>
8000a028:	00000000 	nop
8000a02c:	00000000 	nop
8000a030:	28a20022 	slti	v0,a1,34
8000a034:	144000a0 	bnez	v0,8000a2b8 <core_bench_list+0xcf8>
8000a038:	00000000 	nop
8000a03c:	00a06025 	move	t4,a1
8000a040:	96830038 	lhu	v1,56(s4)
8000a044:	86860000 	lh	a2,0(s4)
8000a048:	8e840018 	lw	a0,24(s4)
8000a04c:	86870002 	lh	a3,2(s4)
8000a050:	8e850014 	lw	a1,20(s4)
8000a054:	afa30014 	sw	v1,20(sp)
8000a058:	afac0010 	sw	t4,16(sp)
8000a05c:	0c001e38 	jal	800078e0 <core_bench_state>
8000a060:	00000000 	nop
8000a064:	9684003e 	lhu	a0,62(s4)
8000a068:	00023400 	sll	a2,v0,0x10
8000a06c:	00067403 	sra	t6,a2,0x10
8000a070:	1480fe9d 	bnez	a0,80009ae8 <core_bench_list+0x528>
8000a074:	00000000 	nop
8000a078:	a682003e 	sh	v0,62(s4)
8000a07c:	1000fe9a 	b	80009ae8 <core_bench_list+0x528>
8000a080:	00000000 	nop
	...
8000a090:	0200c025 	move	t8,s0
8000a094:	1000fe6b 	b	80009a44 <core_bench_list+0x484>
8000a098:	00000000 	nop
8000a09c:	00000000 	nop
8000a0a0:	28ad0022 	slti	t5,a1,34
8000a0a4:	15a00081 	bnez	t5,8000a2ac <core_bench_list+0xcec>
8000a0a8:	00000000 	nop
8000a0ac:	00a01025 	move	v0,a1
8000a0b0:	968e0038 	lhu	t6,56(s4)
8000a0b4:	86870002 	lh	a3,2(s4)
8000a0b8:	86860000 	lh	a2,0(s4)
8000a0bc:	8e850014 	lw	a1,20(s4)
8000a0c0:	8e840018 	lw	a0,24(s4)
8000a0c4:	afae0014 	sw	t6,20(sp)
8000a0c8:	afa20010 	sw	v0,16(sp)
8000a0cc:	afac001c 	sw	t4,28(sp)
8000a0d0:	0c001e38 	jal	800078e0 <core_bench_state>
8000a0d4:	00000000 	nop
8000a0d8:	9688003e 	lhu	t0,62(s4)
8000a0dc:	00025400 	sll	t2,v0,0x10
8000a0e0:	8fac001c 	lw	t4,28(sp)
8000a0e4:	000ac403 	sra	t8,t2,0x10
8000a0e8:	1500fe56 	bnez	t0,80009a44 <core_bench_list+0x484>
8000a0ec:	00000000 	nop
8000a0f0:	a682003e 	sh	v0,62(s4)
8000a0f4:	1000fe53 	b	80009a44 <core_bench_list+0x484>
8000a0f8:	00000000 	nop
8000a0fc:	00000000 	nop
8000a100:	17c0ff18 	bnez	s8,80009d64 <core_bench_list+0x7a4>
8000a104:	00000000 	nop
8000a108:	ac800000 	sw	zero,0(a0)
8000a10c:	169100a0 	bne	s4,s1,8000a390 <core_bench_list+0xdd0>
8000a110:	00000000 	nop
8000a114:	8e170000 	lw	s7,0(s0)
8000a118:	00000000 	nop
8000a11c:	12e0004f 	beqz	s7,8000a25c <core_bench_list+0xc9c>
8000a120:	00000000 	nop
8000a124:	8e1e0004 	lw	s8,4(s0)
8000a128:	8fa5002c 	lw	a1,44(sp)
8000a12c:	87c40000 	lh	a0,0(s8)
8000a130:	0c001cf0 	jal	800073c0 <crc16>
8000a134:	00000000 	nop
8000a138:	8ef70000 	lw	s7,0(s7)
8000a13c:	afa2002c 	sw	v0,44(sp)
8000a140:	12e00046 	beqz	s7,8000a25c <core_bench_list+0xc9c>
8000a144:	00000000 	nop
8000a148:	8e0b0004 	lw	t3,4(s0)
8000a14c:	00402825 	move	a1,v0
8000a150:	85640000 	lh	a0,0(t3)
8000a154:	0c001cf0 	jal	800073c0 <crc16>
8000a158:	00000000 	nop
8000a15c:	8ef40000 	lw	s4,0(s7)
8000a160:	00402825 	move	a1,v0
8000a164:	afa2002c 	sw	v0,44(sp)
8000a168:	1280003c 	beqz	s4,8000a25c <core_bench_list+0xc9c>
8000a16c:	00000000 	nop
8000a170:	8e040004 	lw	a0,4(s0)
8000a174:	00000000 	nop
8000a178:	84840000 	lh	a0,0(a0)
8000a17c:	0c001cf0 	jal	800073c0 <crc16>
8000a180:	00000000 	nop
8000a184:	8e910000 	lw	s1,0(s4)
8000a188:	00402825 	move	a1,v0
8000a18c:	afa2002c 	sw	v0,44(sp)
8000a190:	12200032 	beqz	s1,8000a25c <core_bench_list+0xc9c>
8000a194:	00000000 	nop
8000a198:	8e0d0004 	lw	t5,4(s0)
8000a19c:	00000000 	nop
8000a1a0:	85a40000 	lh	a0,0(t5)
8000a1a4:	0c001cf0 	jal	800073c0 <crc16>
8000a1a8:	00000000 	nop
8000a1ac:	8e330000 	lw	s3,0(s1)
8000a1b0:	00402825 	move	a1,v0
8000a1b4:	afa2002c 	sw	v0,44(sp)
8000a1b8:	12600028 	beqz	s3,8000a25c <core_bench_list+0xc9c>
8000a1bc:	00000000 	nop
8000a1c0:	8e020004 	lw	v0,4(s0)
8000a1c4:	00000000 	nop
8000a1c8:	84440000 	lh	a0,0(v0)
8000a1cc:	0c001cf0 	jal	800073c0 <crc16>
8000a1d0:	00000000 	nop
8000a1d4:	8e720000 	lw	s2,0(s3)
8000a1d8:	00402825 	move	a1,v0
8000a1dc:	afa2002c 	sw	v0,44(sp)
8000a1e0:	1240001e 	beqz	s2,8000a25c <core_bench_list+0xc9c>
8000a1e4:	00000000 	nop
8000a1e8:	8e0e0004 	lw	t6,4(s0)
8000a1ec:	00000000 	nop
8000a1f0:	85c40000 	lh	a0,0(t6)
8000a1f4:	0c001cf0 	jal	800073c0 <crc16>
8000a1f8:	00000000 	nop
8000a1fc:	8e550000 	lw	s5,0(s2)
8000a200:	00402825 	move	a1,v0
8000a204:	afa2002c 	sw	v0,44(sp)
8000a208:	12a00014 	beqz	s5,8000a25c <core_bench_list+0xc9c>
8000a20c:	00000000 	nop
8000a210:	8e080004 	lw	t0,4(s0)
8000a214:	00000000 	nop
8000a218:	85040000 	lh	a0,0(t0)
8000a21c:	0c001cf0 	jal	800073c0 <crc16>
8000a220:	00000000 	nop
8000a224:	8eb60000 	lw	s6,0(s5)
8000a228:	00402825 	move	a1,v0
8000a22c:	afa2002c 	sw	v0,44(sp)
8000a230:	12c0000a 	beqz	s6,8000a25c <core_bench_list+0xc9c>
8000a234:	00000000 	nop
8000a238:	8e0a0004 	lw	t2,4(s0)
8000a23c:	00000000 	nop
8000a240:	85440000 	lh	a0,0(t2)
8000a244:	0c001cf0 	jal	800073c0 <crc16>
8000a248:	00000000 	nop
8000a24c:	8ed70000 	lw	s7,0(s6)
8000a250:	afa2002c 	sw	v0,44(sp)
8000a254:	16e0ffb3 	bnez	s7,8000a124 <core_bench_list+0xb64>
8000a258:	00000000 	nop
8000a25c:	8fbf005c 	lw	ra,92(sp)
8000a260:	8fa2002c 	lw	v0,44(sp)
8000a264:	8fbe0058 	lw	s8,88(sp)
8000a268:	8fb70054 	lw	s7,84(sp)
8000a26c:	8fb60050 	lw	s6,80(sp)
8000a270:	8fb5004c 	lw	s5,76(sp)
8000a274:	8fb40048 	lw	s4,72(sp)
8000a278:	8fb30044 	lw	s3,68(sp)
8000a27c:	8fb20040 	lw	s2,64(sp)
8000a280:	8fb1003c 	lw	s1,60(sp)
8000a284:	8fb00038 	lw	s0,56(sp)
8000a288:	27bd0060 	addiu	sp,sp,96
8000a28c:	03e00008 	jr	ra
8000a290:	00000000 	nop
8000a294:	03c02825 	move	a1,s8
8000a298:	0180b025 	move	s6,t4
8000a29c:	01803025 	move	a2,t4
8000a2a0:	02a0f025 	move	s8,s5
8000a2a4:	1000ff0d 	b	80009edc <core_bench_list+0x91c>
8000a2a8:	00000000 	nop
8000a2ac:	24020022 	li	v0,34
8000a2b0:	1000ff7f 	b	8000a0b0 <core_bench_list+0xaf0>
8000a2b4:	00000000 	nop
8000a2b8:	240c0022 	li	t4,34
8000a2bc:	1000ff60 	b	8000a040 <core_bench_list+0xa80>
8000a2c0:	00000000 	nop
8000a2c4:	16e0fd57 	bnez	s7,80009824 <core_bench_list+0x264>
8000a2c8:	00000000 	nop
8000a2cc:	1000fe25 	b	80009b64 <core_bench_list+0x5a4>
8000a2d0:	00000000 	nop
	...
8000a2e0:	13c00017 	beqz	s8,8000a340 <core_bench_list+0xd80>
8000a2e4:	00000000 	nop
8000a2e8:	8fc40004 	lw	a0,4(s8)
8000a2ec:	310700ff 	andi	a3,t0,0xff
8000a2f0:	03c09825 	move	s3,s8
8000a2f4:	90860000 	lbu	a2,0(a0)
8000a2f8:	00000000 	nop
8000a2fc:	14e6000a 	bne	a3,a2,8000a328 <core_bench_list+0xd68>
8000a300:	00000000 	nop
8000a304:	1000fce0 	b	80009688 <core_bench_list+0xc8>
8000a308:	00000000 	nop
8000a30c:	00000000 	nop
8000a310:	8e6d0004 	lw	t5,4(s3)
8000a314:	8faf0024 	lw	t7,36(sp)
8000a318:	91ae0000 	lbu	t6,0(t5)
8000a31c:	00000000 	nop
8000a320:	11cffcd9 	beq	t6,t7,80009688 <core_bench_list+0xc8>
8000a324:	00000000 	nop
8000a328:	8e730000 	lw	s3,0(s3)
8000a32c:	00000000 	nop
8000a330:	1660fff7 	bnez	s3,8000a310 <core_bench_list+0xd50>
8000a334:	00000000 	nop
8000a338:	1000fcd3 	b	80009688 <core_bench_list+0xc8>
8000a33c:	00000000 	nop
8000a340:	8fd90000 	lw	t9,0(s8)
8000a344:	256b0001 	addiu	t3,t3,1
8000a348:	316bffff 	andi	t3,t3,0xffff
8000a34c:	8f3f0004 	lw	ra,4(t9)
8000a350:	00000000 	nop
8000a354:	83e50001 	lb	a1,1(ra)
8000a358:	00000000 	nop
8000a35c:	30a20001 	andi	v0,a1,0x1
8000a360:	01821821 	addu	v1,t4,v0
8000a364:	306cffff 	andi	t4,v1,0xffff
8000a368:	1000fd10 	b	800097ac <core_bench_list+0x1ec>
8000a36c:	00000000 	nop
8000a370:	8fae0028 	lw	t6,40(sp)
8000a374:	03c0b825 	move	s7,s8
8000a378:	000e4040 	sll	t0,t6,0x1
8000a37c:	afa80028 	sw	t0,40(sp)
8000a380:	17c0fd25 	bnez	s8,80009818 <core_bench_list+0x258>
8000a384:	00000000 	nop
8000a388:	ac000000 	sw	zero,0(zero)
8000a38c:	0000000d 	break
8000a390:	000c6040 	sll	t4,t4,0x1
8000a394:	1200fffc 	beqz	s0,8000a388 <core_bench_list+0xdc8>
8000a398:	00000000 	nop
8000a39c:	0200f025 	move	s8,s0
8000a3a0:	1000fe6d 	b	80009d58 <core_bench_list+0x798>
8000a3a4:	00000000 	nop
8000a3a8:	8fac0024 	lw	t4,36(sp)
8000a3ac:	8e180004 	lw	t8,4(s0)
8000a3b0:	00000000 	nop
8000a3b4:	93110000 	lbu	s1,0(t8)
8000a3b8:	00000000 	nop
8000a3bc:	122cfe0c 	beq	s1,t4,80009bf0 <core_bench_list+0x630>
8000a3c0:	00000000 	nop
8000a3c4:	8e100000 	lw	s0,0(s0)
8000a3c8:	00000000 	nop
8000a3cc:	1600fff7 	bnez	s0,8000a3ac <core_bench_list+0xdec>
8000a3d0:	00000000 	nop
8000a3d4:	8fc30000 	lw	v1,0(s8)
8000a3d8:	00000000 	nop
8000a3dc:	00608025 	move	s0,v1
8000a3e0:	1460fe03 	bnez	v1,80009bf0 <core_bench_list+0x630>
8000a3e4:	00000000 	nop
8000a3e8:	1000fe52 	b	80009d34 <core_bench_list+0x774>
8000a3ec:	00000000 	nop
8000a3f0:	afa0002c 	sw	zero,44(sp)
8000a3f4:	afb80018 	sw	t8,24(sp)
8000a3f8:	1000fcfe 	b	800097f4 <core_bench_list+0x234>
8000a3fc:	00000000 	nop

8000a400 <core_list_init>:
core_list_init():
8000a400:	3c02cccc 	lui	v0,0xcccc
8000a404:	aca00000 	sw	zero,0(a1)
8000a408:	24a70010 	addiu	a3,a1,16
8000a40c:	3443cccd 	ori	v1,v0,0xcccd
8000a410:	00830019 	multu	a0,v1
8000a414:	240b8080 	li	t3,-32640
8000a418:	00063400 	sll	a2,a2,0x10
8000a41c:	24a20008 	addiu	v0,a1,8
8000a420:	00002010 	mfhi	a0
8000a424:	00063403 	sra	a2,a2,0x10
8000a428:	00044902 	srl	t1,a0,0x4
8000a42c:	2539fffe 	addiu	t9,t1,-2
8000a430:	001940c0 	sll	t0,t9,0x3
8000a434:	00195080 	sll	t2,t9,0x2
8000a438:	00a84821 	addu	t1,a1,t0
8000a43c:	00e9602b 	sltu	t4,a3,t1
8000a440:	aca90004 	sw	t1,4(a1)
8000a444:	012a4021 	addu	t0,t1,t2
8000a448:	a5200002 	sh	zero,2(t1)
8000a44c:	25230004 	addiu	v1,t1,4
8000a450:	a52b0000 	sh	t3,0(t1)
8000a454:	11800005 	beqz	t4,8000a46c <core_list_init+0x6c>
8000a458:	00000000 	nop
8000a45c:	252d0008 	addiu	t5,t1,8
8000a460:	01a8702b 	sltu	t6,t5,t0
8000a464:	15c00193 	bnez	t6,8000aab4 <core_list_init+0x6b4>
8000a468:	00000000 	nop
8000a46c:	00002025 	move	a0,zero
8000a470:	132000a2 	beqz	t9,8000a6fc <core_list_init+0x2fc>
8000a474:	00000000 	nop
8000a478:	244a0008 	addiu	t2,v0,8
8000a47c:	272bffff 	addiu	t3,t9,-1
8000a480:	0149382b 	sltu	a3,t2,t1
8000a484:	30ccffff 	andi	t4,a2,0xffff
8000a488:	240d7fff 	li	t5,32767
8000a48c:	31780003 	andi	t8,t3,0x3
8000a490:	10e00005 	beqz	a3,8000a4a8 <core_list_init+0xa8>
8000a494:	00000000 	nop
8000a498:	246f0004 	addiu	t7,v1,4
8000a49c:	01e8702b 	sltu	t6,t7,t0
8000a4a0:	15c00190 	bnez	t6,8000aae4 <core_list_init+0x6e4>
8000a4a4:	00000000 	nop
8000a4a8:	24070001 	li	a3,1
8000a4ac:	13270093 	beq	t9,a3,8000a6fc <core_list_init+0x2fc>
8000a4b0:	00000000 	nop
8000a4b4:	1300002b 	beqz	t8,8000a564 <core_list_init+0x164>
8000a4b8:	00000000 	nop
8000a4bc:	1307000e 	beq	t8,a3,8000a4f8 <core_list_init+0xf8>
8000a4c0:	00000000 	nop
8000a4c4:	240f0002 	li	t7,2
8000a4c8:	130f0006 	beq	t8,t7,8000a4e4 <core_list_init+0xe4>
8000a4cc:	00000000 	nop
8000a4d0:	24580008 	addiu	t8,v0,8
8000a4d4:	0309582b 	sltu	t3,t8,t1
8000a4d8:	15600162 	bnez	t3,8000aa64 <core_list_init+0x664>
8000a4dc:	00000000 	nop
8000a4e0:	24e70001 	addiu	a3,a3,1
8000a4e4:	244a0008 	addiu	t2,v0,8
8000a4e8:	0149582b 	sltu	t3,t2,t1
8000a4ec:	15600147 	bnez	t3,8000aa0c <core_list_init+0x60c>
8000a4f0:	00000000 	nop
8000a4f4:	24e70001 	addiu	a3,a3,1
8000a4f8:	244a0008 	addiu	t2,v0,8
8000a4fc:	0149782b 	sltu	t7,t2,t1
8000a500:	11e00015 	beqz	t7,8000a558 <core_list_init+0x158>
8000a504:	00000000 	nop
8000a508:	24780004 	addiu	t8,v1,4
8000a50c:	0308582b 	sltu	t3,t8,t0
8000a510:	11600011 	beqz	t3,8000a558 <core_list_init+0x158>
8000a514:	00000000 	nop
8000a518:	30eeffff 	andi	t6,a3,0xffff
8000a51c:	ac440000 	sw	a0,0(v0)
8000a520:	01cc2026 	xor	a0,t6,t4
8000a524:	aca20000 	sw	v0,0(a1)
8000a528:	308f000f 	andi	t7,a0,0xf
8000a52c:	ac430004 	sw	v1,4(v0)
8000a530:	000f20c0 	sll	a0,t7,0x3
8000a534:	a46d0002 	sh	t5,2(v1)
8000a538:	31cb0007 	andi	t3,t6,0x7
8000a53c:	008b7825 	or	t7,a0,t3
8000a540:	000f7200 	sll	t6,t7,0x8
8000a544:	00402025 	move	a0,v0
8000a548:	01cf5825 	or	t3,t6,t7
8000a54c:	01401025 	move	v0,t2
8000a550:	a46b0000 	sh	t3,0(v1)
8000a554:	03001825 	move	v1,t8
8000a558:	24e70001 	addiu	a3,a3,1
8000a55c:	13270067 	beq	t9,a3,8000a6fc <core_list_init+0x2fc>
8000a560:	00000000 	nop
8000a564:	244a0008 	addiu	t2,v0,8
8000a568:	0149c02b 	sltu	t8,t2,t1
8000a56c:	13000015 	beqz	t8,8000a5c4 <core_list_init+0x1c4>
8000a570:	00000000 	nop
8000a574:	246e0004 	addiu	t6,v1,4
8000a578:	01c8782b 	sltu	t7,t6,t0
8000a57c:	11e00011 	beqz	t7,8000a5c4 <core_list_init+0x1c4>
8000a580:	00000000 	nop
8000a584:	30ebffff 	andi	t3,a3,0xffff
8000a588:	ac440000 	sw	a0,0(v0)
8000a58c:	016c2026 	xor	a0,t3,t4
8000a590:	aca20000 	sw	v0,0(a1)
8000a594:	3098000f 	andi	t8,a0,0xf
8000a598:	ac430004 	sw	v1,4(v0)
8000a59c:	001878c0 	sll	t7,t8,0x3
8000a5a0:	a46d0002 	sh	t5,2(v1)
8000a5a4:	316b0007 	andi	t3,t3,0x7
8000a5a8:	01ebc025 	or	t8,t7,t3
8000a5ac:	00187a00 	sll	t7,t8,0x8
8000a5b0:	00402025 	move	a0,v0
8000a5b4:	01f85825 	or	t3,t7,t8
8000a5b8:	01401025 	move	v0,t2
8000a5bc:	a46b0000 	sh	t3,0(v1)
8000a5c0:	01c01825 	move	v1,t6
8000a5c4:	244a0008 	addiu	t2,v0,8
8000a5c8:	24e70001 	addiu	a3,a3,1
8000a5cc:	0149702b 	sltu	t6,t2,t1
8000a5d0:	11c00015 	beqz	t6,8000a628 <core_list_init+0x228>
8000a5d4:	00000000 	nop
8000a5d8:	24780004 	addiu	t8,v1,4
8000a5dc:	0308782b 	sltu	t7,t8,t0
8000a5e0:	11e00011 	beqz	t7,8000a628 <core_list_init+0x228>
8000a5e4:	00000000 	nop
8000a5e8:	30ebffff 	andi	t3,a3,0xffff
8000a5ec:	ac440000 	sw	a0,0(v0)
8000a5f0:	016c2026 	xor	a0,t3,t4
8000a5f4:	aca20000 	sw	v0,0(a1)
8000a5f8:	308e000f 	andi	t6,a0,0xf
8000a5fc:	ac430004 	sw	v1,4(v0)
8000a600:	000e78c0 	sll	t7,t6,0x3
8000a604:	a46d0002 	sh	t5,2(v1)
8000a608:	316b0007 	andi	t3,t3,0x7
8000a60c:	01eb7025 	or	t6,t7,t3
8000a610:	000e7a00 	sll	t7,t6,0x8
8000a614:	00402025 	move	a0,v0
8000a618:	01ee5825 	or	t3,t7,t6
8000a61c:	01401025 	move	v0,t2
8000a620:	a46b0000 	sh	t3,0(v1)
8000a624:	03001825 	move	v1,t8
8000a628:	244a0008 	addiu	t2,v0,8
8000a62c:	24ee0001 	addiu	t6,a3,1
8000a630:	0149c02b 	sltu	t8,t2,t1
8000a634:	13000015 	beqz	t8,8000a68c <core_list_init+0x28c>
8000a638:	00000000 	nop
8000a63c:	24780004 	addiu	t8,v1,4
8000a640:	0308782b 	sltu	t7,t8,t0
8000a644:	11e00011 	beqz	t7,8000a68c <core_list_init+0x28c>
8000a648:	00000000 	nop
8000a64c:	31cbffff 	andi	t3,t6,0xffff
8000a650:	ac440000 	sw	a0,0(v0)
8000a654:	016c2026 	xor	a0,t3,t4
8000a658:	aca20000 	sw	v0,0(a1)
8000a65c:	308e000f 	andi	t6,a0,0xf
8000a660:	ac430004 	sw	v1,4(v0)
8000a664:	000e78c0 	sll	t7,t6,0x3
8000a668:	a46d0002 	sh	t5,2(v1)
8000a66c:	316b0007 	andi	t3,t3,0x7
8000a670:	01eb7025 	or	t6,t7,t3
8000a674:	000e7a00 	sll	t7,t6,0x8
8000a678:	00402025 	move	a0,v0
8000a67c:	01ee5825 	or	t3,t7,t6
8000a680:	01401025 	move	v0,t2
8000a684:	a46b0000 	sh	t3,0(v1)
8000a688:	03001825 	move	v1,t8
8000a68c:	244a0008 	addiu	t2,v0,8
8000a690:	24ee0002 	addiu	t6,a3,2
8000a694:	0149c02b 	sltu	t8,t2,t1
8000a698:	13000015 	beqz	t8,8000a6f0 <core_list_init+0x2f0>
8000a69c:	00000000 	nop
8000a6a0:	24780004 	addiu	t8,v1,4
8000a6a4:	0308782b 	sltu	t7,t8,t0
8000a6a8:	11e00011 	beqz	t7,8000a6f0 <core_list_init+0x2f0>
8000a6ac:	00000000 	nop
8000a6b0:	31cbffff 	andi	t3,t6,0xffff
8000a6b4:	ac440000 	sw	a0,0(v0)
8000a6b8:	016c2026 	xor	a0,t3,t4
8000a6bc:	aca20000 	sw	v0,0(a1)
8000a6c0:	308e000f 	andi	t6,a0,0xf
8000a6c4:	ac430004 	sw	v1,4(v0)
8000a6c8:	000e78c0 	sll	t7,t6,0x3
8000a6cc:	a46d0002 	sh	t5,2(v1)
8000a6d0:	316b0007 	andi	t3,t3,0x7
8000a6d4:	01eb7025 	or	t6,t7,t3
8000a6d8:	000e7a00 	sll	t7,t6,0x8
8000a6dc:	00402025 	move	a0,v0
8000a6e0:	01ee5825 	or	t3,t7,t6
8000a6e4:	01401025 	move	v0,t2
8000a6e8:	a46b0000 	sh	t3,0(v1)
8000a6ec:	03001825 	move	v1,t8
8000a6f0:	24e70003 	addiu	a3,a3,3
8000a6f4:	1727ff9b 	bne	t9,a3,8000a564 <core_list_init+0x164>
8000a6f8:	00000000 	nop
8000a6fc:	3c09cccc 	lui	t1,0xcccc
8000a700:	24030001 	li	v1,1
8000a704:	3528cccd 	ori	t0,t1,0xcccd
8000a708:	03280019 	multu	t9,t0
8000a70c:	24080002 	li	t0,2
8000a710:	0000c810 	mfhi	t9
8000a714:	00197082 	srl	t6,t9,0x2
8000a718:	10000007 	b	8000a738 <core_list_init+0x338>
8000a71c:	00000000 	nop
8000a720:	8c8a0004 	lw	t2,4(a0)
8000a724:	00000000 	nop
8000a728:	a5430002 	sh	v1,2(t2)
8000a72c:	25080001 	addiu	t0,t0,1
8000a730:	24630001 	addiu	v1,v1,1
8000a734:	01802025 	move	a0,t4
8000a738:	8c8c0000 	lw	t4,0(a0)
8000a73c:	00000000 	nop
8000a740:	1180000d 	beqz	t4,8000a778 <core_list_init+0x378>
8000a744:	00000000 	nop
8000a748:	006e102b 	sltu	v0,v1,t6
8000a74c:	1440fff4 	bnez	v0,8000a720 <core_list_init+0x320>
8000a750:	00000000 	nop
8000a754:	310d0007 	andi	t5,t0,0x7
8000a758:	8c8f0004 	lw	t7,4(a0)
8000a75c:	000dc200 	sll	t8,t5,0x8
8000a760:	00664826 	xor	t1,v1,a2
8000a764:	03095825 	or	t3,t8,t1
8000a768:	31793fff 	andi	t9,t3,0x3fff
8000a76c:	a5f90002 	sh	t9,2(t7)
8000a770:	1000ffee 	b	8000a72c <core_list_init+0x32c>
8000a774:	00000000 	nop
8000a778:	240e0001 	li	t6,1
8000a77c:	240dff00 	li	t5,-256
8000a780:	24180001 	li	t8,1
8000a784:	00001025 	move	v0,zero
8000a788:	00002025 	move	a0,zero
8000a78c:	00007825 	move	t7,zero
8000a790:	8ca30000 	lw	v1,0(a1)
8000a794:	25c6ffff 	addiu	a2,t6,-1
8000a798:	25ef0001 	addiu	t7,t7,1
8000a79c:	30ca0007 	andi	t2,a2,0x7
8000a7a0:	24060001 	li	a2,1
8000a7a4:	10600055 	beqz	v1,8000a8fc <core_list_init+0x4fc>
8000a7a8:	00000000 	nop
8000a7ac:	10ce0053 	beq	a2,t6,8000a8fc <core_list_init+0x4fc>
8000a7b0:	00000000 	nop
8000a7b4:	11400030 	beqz	t2,8000a878 <core_list_init+0x478>
8000a7b8:	00000000 	nop
8000a7bc:	11460028 	beq	t2,a2,8000a860 <core_list_init+0x460>
8000a7c0:	00000000 	nop
8000a7c4:	240b0002 	li	t3,2
8000a7c8:	114b0021 	beq	t2,t3,8000a850 <core_list_init+0x450>
8000a7cc:	00000000 	nop
8000a7d0:	24070003 	li	a3,3
8000a7d4:	1147001a 	beq	t2,a3,8000a840 <core_list_init+0x440>
8000a7d8:	00000000 	nop
8000a7dc:	24090004 	li	t1,4
8000a7e0:	11490013 	beq	t2,t1,8000a830 <core_list_init+0x430>
8000a7e4:	00000000 	nop
8000a7e8:	24080005 	li	t0,5
8000a7ec:	1148000c 	beq	t2,t0,8000a820 <core_list_init+0x420>
8000a7f0:	00000000 	nop
8000a7f4:	24190006 	li	t9,6
8000a7f8:	11590005 	beq	t2,t9,8000a810 <core_list_init+0x410>
8000a7fc:	00000000 	nop
8000a800:	8c630000 	lw	v1,0(v1)
8000a804:	24060002 	li	a2,2
8000a808:	1060003c 	beqz	v1,8000a8fc <core_list_init+0x4fc>
8000a80c:	00000000 	nop
8000a810:	8c630000 	lw	v1,0(v1)
8000a814:	24c60001 	addiu	a2,a2,1
8000a818:	10600038 	beqz	v1,8000a8fc <core_list_init+0x4fc>
8000a81c:	00000000 	nop
8000a820:	8c630000 	lw	v1,0(v1)
8000a824:	24c60001 	addiu	a2,a2,1
8000a828:	10600034 	beqz	v1,8000a8fc <core_list_init+0x4fc>
8000a82c:	00000000 	nop
8000a830:	8c630000 	lw	v1,0(v1)
8000a834:	24c60001 	addiu	a2,a2,1
8000a838:	10600030 	beqz	v1,8000a8fc <core_list_init+0x4fc>
8000a83c:	00000000 	nop
8000a840:	8c630000 	lw	v1,0(v1)
8000a844:	24c60001 	addiu	a2,a2,1
8000a848:	1060002c 	beqz	v1,8000a8fc <core_list_init+0x4fc>
8000a84c:	00000000 	nop
8000a850:	8c630000 	lw	v1,0(v1)
8000a854:	24c60001 	addiu	a2,a2,1
8000a858:	10600028 	beqz	v1,8000a8fc <core_list_init+0x4fc>
8000a85c:	00000000 	nop
8000a860:	8c630000 	lw	v1,0(v1)
8000a864:	24c60001 	addiu	a2,a2,1
8000a868:	10600024 	beqz	v1,8000a8fc <core_list_init+0x4fc>
8000a86c:	00000000 	nop
8000a870:	10ce0022 	beq	a2,t6,8000a8fc <core_list_init+0x4fc>
8000a874:	00000000 	nop
8000a878:	8c630000 	lw	v1,0(v1)
8000a87c:	24c60001 	addiu	a2,a2,1
8000a880:	00c06025 	move	t4,a2
8000a884:	1060001d 	beqz	v1,8000a8fc <core_list_init+0x4fc>
8000a888:	00000000 	nop
8000a88c:	8c630000 	lw	v1,0(v1)
8000a890:	24c60001 	addiu	a2,a2,1
8000a894:	10600019 	beqz	v1,8000a8fc <core_list_init+0x4fc>
8000a898:	00000000 	nop
8000a89c:	8c630000 	lw	v1,0(v1)
8000a8a0:	25860002 	addiu	a2,t4,2
8000a8a4:	10600015 	beqz	v1,8000a8fc <core_list_init+0x4fc>
8000a8a8:	00000000 	nop
8000a8ac:	8c630000 	lw	v1,0(v1)
8000a8b0:	25860003 	addiu	a2,t4,3
8000a8b4:	10600011 	beqz	v1,8000a8fc <core_list_init+0x4fc>
8000a8b8:	00000000 	nop
8000a8bc:	8c630000 	lw	v1,0(v1)
8000a8c0:	25860004 	addiu	a2,t4,4
8000a8c4:	1060000d 	beqz	v1,8000a8fc <core_list_init+0x4fc>
8000a8c8:	00000000 	nop
8000a8cc:	8c630000 	lw	v1,0(v1)
8000a8d0:	25860005 	addiu	a2,t4,5
8000a8d4:	10600009 	beqz	v1,8000a8fc <core_list_init+0x4fc>
8000a8d8:	00000000 	nop
8000a8dc:	8c630000 	lw	v1,0(v1)
8000a8e0:	25860006 	addiu	a2,t4,6
8000a8e4:	10600005 	beqz	v1,8000a8fc <core_list_init+0x4fc>
8000a8e8:	00000000 	nop
8000a8ec:	8c630000 	lw	v1,0(v1)
8000a8f0:	25860007 	addiu	a2,t4,7
8000a8f4:	1460ffde 	bnez	v1,8000a870 <core_list_init+0x470>
8000a8f8:	00000000 	nop
8000a8fc:	00a04025 	move	t0,a1
8000a900:	01c03825 	move	a3,t6
8000a904:	00602825 	move	a1,v1
8000a908:	18c00022 	blez	a2,8000a994 <core_list_init+0x594>
8000a90c:	00000000 	nop
8000a910:	10e0002b 	beqz	a3,8000a9c0 <core_list_init+0x5c0>
8000a914:	00000000 	nop
8000a918:	10a00029 	beqz	a1,8000a9c0 <core_list_init+0x5c0>
8000a91c:	00000000 	nop
8000a920:	8d0b0004 	lw	t3,4(t0)
8000a924:	8caa0004 	lw	t2,4(a1)
8000a928:	85630000 	lh	v1,0(t3)
8000a92c:	85690002 	lh	t1,2(t3)
8000a930:	85590002 	lh	t9,2(t2)
8000a934:	306cffff 	andi	t4,v1,0xffff
8000a938:	000c6202 	srl	t4,t4,0x8
8000a93c:	006d1824 	and	v1,v1,t5
8000a940:	006c6025 	or	t4,v1,t4
8000a944:	01394823 	subu	t1,t1,t9
8000a948:	a56c0000 	sh	t4,0(t3)
8000a94c:	85590000 	lh	t9,0(t2)
8000a950:	00000000 	nop
8000a954:	332bffff 	andi	t3,t9,0xffff
8000a958:	000b6202 	srl	t4,t3,0x8
8000a95c:	032d1824 	and	v1,t9,t5
8000a960:	006cc825 	or	t9,v1,t4
8000a964:	a5590000 	sh	t9,0(t2)
8000a968:	19200015 	blez	t1,8000a9c0 <core_list_init+0x5c0>
8000a96c:	00000000 	nop
8000a970:	00a05025 	move	t2,a1
8000a974:	8ca50000 	lw	a1,0(a1)
8000a978:	24e7ffff 	addiu	a3,a3,-1
8000a97c:	10800015 	beqz	a0,8000a9d4 <core_list_init+0x5d4>
8000a980:	00000000 	nop
8000a984:	ac8a0000 	sw	t2,0(a0)
8000a988:	01402025 	move	a0,t2
8000a98c:	1cc0ffe0 	bgtz	a2,8000a910 <core_list_init+0x510>
8000a990:	00000000 	nop
8000a994:	18e00016 	blez	a3,8000a9f0 <core_list_init+0x5f0>
8000a998:	00000000 	nop
8000a99c:	10a00016 	beqz	a1,8000a9f8 <core_list_init+0x5f8>
8000a9a0:	00000000 	nop
8000a9a4:	10c0fff2 	beqz	a2,8000a970 <core_list_init+0x570>
8000a9a8:	00000000 	nop
8000a9ac:	1000ffdc 	b	8000a920 <core_list_init+0x520>
8000a9b0:	00000000 	nop
	...
8000a9c0:	01005025 	move	t2,t0
8000a9c4:	8d080000 	lw	t0,0(t0)
8000a9c8:	24c6ffff 	addiu	a2,a2,-1
8000a9cc:	1480ffed 	bnez	a0,8000a984 <core_list_init+0x584>
8000a9d0:	00000000 	nop
8000a9d4:	01401025 	move	v0,t2
8000a9d8:	01402025 	move	a0,t2
8000a9dc:	1000ffeb 	b	8000a98c <core_list_init+0x58c>
8000a9e0:	00000000 	nop
	...
8000a9f0:	14a0ff67 	bnez	a1,8000a790 <core_list_init+0x390>
8000a9f4:	00000000 	nop
8000a9f8:	ac800000 	sw	zero,0(a0)
8000a9fc:	15f80047 	bne	t7,t8,8000ab1c <core_list_init+0x71c>
8000aa00:	00000000 	nop
8000aa04:	03e00008 	jr	ra
8000aa08:	00000000 	nop
8000aa0c:	246f0004 	addiu	t7,v1,4
8000aa10:	01e8702b 	sltu	t6,t7,t0
8000aa14:	11c0feb7 	beqz	t6,8000a4f4 <core_list_init+0xf4>
8000aa18:	00000000 	nop
8000aa1c:	30f8ffff 	andi	t8,a3,0xffff
8000aa20:	ac440000 	sw	a0,0(v0)
8000aa24:	030c2026 	xor	a0,t8,t4
8000aa28:	aca20000 	sw	v0,0(a1)
8000aa2c:	308b000f 	andi	t3,a0,0xf
8000aa30:	ac430004 	sw	v1,4(v0)
8000aa34:	000b70c0 	sll	t6,t3,0x3
8000aa38:	a46d0002 	sh	t5,2(v1)
8000aa3c:	33180007 	andi	t8,t8,0x7
8000aa40:	01d85825 	or	t3,t6,t8
8000aa44:	000b7200 	sll	t6,t3,0x8
8000aa48:	00402025 	move	a0,v0
8000aa4c:	01cbc025 	or	t8,t6,t3
8000aa50:	01401025 	move	v0,t2
8000aa54:	a4780000 	sh	t8,0(v1)
8000aa58:	01e01825 	move	v1,t7
8000aa5c:	1000fea5 	b	8000a4f4 <core_list_init+0xf4>
8000aa60:	00000000 	nop
8000aa64:	246a0004 	addiu	t2,v1,4
8000aa68:	0148702b 	sltu	t6,t2,t0
8000aa6c:	11c0fe9c 	beqz	t6,8000a4e0 <core_list_init+0xe0>
8000aa70:	00000000 	nop
8000aa74:	398f0001 	xori	t7,t4,0x1
8000aa78:	ac440000 	sw	a0,0(v0)
8000aa7c:	31e4000f 	andi	a0,t7,0xf
8000aa80:	aca20000 	sw	v0,0(a1)
8000aa84:	000458c0 	sll	t3,a0,0x3
8000aa88:	ac430004 	sw	v1,4(v0)
8000aa8c:	00402025 	move	a0,v0
8000aa90:	a46d0002 	sh	t5,2(v1)
8000aa94:	356f0001 	ori	t7,t3,0x1
8000aa98:	000f7200 	sll	t6,t7,0x8
8000aa9c:	03001025 	move	v0,t8
8000aaa0:	01cfc025 	or	t8,t6,t7
8000aaa4:	a4780000 	sh	t8,0(v1)
8000aaa8:	01401825 	move	v1,t2
8000aaac:	1000fe8c 	b	8000a4e0 <core_list_init+0xe0>
8000aab0:	00000000 	nop
8000aab4:	240fffff 	li	t7,-1
8000aab8:	aca20000 	sw	v0,0(a1)
8000aabc:	24187fff 	li	t8,32767
8000aac0:	aca3000c 	sw	v1,12(a1)
8000aac4:	aca00008 	sw	zero,8(a1)
8000aac8:	00402025 	move	a0,v0
8000aacc:	a52f0004 	sh	t7,4(t1)
8000aad0:	01a01825 	move	v1,t5
8000aad4:	a5380006 	sh	t8,6(t1)
8000aad8:	00e01025 	move	v0,a3
8000aadc:	1000fe64 	b	8000a470 <core_list_init+0x70>
8000aae0:	00000000 	nop
8000aae4:	318b000f 	andi	t3,t4,0xf
8000aae8:	ac440000 	sw	a0,0(v0)
8000aaec:	000b38c0 	sll	a3,t3,0x3
8000aaf0:	aca20000 	sw	v0,0(a1)
8000aaf4:	00402025 	move	a0,v0
8000aaf8:	ac430004 	sw	v1,4(v0)
8000aafc:	00077200 	sll	t6,a3,0x8
8000ab00:	a46d0002 	sh	t5,2(v1)
8000ab04:	01401025 	move	v0,t2
8000ab08:	01c75025 	or	t2,t6,a3
8000ab0c:	a46a0000 	sh	t2,0(v1)
8000ab10:	01e01825 	move	v1,t7
8000ab14:	1000fe64 	b	8000a4a8 <core_list_init+0xa8>
8000ab18:	00000000 	nop
8000ab1c:	000e7040 	sll	t6,t6,0x1
8000ab20:	10400004 	beqz	v0,8000ab34 <core_list_init+0x734>
8000ab24:	00000000 	nop
8000ab28:	00402825 	move	a1,v0
8000ab2c:	1000ff15 	b	8000a784 <core_list_init+0x384>
8000ab30:	00000000 	nop
8000ab34:	ac000000 	sw	zero,0(zero)
8000ab38:	0000000d 	break
8000ab3c:	00000000 	nop

8000ab40 <core_list_insert_new>:
core_list_insert_new():
8000ab40:	8cc20000 	lw	v0,0(a2)
8000ab44:	8fa30010 	lw	v1,16(sp)
8000ab48:	24490008 	addiu	t1,v0,8
8000ab4c:	0123402b 	sltu	t0,t1,v1
8000ab50:	1100001b 	beqz	t0,8000abc0 <core_list_insert_new+0x80>
8000ab54:	00000000 	nop
8000ab58:	8cea0000 	lw	t2,0(a3)
8000ab5c:	8fac0014 	lw	t4,20(sp)
8000ab60:	254b0004 	addiu	t3,t2,4
8000ab64:	016c682b 	sltu	t5,t3,t4
8000ab68:	11a00015 	beqz	t5,8000abc0 <core_list_insert_new+0x80>
8000ab6c:	00000000 	nop
8000ab70:	acc90000 	sw	t1,0(a2)
8000ab74:	8c8e0000 	lw	t6,0(a0)
8000ab78:	84a60000 	lh	a2,0(a1)
8000ab7c:	84a50002 	lh	a1,2(a1)
8000ab80:	ac4e0000 	sw	t6,0(v0)
8000ab84:	ac820000 	sw	v0,0(a0)
8000ab88:	8ce40000 	lw	a0,0(a3)
8000ab8c:	00000000 	nop
8000ab90:	ac440004 	sw	a0,4(v0)
8000ab94:	8cef0000 	lw	t7,0(a3)
8000ab98:	00000000 	nop
8000ab9c:	25f80004 	addiu	t8,t7,4
8000aba0:	acf80000 	sw	t8,0(a3)
8000aba4:	8c470004 	lw	a3,4(v0)
8000aba8:	00000000 	nop
8000abac:	a4e60000 	sh	a2,0(a3)
8000abb0:	a4e50002 	sh	a1,2(a3)
8000abb4:	03e00008 	jr	ra
8000abb8:	00000000 	nop
8000abbc:	00000000 	nop
8000abc0:	00001025 	move	v0,zero
8000abc4:	03e00008 	jr	ra
8000abc8:	00000000 	nop
8000abcc:	00000000 	nop

8000abd0 <core_list_remove>:
core_list_remove():
8000abd0:	8c830000 	lw	v1,0(a0)
8000abd4:	8c860004 	lw	a2,4(a0)
8000abd8:	00601025 	move	v0,v1
8000abdc:	8c670004 	lw	a3,4(v1)
8000abe0:	8c650000 	lw	a1,0(v1)
8000abe4:	ac870004 	sw	a3,4(a0)
8000abe8:	ac660004 	sw	a2,4(v1)
8000abec:	ac850000 	sw	a1,0(a0)
8000abf0:	ac600000 	sw	zero,0(v1)
8000abf4:	03e00008 	jr	ra
8000abf8:	00000000 	nop
8000abfc:	00000000 	nop

8000ac00 <core_list_undo_remove>:
core_list_undo_remove():
8000ac00:	8c860004 	lw	a2,4(a0)
8000ac04:	00801025 	move	v0,a0
8000ac08:	8ca70004 	lw	a3,4(a1)
8000ac0c:	8ca30000 	lw	v1,0(a1)
8000ac10:	ac870004 	sw	a3,4(a0)
8000ac14:	aca60004 	sw	a2,4(a1)
8000ac18:	ac830000 	sw	v1,0(a0)
8000ac1c:	aca40000 	sw	a0,0(a1)
8000ac20:	03e00008 	jr	ra
8000ac24:	00000000 	nop
	...

8000ac30 <core_list_find>:
core_list_find():
8000ac30:	00801025 	move	v0,a0
8000ac34:	84a40002 	lh	a0,2(a1)
8000ac38:	00000000 	nop
8000ac3c:	04800018 	bltz	a0,8000aca0 <core_list_find+0x70>
8000ac40:	00000000 	nop
8000ac44:	10400014 	beqz	v0,8000ac98 <core_list_find+0x68>
8000ac48:	00000000 	nop
8000ac4c:	8c490004 	lw	t1,4(v0)
8000ac50:	00000000 	nop
8000ac54:	852a0002 	lh	t2,2(t1)
8000ac58:	00000000 	nop
8000ac5c:	1544000a 	bne	t2,a0,8000ac88 <core_list_find+0x58>
8000ac60:	00000000 	nop
8000ac64:	10000028 	b	8000ad08 <core_list_find+0xd8>
8000ac68:	00000000 	nop
8000ac6c:	00000000 	nop
8000ac70:	8c4b0004 	lw	t3,4(v0)
8000ac74:	00000000 	nop
8000ac78:	856c0002 	lh	t4,2(t3)
8000ac7c:	00000000 	nop
8000ac80:	11840005 	beq	t4,a0,8000ac98 <core_list_find+0x68>
8000ac84:	00000000 	nop
8000ac88:	8c420000 	lw	v0,0(v0)
8000ac8c:	00000000 	nop
8000ac90:	1440fff7 	bnez	v0,8000ac70 <core_list_find+0x40>
8000ac94:	00000000 	nop
8000ac98:	03e00008 	jr	ra
8000ac9c:	00000000 	nop
8000aca0:	1040fffd 	beqz	v0,8000ac98 <core_list_find+0x68>
8000aca4:	00000000 	nop
8000aca8:	8c430004 	lw	v1,4(v0)
8000acac:	84a50000 	lh	a1,0(a1)
8000acb0:	90660000 	lbu	a2,0(v1)
8000acb4:	00000000 	nop
8000acb8:	14c5000b 	bne	a2,a1,8000ace8 <core_list_find+0xb8>
8000acbc:	00000000 	nop
8000acc0:	10000013 	b	8000ad10 <core_list_find+0xe0>
8000acc4:	00000000 	nop
	...
8000acd0:	8c470004 	lw	a3,4(v0)
8000acd4:	00000000 	nop
8000acd8:	90e80000 	lbu	t0,0(a3)
8000acdc:	00000000 	nop
8000ace0:	11050007 	beq	t0,a1,8000ad00 <core_list_find+0xd0>
8000ace4:	00000000 	nop
8000ace8:	8c420000 	lw	v0,0(v0)
8000acec:	00000000 	nop
8000acf0:	1440fff7 	bnez	v0,8000acd0 <core_list_find+0xa0>
8000acf4:	00000000 	nop
8000acf8:	1000ffe7 	b	8000ac98 <core_list_find+0x68>
8000acfc:	00000000 	nop
8000ad00:	03e00008 	jr	ra
8000ad04:	00000000 	nop
8000ad08:	03e00008 	jr	ra
8000ad0c:	00000000 	nop
8000ad10:	03e00008 	jr	ra
8000ad14:	00000000 	nop
	...

8000ad20 <core_list_reverse>:
core_list_reverse():
8000ad20:	00801025 	move	v0,a0
8000ad24:	10800031 	beqz	a0,8000adec <core_list_reverse+0xcc>
8000ad28:	00000000 	nop
8000ad2c:	00006025 	move	t4,zero
8000ad30:	8c430000 	lw	v1,0(v0)
8000ad34:	00402825 	move	a1,v0
8000ad38:	ac4c0000 	sw	t4,0(v0)
8000ad3c:	1060002b 	beqz	v1,8000adec <core_list_reverse+0xcc>
8000ad40:	00000000 	nop
8000ad44:	8c640000 	lw	a0,0(v1)
8000ad48:	00601025 	move	v0,v1
8000ad4c:	ac650000 	sw	a1,0(v1)
8000ad50:	1080002b 	beqz	a0,8000ae00 <core_list_reverse+0xe0>
8000ad54:	00000000 	nop
8000ad58:	8c860000 	lw	a2,0(a0)
8000ad5c:	00801025 	move	v0,a0
8000ad60:	ac830000 	sw	v1,0(a0)
8000ad64:	10c00021 	beqz	a2,8000adec <core_list_reverse+0xcc>
8000ad68:	00000000 	nop
8000ad6c:	8cc70000 	lw	a3,0(a2)
8000ad70:	00c01025 	move	v0,a2
8000ad74:	acc40000 	sw	a0,0(a2)
8000ad78:	10e0001c 	beqz	a3,8000adec <core_list_reverse+0xcc>
8000ad7c:	00000000 	nop
8000ad80:	8ce80000 	lw	t0,0(a3)
8000ad84:	00e01025 	move	v0,a3
8000ad88:	ace60000 	sw	a2,0(a3)
8000ad8c:	11000017 	beqz	t0,8000adec <core_list_reverse+0xcc>
8000ad90:	00000000 	nop
8000ad94:	8d090000 	lw	t1,0(t0)
8000ad98:	01001025 	move	v0,t0
8000ad9c:	ad070000 	sw	a3,0(t0)
8000ada0:	11200012 	beqz	t1,8000adec <core_list_reverse+0xcc>
8000ada4:	00000000 	nop
8000ada8:	8d2a0000 	lw	t2,0(t1)
8000adac:	01201025 	move	v0,t1
8000adb0:	ad280000 	sw	t0,0(t1)
8000adb4:	1140000d 	beqz	t2,8000adec <core_list_reverse+0xcc>
8000adb8:	00000000 	nop
8000adbc:	8d4b0000 	lw	t3,0(t2)
8000adc0:	01401025 	move	v0,t2
8000adc4:	01406025 	move	t4,t2
8000adc8:	ad490000 	sw	t1,0(t2)
8000adcc:	11600007 	beqz	t3,8000adec <core_list_reverse+0xcc>
8000add0:	00000000 	nop
8000add4:	01601025 	move	v0,t3
8000add8:	00402825 	move	a1,v0
8000addc:	8c430000 	lw	v1,0(v0)
8000ade0:	ac4c0000 	sw	t4,0(v0)
8000ade4:	1460ffd7 	bnez	v1,8000ad44 <core_list_reverse+0x24>
8000ade8:	00000000 	nop
8000adec:	03e00008 	jr	ra
8000adf0:	00000000 	nop
	...
8000ae00:	03e00008 	jr	ra
8000ae04:	00000000 	nop
	...

8000ae10 <core_list_mergesort>:
core_list_mergesort():
8000ae10:	27bdffc0 	addiu	sp,sp,-64
8000ae14:	afb1001c 	sw	s1,28(sp)
8000ae18:	00808825 	move	s1,a0
8000ae1c:	afb5002c 	sw	s5,44(sp)
8000ae20:	24150001 	li	s5,1
8000ae24:	afb30024 	sw	s3,36(sp)
8000ae28:	00a09825 	move	s3,a1
8000ae2c:	afb20020 	sw	s2,32(sp)
8000ae30:	00c09025 	move	s2,a2
8000ae34:	afbf003c 	sw	ra,60(sp)
8000ae38:	afbe0038 	sw	s8,56(sp)
8000ae3c:	afb70034 	sw	s7,52(sp)
8000ae40:	afb60030 	sw	s6,48(sp)
8000ae44:	afb40028 	sw	s4,40(sp)
8000ae48:	afb00018 	sw	s0,24(sp)
8000ae4c:	122000ae 	beqz	s1,8000b108 <core_list_mergesort+0x2f8>
8000ae50:	00000000 	nop
8000ae54:	00008025 	move	s0,zero
8000ae58:	afa00010 	sw	zero,16(sp)
8000ae5c:	0000a025 	move	s4,zero
8000ae60:	8fa40010 	lw	a0,16(sp)
8000ae64:	26a3ffff 	addiu	v1,s5,-1
8000ae68:	8e220000 	lw	v0,0(s1)
8000ae6c:	241e0001 	li	s8,1
8000ae70:	30660007 	andi	a2,v1,0x7
8000ae74:	24850001 	addiu	a1,a0,1
8000ae78:	afa50010 	sw	a1,16(sp)
8000ae7c:	10400055 	beqz	v0,8000afd4 <core_list_mergesort+0x1c4>
8000ae80:	00000000 	nop
8000ae84:	12be0096 	beq	s5,s8,8000b0e0 <core_list_mergesort+0x2d0>
8000ae88:	00000000 	nop
8000ae8c:	10c00030 	beqz	a2,8000af50 <core_list_mergesort+0x140>
8000ae90:	00000000 	nop
8000ae94:	10de0028 	beq	a2,s8,8000af38 <core_list_mergesort+0x128>
8000ae98:	00000000 	nop
8000ae9c:	24070002 	li	a3,2
8000aea0:	10c70021 	beq	a2,a3,8000af28 <core_list_mergesort+0x118>
8000aea4:	00000000 	nop
8000aea8:	24080003 	li	t0,3
8000aeac:	10c8001a 	beq	a2,t0,8000af18 <core_list_mergesort+0x108>
8000aeb0:	00000000 	nop
8000aeb4:	24090004 	li	t1,4
8000aeb8:	10c90013 	beq	a2,t1,8000af08 <core_list_mergesort+0xf8>
8000aebc:	00000000 	nop
8000aec0:	240a0005 	li	t2,5
8000aec4:	10ca000c 	beq	a2,t2,8000aef8 <core_list_mergesort+0xe8>
8000aec8:	00000000 	nop
8000aecc:	240b0006 	li	t3,6
8000aed0:	10cb0005 	beq	a2,t3,8000aee8 <core_list_mergesort+0xd8>
8000aed4:	00000000 	nop
8000aed8:	8c420000 	lw	v0,0(v0)
8000aedc:	241e0002 	li	s8,2
8000aee0:	1040003c 	beqz	v0,8000afd4 <core_list_mergesort+0x1c4>
8000aee4:	00000000 	nop
8000aee8:	8c420000 	lw	v0,0(v0)
8000aeec:	27de0001 	addiu	s8,s8,1
8000aef0:	10400038 	beqz	v0,8000afd4 <core_list_mergesort+0x1c4>
8000aef4:	00000000 	nop
8000aef8:	8c420000 	lw	v0,0(v0)
8000aefc:	27de0001 	addiu	s8,s8,1
8000af00:	10400034 	beqz	v0,8000afd4 <core_list_mergesort+0x1c4>
8000af04:	00000000 	nop
8000af08:	8c420000 	lw	v0,0(v0)
8000af0c:	27de0001 	addiu	s8,s8,1
8000af10:	10400030 	beqz	v0,8000afd4 <core_list_mergesort+0x1c4>
8000af14:	00000000 	nop
8000af18:	8c420000 	lw	v0,0(v0)
8000af1c:	27de0001 	addiu	s8,s8,1
8000af20:	1040002c 	beqz	v0,8000afd4 <core_list_mergesort+0x1c4>
8000af24:	00000000 	nop
8000af28:	8c420000 	lw	v0,0(v0)
8000af2c:	27de0001 	addiu	s8,s8,1
8000af30:	10400028 	beqz	v0,8000afd4 <core_list_mergesort+0x1c4>
8000af34:	00000000 	nop
8000af38:	8c420000 	lw	v0,0(v0)
8000af3c:	27de0001 	addiu	s8,s8,1
8000af40:	10400024 	beqz	v0,8000afd4 <core_list_mergesort+0x1c4>
8000af44:	00000000 	nop
8000af48:	12be0065 	beq	s5,s8,8000b0e0 <core_list_mergesort+0x2d0>
8000af4c:	00000000 	nop
8000af50:	8c420000 	lw	v0,0(v0)
8000af54:	27de0001 	addiu	s8,s8,1
8000af58:	03c06025 	move	t4,s8
8000af5c:	1040001d 	beqz	v0,8000afd4 <core_list_mergesort+0x1c4>
8000af60:	00000000 	nop
8000af64:	8c420000 	lw	v0,0(v0)
8000af68:	27de0001 	addiu	s8,s8,1
8000af6c:	10400019 	beqz	v0,8000afd4 <core_list_mergesort+0x1c4>
8000af70:	00000000 	nop
8000af74:	8c420000 	lw	v0,0(v0)
8000af78:	259e0002 	addiu	s8,t4,2
8000af7c:	10400015 	beqz	v0,8000afd4 <core_list_mergesort+0x1c4>
8000af80:	00000000 	nop
8000af84:	8c420000 	lw	v0,0(v0)
8000af88:	259e0003 	addiu	s8,t4,3
8000af8c:	10400011 	beqz	v0,8000afd4 <core_list_mergesort+0x1c4>
8000af90:	00000000 	nop
8000af94:	8c420000 	lw	v0,0(v0)
8000af98:	259e0004 	addiu	s8,t4,4
8000af9c:	1040000d 	beqz	v0,8000afd4 <core_list_mergesort+0x1c4>
8000afa0:	00000000 	nop
8000afa4:	8c420000 	lw	v0,0(v0)
8000afa8:	259e0005 	addiu	s8,t4,5
8000afac:	10400009 	beqz	v0,8000afd4 <core_list_mergesort+0x1c4>
8000afb0:	00000000 	nop
8000afb4:	8c420000 	lw	v0,0(v0)
8000afb8:	259e0006 	addiu	s8,t4,6
8000afbc:	10400005 	beqz	v0,8000afd4 <core_list_mergesort+0x1c4>
8000afc0:	00000000 	nop
8000afc4:	8c420000 	lw	v0,0(v0)
8000afc8:	259e0007 	addiu	s8,t4,7
8000afcc:	1440ffde 	bnez	v0,8000af48 <core_list_mergesort+0x138>
8000afd0:	00000000 	nop
8000afd4:	0220b025 	move	s6,s1
8000afd8:	02a0b825 	move	s7,s5
8000afdc:	00408825 	move	s1,v0
8000afe0:	13c00015 	beqz	s8,8000b038 <core_list_mergesort+0x228>
8000afe4:	00000000 	nop
8000afe8:	12e0002d 	beqz	s7,8000b0a0 <core_list_mergesort+0x290>
8000afec:	00000000 	nop
8000aff0:	1220002b 	beqz	s1,8000b0a0 <core_list_mergesort+0x290>
8000aff4:	00000000 	nop
8000aff8:	8e250004 	lw	a1,4(s1)
8000affc:	02403025 	move	a2,s2
8000b000:	8ec40004 	lw	a0,4(s6)
8000b004:	0260f809 	jalr	s3
8000b008:	00000000 	nop
8000b00c:	18400024 	blez	v0,8000b0a0 <core_list_mergesort+0x290>
8000b010:	00000000 	nop
8000b014:	02207825 	move	t7,s1
8000b018:	8e310000 	lw	s1,0(s1)
8000b01c:	26f7ffff 	addiu	s7,s7,-1
8000b020:	12000024 	beqz	s0,8000b0b4 <core_list_mergesort+0x2a4>
8000b024:	00000000 	nop
8000b028:	ae0f0000 	sw	t7,0(s0)
8000b02c:	01e08025 	move	s0,t7
8000b030:	17c0ffed 	bnez	s8,8000afe8 <core_list_mergesort+0x1d8>
8000b034:	00000000 	nop
8000b038:	12e00025 	beqz	s7,8000b0d0 <core_list_mergesort+0x2c0>
8000b03c:	00000000 	nop
8000b040:	1620fff4 	bnez	s1,8000b014 <core_list_mergesort+0x204>
8000b044:	00000000 	nop
8000b048:	8fad0010 	lw	t5,16(sp)
8000b04c:	240e0001 	li	t6,1
8000b050:	ae000000 	sw	zero,0(s0)
8000b054:	15ae0028 	bne	t5,t6,8000b0f8 <core_list_mergesort+0x2e8>
8000b058:	00000000 	nop
8000b05c:	8fbf003c 	lw	ra,60(sp)
8000b060:	02801025 	move	v0,s4
8000b064:	8fbe0038 	lw	s8,56(sp)
8000b068:	8fb70034 	lw	s7,52(sp)
8000b06c:	8fb60030 	lw	s6,48(sp)
8000b070:	8fb5002c 	lw	s5,44(sp)
8000b074:	8fb40028 	lw	s4,40(sp)
8000b078:	8fb30024 	lw	s3,36(sp)
8000b07c:	8fb20020 	lw	s2,32(sp)
8000b080:	8fb1001c 	lw	s1,28(sp)
8000b084:	8fb00018 	lw	s0,24(sp)
8000b088:	27bd0040 	addiu	sp,sp,64
8000b08c:	03e00008 	jr	ra
8000b090:	00000000 	nop
	...
8000b0a0:	02c07825 	move	t7,s6
8000b0a4:	8ed60000 	lw	s6,0(s6)
8000b0a8:	27deffff 	addiu	s8,s8,-1
8000b0ac:	1600ffde 	bnez	s0,8000b028 <core_list_mergesort+0x218>
8000b0b0:	00000000 	nop
8000b0b4:	01e0a025 	move	s4,t7
8000b0b8:	01e08025 	move	s0,t7
8000b0bc:	1000ffdc 	b	8000b030 <core_list_mergesort+0x220>
8000b0c0:	00000000 	nop
	...
8000b0d0:	1620ff63 	bnez	s1,8000ae60 <core_list_mergesort+0x50>
8000b0d4:	00000000 	nop
8000b0d8:	1000ffdb 	b	8000b048 <core_list_mergesort+0x238>
8000b0dc:	00000000 	nop
8000b0e0:	0220b025 	move	s6,s1
8000b0e4:	02a0f025 	move	s8,s5
8000b0e8:	02a0b825 	move	s7,s5
8000b0ec:	00408825 	move	s1,v0
8000b0f0:	1000ffbb 	b	8000afe0 <core_list_mergesort+0x1d0>
8000b0f4:	00000000 	nop
8000b0f8:	02808825 	move	s1,s4
8000b0fc:	0015a840 	sll	s5,s5,0x1
8000b100:	1620ff54 	bnez	s1,8000ae54 <core_list_mergesort+0x44>
8000b104:	00000000 	nop
8000b108:	ac000000 	sw	zero,0(zero)
8000b10c:	0000000d 	break

8000b110 <portable_malloc>:
portable_malloc():
8000b110:	00001025 	move	v0,zero
8000b114:	03e00008 	jr	ra
8000b118:	00000000 	nop
8000b11c:	00000000 	nop

8000b120 <portable_free>:
portable_free():
8000b120:	03e00008 	jr	ra
8000b124:	00000000 	nop
	...

8000b130 <start_time>:
start_time():
8000b130:	3c058001 	lui	a1,0x8001
8000b134:	00002025 	move	a0,zero
8000b138:	24a5d030 	addiu	a1,a1,-12240
8000b13c:	08002dcc 	j	8000b730 <clock_gettime>
8000b140:	00000000 	nop
	...

8000b150 <stop_time>:
stop_time():
8000b150:	3c058001 	lui	a1,0x8001
8000b154:	00002025 	move	a0,zero
8000b158:	24a5d020 	addiu	a1,a1,-12256
8000b15c:	08002dcc 	j	8000b730 <clock_gettime>
8000b160:	00000000 	nop
	...

8000b170 <get_time>:
get_time():
8000b170:	3c038001 	lui	v1,0x8001
8000b174:	3c028001 	lui	v0,0x8001
8000b178:	2466d020 	addiu	a2,v1,-12256
8000b17c:	2444d030 	addiu	a0,v0,-12240
8000b180:	8c65d020 	lw	a1,-12256(v1)
8000b184:	3c0e431b 	lui	t6,0x431b
8000b188:	8c47d030 	lw	a3,-12240(v0)
8000b18c:	8cc80004 	lw	t0,4(a2)
8000b190:	8c890004 	lw	t1,4(a0)
8000b194:	35cfde83 	ori	t7,t6,0xde83
8000b198:	00a75023 	subu	t2,a1,a3
8000b19c:	01095823 	subu	t3,t0,t1
8000b1a0:	000a6080 	sll	t4,t2,0x2
8000b1a4:	016f0019 	multu	t3,t7
8000b1a8:	000a69c0 	sll	t5,t2,0x7
8000b1ac:	01acc823 	subu	t9,t5,t4
8000b1b0:	0000c010 	mfhi	t8
8000b1b4:	032a1021 	addu	v0,t9,t2
8000b1b8:	000230c0 	sll	a2,v0,0x3
8000b1bc:	00181c82 	srl	v1,t8,0x12
8000b1c0:	00c31021 	addu	v0,a2,v1
8000b1c4:	03e00008 	jr	ra
8000b1c8:	00000000 	nop
8000b1cc:	00000000 	nop

8000b1d0 <time_in_secs>:
time_in_secs():
8000b1d0:	3c021062 	lui	v0,0x1062
8000b1d4:	24434dd3 	addiu	v1,v0,19923
8000b1d8:	00830019 	multu	a0,v1
8000b1dc:	00002010 	mfhi	a0
8000b1e0:	00041182 	srl	v0,a0,0x6
8000b1e4:	03e00008 	jr	ra
8000b1e8:	00000000 	nop
8000b1ec:	00000000 	nop

8000b1f0 <portable_init>:
portable_init():
8000b1f0:	24020001 	li	v0,1
8000b1f4:	a0820000 	sb	v0,0(a0)
8000b1f8:	03e00008 	jr	ra
8000b1fc:	00000000 	nop

8000b200 <portable_fini>:
portable_fini():
8000b200:	a0800000 	sb	zero,0(a0)
8000b204:	03e00008 	jr	ra
8000b208:	00000000 	nop
8000b20c:	00000000 	nop

8000b210 <__divu10>:
__divu10():
8000b210:	00041082 	srl	v0,a0,0x2
8000b214:	00041842 	srl	v1,a0,0x1
8000b218:	24840006 	addiu	a0,a0,6
8000b21c:	00621821 	addu	v1,v1,v0
8000b220:	00031102 	srl	v0,v1,0x4
8000b224:	00621821 	addu	v1,v1,v0
8000b228:	00031202 	srl	v0,v1,0x8
8000b22c:	00621821 	addu	v1,v1,v0
8000b230:	00031402 	srl	v0,v1,0x10
8000b234:	00621821 	addu	v1,v1,v0
8000b238:	000318c2 	srl	v1,v1,0x3
8000b23c:	00031040 	sll	v0,v1,0x1
8000b240:	000328c0 	sll	a1,v1,0x3
8000b244:	00451021 	addu	v0,v0,a1
8000b248:	00821023 	subu	v0,a0,v0
8000b24c:	00021102 	srl	v0,v0,0x4
8000b250:	00431021 	addu	v0,v0,v1
8000b254:	03e00008 	jr	ra
8000b258:	00000000 	nop

8000b25c <printnum2>:
printnum2():
8000b25c:	27bdff90 	addiu	sp,sp,-112
8000b260:	afb0005c 	sw	s0,92(sp)
8000b264:	00808025 	move	s0,a0
8000b268:	afbf006c 	sw	ra,108(sp)
8000b26c:	afb30068 	sw	s3,104(sp)
8000b270:	afb20064 	sw	s2,100(sp)
8000b274:	afb10060 	sw	s1,96(sp)
8000b278:	10e00003 	beqz	a3,8000b288 <printnum2+0x2c>
8000b27c:	00000000 	nop
8000b280:	04800060 	bltz	a0,8000b404 <printnum2+0x1a8>
8000b284:	00000000 	nop
8000b288:	12000068 	beqz	s0,8000b42c <printnum2+0x1d0>
8000b28c:	00000000 	nop
8000b290:	27a40010 	addiu	a0,sp,16
8000b294:	00008825 	move	s1,zero
8000b298:	24080002 	li	t0,2
8000b29c:	24090008 	li	t1,8
8000b2a0:	240a0010 	li	t2,16
8000b2a4:	10c80040 	beq	a2,t0,8000b3a8 <printnum2+0x14c>
8000b2a8:	00000000 	nop
8000b2ac:	00101842 	srl	v1,s0,0x1
8000b2b0:	10c90042 	beq	a2,t1,8000b3bc <printnum2+0x160>
8000b2b4:	00000000 	nop
8000b2b8:	00101082 	srl	v0,s0,0x2
8000b2bc:	10ca0044 	beq	a2,t2,8000b3d0 <printnum2+0x174>
8000b2c0:	00000000 	nop
8000b2c4:	00621821 	addu	v1,v1,v0
8000b2c8:	26070006 	addiu	a3,s0,6
8000b2cc:	00031102 	srl	v0,v1,0x4
8000b2d0:	00621821 	addu	v1,v1,v0
8000b2d4:	00031202 	srl	v0,v1,0x8
8000b2d8:	00621821 	addu	v1,v1,v0
8000b2dc:	00031402 	srl	v0,v1,0x10
8000b2e0:	00621821 	addu	v1,v1,v0
8000b2e4:	000318c2 	srl	v1,v1,0x3
8000b2e8:	00031040 	sll	v0,v1,0x1
8000b2ec:	000358c0 	sll	t3,v1,0x3
8000b2f0:	004b1021 	addu	v0,v0,t3
8000b2f4:	00e21023 	subu	v0,a3,v0
8000b2f8:	00021102 	srl	v0,v0,0x4
8000b2fc:	00621021 	addu	v0,v1,v0
8000b300:	00021840 	sll	v1,v0,0x1
8000b304:	000238c0 	sll	a3,v0,0x3
8000b308:	00671821 	addu	v1,v1,a3
8000b30c:	02031823 	subu	v1,s0,v1
8000b310:	00408025 	move	s0,v0
8000b314:	a0830000 	sb	v1,0(a0)
8000b318:	26310001 	addiu	s1,s1,1
8000b31c:	24840001 	addiu	a0,a0,1
8000b320:	1600ffe0 	bnez	s0,8000b2a4 <printnum2+0x48>
8000b324:	00000000 	nop
8000b328:	00b1102a 	slt	v0,a1,s1
8000b32c:	10400002 	beqz	v0,8000b338 <printnum2+0xdc>
8000b330:	00000000 	nop
8000b334:	02202825 	move	a1,s1
8000b338:	10a0002a 	beqz	a1,8000b3e4 <printnum2+0x188>
8000b33c:	00000000 	nop
8000b340:	27a20010 	addiu	v0,sp,16
8000b344:	24b0ffff 	addiu	s0,a1,-1
8000b348:	00459021 	addu	s2,v0,a1
8000b34c:	10000008 	b	8000b370 <printnum2+0x114>
8000b350:	00000000 	nop
8000b354:	24040030 	li	a0,48
8000b358:	2610ffff 	addiu	s0,s0,-1
8000b35c:	0c002e6c 	jal	8000b9b0 <putchar>
8000b360:	00000000 	nop
8000b364:	2652ffff 	addiu	s2,s2,-1
8000b368:	1260001e 	beqz	s3,8000b3e4 <printnum2+0x188>
8000b36c:	00000000 	nop
8000b370:	26020001 	addiu	v0,s0,1
8000b374:	02009825 	move	s3,s0
8000b378:	0222102a 	slt	v0,s1,v0
8000b37c:	1440fff5 	bnez	v0,8000b354 <printnum2+0xf8>
8000b380:	00000000 	nop
8000b384:	8242ffff 	lb	v0,-1(s2)
8000b388:	00000000 	nop
8000b38c:	2843000a 	slti	v1,v0,10
8000b390:	24440057 	addiu	a0,v0,87
8000b394:	1060fff0 	beqz	v1,8000b358 <printnum2+0xfc>
8000b398:	00000000 	nop
8000b39c:	24440030 	addiu	a0,v0,48
8000b3a0:	1000ffed 	b	8000b358 <printnum2+0xfc>
8000b3a4:	00000000 	nop
8000b3a8:	32020001 	andi	v0,s0,0x1
8000b3ac:	00108042 	srl	s0,s0,0x1
8000b3b0:	a0820000 	sb	v0,0(a0)
8000b3b4:	1000ffd8 	b	8000b318 <printnum2+0xbc>
8000b3b8:	00000000 	nop
8000b3bc:	32020007 	andi	v0,s0,0x7
8000b3c0:	001080c2 	srl	s0,s0,0x3
8000b3c4:	a0820000 	sb	v0,0(a0)
8000b3c8:	1000ffd3 	b	8000b318 <printnum2+0xbc>
8000b3cc:	00000000 	nop
8000b3d0:	3202000f 	andi	v0,s0,0xf
8000b3d4:	00108102 	srl	s0,s0,0x4
8000b3d8:	a0820000 	sb	v0,0(a0)
8000b3dc:	1000ffce 	b	8000b318 <printnum2+0xbc>
8000b3e0:	00000000 	nop
8000b3e4:	8fbf006c 	lw	ra,108(sp)
8000b3e8:	8fb30068 	lw	s3,104(sp)
8000b3ec:	8fb20064 	lw	s2,100(sp)
8000b3f0:	8fb10060 	lw	s1,96(sp)
8000b3f4:	8fb0005c 	lw	s0,92(sp)
8000b3f8:	27bd0070 	addiu	sp,sp,112
8000b3fc:	03e00008 	jr	ra
8000b400:	00000000 	nop
8000b404:	2404002d 	li	a0,45
8000b408:	afa60054 	sw	a2,84(sp)
8000b40c:	afa50050 	sw	a1,80(sp)
8000b410:	00108023 	negu	s0,s0
8000b414:	0c002e6c 	jal	8000b9b0 <putchar>
8000b418:	00000000 	nop
8000b41c:	8fa50050 	lw	a1,80(sp)
8000b420:	8fa60054 	lw	a2,84(sp)
8000b424:	1000ff98 	b	8000b288 <printnum2+0x2c>
8000b428:	00000000 	nop
8000b42c:	00008825 	move	s1,zero
8000b430:	1000ffbd 	b	8000b328 <printnum2+0xcc>
8000b434:	00000000 	nop

8000b438 <printf>:
printf():
8000b438:	27bdffc8 	addiu	sp,sp,-56
8000b43c:	afbf0034 	sw	ra,52(sp)
8000b440:	27a2003c 	addiu	v0,sp,60
8000b444:	afb50030 	sw	s5,48(sp)
8000b448:	afb4002c 	sw	s4,44(sp)
8000b44c:	afb30028 	sw	s3,40(sp)
8000b450:	afb20024 	sw	s2,36(sp)
8000b454:	afb10020 	sw	s1,32(sp)
8000b458:	afb0001c 	sw	s0,28(sp)
8000b45c:	afa5003c 	sw	a1,60(sp)
8000b460:	afa60040 	sw	a2,64(sp)
8000b464:	afa70044 	sw	a3,68(sp)
8000b468:	afa20010 	sw	v0,16(sp)
8000b46c:	80910000 	lb	s1,0(a0)
8000b470:	00000000 	nop
8000b474:	12200015 	beqz	s1,8000b4cc <printf+0x94>
8000b478:	00000000 	nop
8000b47c:	3c158001 	lui	s5,0x8001
8000b480:	00008025 	move	s0,zero
8000b484:	24130025 	li	s3,37
8000b488:	26b5c080 	addiu	s5,s5,-16256
8000b48c:	0040a025 	move	s4,v0
8000b490:	00809025 	move	s2,a0
8000b494:	12330018 	beq	s1,s3,8000b4f8 <printf+0xc0>
8000b498:	00000000 	nop
8000b49c:	2402000a 	li	v0,10
8000b4a0:	12220046 	beq	s1,v0,8000b5bc <printf+0x184>
8000b4a4:	00000000 	nop
8000b4a8:	02202025 	move	a0,s1
8000b4ac:	0c002e6c 	jal	8000b9b0 <putchar>
8000b4b0:	00000000 	nop
8000b4b4:	26100001 	addiu	s0,s0,1
8000b4b8:	02501021 	addu	v0,s2,s0
8000b4bc:	80510000 	lb	s1,0(v0)
8000b4c0:	00000000 	nop
8000b4c4:	1620fff3 	bnez	s1,8000b494 <printf+0x5c>
8000b4c8:	00000000 	nop
8000b4cc:	8fbf0034 	lw	ra,52(sp)
8000b4d0:	00001025 	move	v0,zero
8000b4d4:	8fb50030 	lw	s5,48(sp)
8000b4d8:	8fb4002c 	lw	s4,44(sp)
8000b4dc:	8fb30028 	lw	s3,40(sp)
8000b4e0:	8fb20024 	lw	s2,36(sp)
8000b4e4:	8fb10020 	lw	s1,32(sp)
8000b4e8:	8fb0001c 	lw	s0,28(sp)
8000b4ec:	27bd0038 	addiu	sp,sp,56
8000b4f0:	03e00008 	jr	ra
8000b4f4:	00000000 	nop
8000b4f8:	02501021 	addu	v0,s2,s0
8000b4fc:	24050001 	li	a1,1
8000b500:	80430001 	lb	v1,1(v0)
8000b504:	00000000 	nop
8000b508:	2462ffdb 	addiu	v0,v1,-37
8000b50c:	304200ff 	andi	v0,v0,0xff
8000b510:	2c440054 	sltiu	a0,v0,84
8000b514:	10800024 	beqz	a0,8000b5a8 <printf+0x170>
8000b518:	00000000 	nop
8000b51c:	00021080 	sll	v0,v0,0x2
8000b520:	02a21021 	addu	v0,s5,v0
8000b524:	8c420000 	lw	v0,0(v0)
8000b528:	00000000 	nop
8000b52c:	00400008 	jr	v0
8000b530:	00000000 	nop
8000b534:	26100001 	addiu	s0,s0,1
8000b538:	02501021 	addu	v0,s2,s0
8000b53c:	80430001 	lb	v1,1(v0)
8000b540:	00000000 	nop
8000b544:	2462ffcf 	addiu	v0,v1,-49
8000b548:	304200ff 	andi	v0,v0,0xff
8000b54c:	2c420009 	sltiu	v0,v0,9
8000b550:	10400069 	beqz	v0,8000b6f8 <printf+0x2c0>
8000b554:	00000000 	nop
8000b558:	02503021 	addu	a2,s2,s0
8000b55c:	00002825 	move	a1,zero
8000b560:	2467ffd0 	addiu	a3,v1,-48
8000b564:	80c30002 	lb	v1,2(a2)
8000b568:	00052040 	sll	a0,a1,0x1
8000b56c:	000528c0 	sll	a1,a1,0x3
8000b570:	2462ffcf 	addiu	v0,v1,-49
8000b574:	00852821 	addu	a1,a0,a1
8000b578:	304200ff 	andi	v0,v0,0xff
8000b57c:	2c420009 	sltiu	v0,v0,9
8000b580:	00e52821 	addu	a1,a3,a1
8000b584:	26100001 	addiu	s0,s0,1
8000b588:	24c60001 	addiu	a2,a2,1
8000b58c:	1440fff4 	bnez	v0,8000b560 <printf+0x128>
8000b590:	00000000 	nop
8000b594:	2462ffdb 	addiu	v0,v1,-37
8000b598:	304200ff 	andi	v0,v0,0xff
8000b59c:	2c440054 	sltiu	a0,v0,84
8000b5a0:	1480ffde 	bnez	a0,8000b51c <printf+0xe4>
8000b5a4:	00000000 	nop
8000b5a8:	24040025 	li	a0,37
8000b5ac:	0c002e6c 	jal	8000b9b0 <putchar>
8000b5b0:	00000000 	nop
8000b5b4:	1000ffbf 	b	8000b4b4 <printf+0x7c>
8000b5b8:	00000000 	nop
8000b5bc:	2404000d 	li	a0,13
8000b5c0:	0c002e6c 	jal	8000b9b0 <putchar>
8000b5c4:	00000000 	nop
8000b5c8:	1000ffb7 	b	8000b4a8 <printf+0x70>
8000b5cc:	00000000 	nop
8000b5d0:	8e840000 	lw	a0,0(s4)
8000b5d4:	00003825 	move	a3,zero
8000b5d8:	2406000a 	li	a2,10
8000b5dc:	26940004 	addiu	s4,s4,4
8000b5e0:	0c002c97 	jal	8000b25c <printnum2>
8000b5e4:	00000000 	nop
8000b5e8:	26100001 	addiu	s0,s0,1
8000b5ec:	1000ffb1 	b	8000b4b4 <printf+0x7c>
8000b5f0:	00000000 	nop
8000b5f4:	8e840000 	lw	a0,0(s4)
8000b5f8:	26100001 	addiu	s0,s0,1
8000b5fc:	26940004 	addiu	s4,s4,4
8000b600:	0c002e34 	jal	8000b8d0 <putstring>
8000b604:	00000000 	nop
8000b608:	1000ffaa 	b	8000b4b4 <printf+0x7c>
8000b60c:	00000000 	nop
8000b610:	8e840000 	lw	a0,0(s4)
8000b614:	00003825 	move	a3,zero
8000b618:	24060010 	li	a2,16
8000b61c:	26940004 	addiu	s4,s4,4
8000b620:	0c002c97 	jal	8000b25c <printnum2>
8000b624:	00000000 	nop
8000b628:	26100001 	addiu	s0,s0,1
8000b62c:	1000ffa1 	b	8000b4b4 <printf+0x7c>
8000b630:	00000000 	nop
8000b634:	8e840000 	lw	a0,0(s4)
8000b638:	00003825 	move	a3,zero
8000b63c:	24060008 	li	a2,8
8000b640:	26940004 	addiu	s4,s4,4
8000b644:	0c002c97 	jal	8000b25c <printnum2>
8000b648:	00000000 	nop
8000b64c:	26100001 	addiu	s0,s0,1
8000b650:	1000ff98 	b	8000b4b4 <printf+0x7c>
8000b654:	00000000 	nop
8000b658:	8e840000 	lw	a0,0(s4)
8000b65c:	00003825 	move	a3,zero
8000b660:	2406000a 	li	a2,10
8000b664:	26940004 	addiu	s4,s4,4
8000b668:	0c002c97 	jal	8000b25c <printnum2>
8000b66c:	00000000 	nop
8000b670:	26100002 	addiu	s0,s0,2
8000b674:	1000ff8f 	b	8000b4b4 <printf+0x7c>
8000b678:	00000000 	nop
8000b67c:	8e840000 	lw	a0,0(s4)
8000b680:	24070001 	li	a3,1
8000b684:	2406000a 	li	a2,10
8000b688:	26940004 	addiu	s4,s4,4
8000b68c:	0c002c97 	jal	8000b25c <printnum2>
8000b690:	00000000 	nop
8000b694:	26100001 	addiu	s0,s0,1
8000b698:	1000ff86 	b	8000b4b4 <printf+0x7c>
8000b69c:	00000000 	nop
8000b6a0:	8e840000 	lw	a0,0(s4)
8000b6a4:	26100001 	addiu	s0,s0,1
8000b6a8:	26940004 	addiu	s4,s4,4
8000b6ac:	0c002e6c 	jal	8000b9b0 <putchar>
8000b6b0:	00000000 	nop
8000b6b4:	1000ff7f 	b	8000b4b4 <printf+0x7c>
8000b6b8:	00000000 	nop
8000b6bc:	8e840000 	lw	a0,0(s4)
8000b6c0:	00003825 	move	a3,zero
8000b6c4:	24060002 	li	a2,2
8000b6c8:	26940004 	addiu	s4,s4,4
8000b6cc:	0c002c97 	jal	8000b25c <printnum2>
8000b6d0:	00000000 	nop
8000b6d4:	26100001 	addiu	s0,s0,1
8000b6d8:	1000ff76 	b	8000b4b4 <printf+0x7c>
8000b6dc:	00000000 	nop
8000b6e0:	24040025 	li	a0,37
8000b6e4:	26100001 	addiu	s0,s0,1
8000b6e8:	0c002e6c 	jal	8000b9b0 <putchar>
8000b6ec:	00000000 	nop
8000b6f0:	1000ff70 	b	8000b4b4 <printf+0x7c>
8000b6f4:	00000000 	nop
8000b6f8:	00002825 	move	a1,zero
8000b6fc:	1000ff82 	b	8000b508 <printf+0xd0>
8000b700:	00000000 	nop
	...

8000b710 <_get_count>:
_get_count():
8000b710:	3c02bfd0 	lui	v0,0xbfd0
8000b714:	8c420500 	lw	v0,1280(v0)
8000b718:	03e00008 	jr	ra
8000b71c:	00000000 	nop

8000b720 <get_count>:
get_count():
8000b720:	3c02bfd0 	lui	v0,0xbfd0
8000b724:	8c420500 	lw	v0,1280(v0)
8000b728:	03e00008 	jr	ra
8000b72c:	00000000 	nop

8000b730 <clock_gettime>:
clock_gettime():
8000b730:	3c02bfd0 	lui	v0,0xbfd0
8000b734:	27bdffe8 	addiu	sp,sp,-24
8000b738:	00a05825 	move	t3,a1
8000b73c:	8c4c0500 	lw	t4,1280(v0)
8000b740:	3c021062 	lui	v0,0x1062
8000b744:	afbf0014 	sw	ra,20(sp)
8000b748:	3c048001 	lui	a0,0x8001
8000b74c:	24424dd3 	addiu	v0,v0,19923
8000b750:	aca00000 	sw	zero,0(a1)
8000b754:	00003025 	move	a2,zero
8000b758:	01820019 	multu	t4,v0
8000b75c:	000c6040 	sll	t4,t4,0x1
8000b760:	2484c1d0 	addiu	a0,a0,-15920
8000b764:	00003810 	mfhi	a3
	...
8000b770:	01820019 	multu	t4,v0
8000b774:	00002810 	mfhi	a1
8000b778:	00073982 	srl	a3,a3,0x6
8000b77c:	00073840 	sll	a3,a3,0x1
8000b780:	00e20019 	multu	a3,v0
8000b784:	00052982 	srl	a1,a1,0x6
8000b788:	000541c0 	sll	t0,a1,0x7
8000b78c:	00001810 	mfhi	v1
8000b790:	00055080 	sll	t2,a1,0x2
8000b794:	010a5023 	subu	t2,t0,t2
8000b798:	01452821 	addu	a1,t2,a1
8000b79c:	00031982 	srl	v1,v1,0x6
8000b7a0:	000528c0 	sll	a1,a1,0x3
8000b7a4:	00620019 	multu	v1,v0
8000b7a8:	000341c0 	sll	t0,v1,0x7
8000b7ac:	00034880 	sll	t1,v1,0x2
8000b7b0:	01852823 	subu	a1,t4,a1
8000b7b4:	00001010 	mfhi	v0
8000b7b8:	01094823 	subu	t1,t0,t1
8000b7bc:	ad650004 	sw	a1,4(t3)
8000b7c0:	01234821 	addu	t1,t1,v1
8000b7c4:	00021182 	srl	v0,v0,0x6
8000b7c8:	00025080 	sll	t2,v0,0x2
8000b7cc:	000241c0 	sll	t0,v0,0x7
8000b7d0:	010a4023 	subu	t0,t0,t2
8000b7d4:	01021021 	addu	v0,t0,v0
8000b7d8:	000940c0 	sll	t0,t1,0x3
8000b7dc:	000210c0 	sll	v0,v0,0x3
8000b7e0:	00e83823 	subu	a3,a3,t0
8000b7e4:	00621823 	subu	v1,v1,v0
8000b7e8:	ad670008 	sw	a3,8(t3)
8000b7ec:	ad63000c 	sw	v1,12(t3)
8000b7f0:	0c002d0e 	jal	8000b438 <printf>
8000b7f4:	00000000 	nop
8000b7f8:	00001025 	move	v0,zero
8000b7fc:	8fbf0014 	lw	ra,20(sp)
8000b800:	27bd0018 	addiu	sp,sp,24
8000b804:	03e00008 	jr	ra
8000b808:	00000000 	nop

8000b80c <get_clock>:
get_clock():
8000b80c:	3c02bfd0 	lui	v0,0xbfd0
8000b810:	8c420500 	lw	v0,1280(v0)
8000b814:	00000000 	nop
8000b818:	00021040 	sll	v0,v0,0x1
8000b81c:	03e00008 	jr	ra
8000b820:	00000000 	nop

8000b824 <get_us>:
get_us():
8000b824:	3c02bfd0 	lui	v0,0xbfd0
8000b828:	8c420600 	lw	v0,1536(v0)
8000b82c:	03e00008 	jr	ra
8000b830:	00000000 	nop

8000b834 <get_inst>:
get_inst():
8000b834:	3c02bfd0 	lui	v0,0xbfd0
8000b838:	8c420700 	lw	v0,1792(v0)
8000b83c:	03e00008 	jr	ra
8000b840:	00000000 	nop

8000b844 <get_ns>:
get_ns():
8000b844:	3c02bfd0 	lui	v0,0xbfd0
8000b848:	8c440600 	lw	a0,1536(v0)
8000b84c:	00000000 	nop
8000b850:	00041080 	sll	v0,a0,0x2
8000b854:	000419c0 	sll	v1,a0,0x7
8000b858:	00621023 	subu	v0,v1,v0
8000b85c:	00441021 	addu	v0,v0,a0
8000b860:	000210c0 	sll	v0,v0,0x3
8000b864:	03e00008 	jr	ra
8000b868:	00000000 	nop
8000b86c:	00000000 	nop

8000b870 <get_epc>:
get_epc():
8000b870:	40027000 	mfc0	v0,c0_epc
8000b874:	03e00008 	jr	ra
8000b878:	00000000 	nop

8000b87c <get_cause>:
get_cause():
8000b87c:	40026800 	mfc0	v0,c0_cause
8000b880:	03e00008 	jr	ra
8000b884:	00000000 	nop

8000b888 <exception>:
exception():
8000b888:	3c048001 	lui	a0,0x8001
8000b88c:	27bdffe8 	addiu	sp,sp,-24
8000b890:	2484c1e4 	addiu	a0,a0,-15900
8000b894:	afbf0014 	sw	ra,20(sp)
8000b898:	0c002d0e 	jal	8000b438 <printf>
8000b89c:	00000000 	nop
8000b8a0:	3c048001 	lui	a0,0x8001
8000b8a4:	40057000 	mfc0	a1,c0_epc
8000b8a8:	2484c200 	addiu	a0,a0,-15872
8000b8ac:	0c002d0e 	jal	8000b438 <printf>
8000b8b0:	00000000 	nop
8000b8b4:	3c048001 	lui	a0,0x8001
8000b8b8:	8fbf0014 	lw	ra,20(sp)
8000b8bc:	27bd0018 	addiu	sp,sp,24
8000b8c0:	2484c210 	addiu	a0,a0,-15856
8000b8c4:	40056800 	mfc0	a1,c0_cause
8000b8c8:	08002d0e 	j	8000b438 <printf>
8000b8cc:	00000000 	nop

8000b8d0 <putstring>:
putstring():
8000b8d0:	27bdffe0 	addiu	sp,sp,-32
8000b8d4:	afbf001c 	sw	ra,28(sp)
8000b8d8:	afb20018 	sw	s2,24(sp)
8000b8dc:	afb10014 	sw	s1,20(sp)
8000b8e0:	afb00010 	sw	s0,16(sp)
8000b8e4:	80900000 	lb	s0,0(a0)
8000b8e8:	00000000 	nop
8000b8ec:	12000019 	beqz	s0,8000b954 <putstring+0x84>
8000b8f0:	00000000 	nop
8000b8f4:	00808825 	move	s1,a0
8000b8f8:	2412000a 	li	s2,10
8000b8fc:	10000008 	b	8000b920 <putstring+0x50>
8000b900:	00000000 	nop
8000b904:	02002025 	move	a0,s0
8000b908:	0c002e6c 	jal	8000b9b0 <putchar>
8000b90c:	00000000 	nop
8000b910:	82300000 	lb	s0,0(s1)
8000b914:	00000000 	nop
8000b918:	1200000e 	beqz	s0,8000b954 <putstring+0x84>
8000b91c:	00000000 	nop
8000b920:	26310001 	addiu	s1,s1,1
8000b924:	1612fff7 	bne	s0,s2,8000b904 <putstring+0x34>
8000b928:	00000000 	nop
8000b92c:	2404000d 	li	a0,13
8000b930:	0c002e6c 	jal	8000b9b0 <putchar>
8000b934:	00000000 	nop
8000b938:	02002025 	move	a0,s0
8000b93c:	0c002e6c 	jal	8000b9b0 <putchar>
8000b940:	00000000 	nop
8000b944:	82300000 	lb	s0,0(s1)
8000b948:	00000000 	nop
8000b94c:	1600fff4 	bnez	s0,8000b920 <putstring+0x50>
8000b950:	00000000 	nop
8000b954:	8fbf001c 	lw	ra,28(sp)
8000b958:	00001025 	move	v0,zero
8000b95c:	8fb20018 	lw	s2,24(sp)
8000b960:	8fb10014 	lw	s1,20(sp)
8000b964:	8fb00010 	lw	s0,16(sp)
8000b968:	27bd0020 	addiu	sp,sp,32
8000b96c:	03e00008 	jr	ra
8000b970:	00000000 	nop

8000b974 <puts>:
puts():
8000b974:	27bdffe8 	addiu	sp,sp,-24
8000b978:	afbf0014 	sw	ra,20(sp)
8000b97c:	0c002e34 	jal	8000b8d0 <putstring>
8000b980:	00000000 	nop
8000b984:	2404000d 	li	a0,13
8000b988:	0c002e6c 	jal	8000b9b0 <putchar>
8000b98c:	00000000 	nop
8000b990:	2404000a 	li	a0,10
8000b994:	0c002e6c 	jal	8000b9b0 <putchar>
8000b998:	00000000 	nop
8000b99c:	00001025 	move	v0,zero
8000b9a0:	8fbf0014 	lw	ra,20(sp)
8000b9a4:	27bd0018 	addiu	sp,sp,24
8000b9a8:	03e00008 	jr	ra
8000b9ac:	00000000 	nop

8000b9b0 <putchar>:
putchar():
8000b9b0:	3c03bfd0 	lui	v1,0xbfd0
8000b9b4:	8c6203fc 	lw	v0,1020(v1)
8000b9b8:	00000000 	nop
8000b9bc:	30420001 	andi	v0,v0,0x1
8000b9c0:	1040fffb 	beqz	v0,8000b9b0 <putchar>
8000b9c4:	00000000 	nop
8000b9c8:	10800002 	beqz	a0,8000b9d4 <putchar+0x24>
8000b9cc:	00000000 	nop
8000b9d0:	ac6403f8 	sw	a0,1016(v1)
8000b9d4:	00001025 	move	v0,zero
8000b9d8:	03e00008 	jr	ra
8000b9dc:	00000000 	nop

8000b9e0 <tgt_putchar>:
tgt_putchar():
8000b9e0:	3c03bfd0 	lui	v1,0xbfd0
8000b9e4:	8c6203fc 	lw	v0,1020(v1)
8000b9e8:	00000000 	nop
8000b9ec:	30420001 	andi	v0,v0,0x1
8000b9f0:	1040fffb 	beqz	v0,8000b9e0 <tgt_putchar>
8000b9f4:	00000000 	nop
8000b9f8:	10800002 	beqz	a0,8000ba04 <tgt_putchar+0x24>
8000b9fc:	00000000 	nop
8000ba00:	ac6403f8 	sw	a0,1016(v1)
8000ba04:	03e00008 	jr	ra
8000ba08:	00000000 	nop
8000ba0c:	00000000 	nop
8000ba10:	656d6954 	0x656d6954
8000ba14:	7525203a 	jalx	849480e8 <_stack+0x483b108>
8000ba18:	63796320 	0x63796320
8000ba1c:	2c73656c 	sltiu	s3,v1,25964
8000ba20:	20752520 	addi	s5,v1,9504
8000ba24:	202c7375 	addi	t4,at,29557
8000ba28:	69207525 	0x69207525
8000ba2c:	0a74736e 	j	89d1cdb8 <_stack+0x9c0fdd8>
8000ba30:	00000000 	nop
8000ba34:	20677261 	addi	a3,v1,29281
8000ba38:	6c25203a 	0x6c25203a
8000ba3c:	25202c64 	addiu	zero,t1,11364
8000ba40:	202c646c 	addi	t4,at,25708
8000ba44:	2c646c25 	sltiu	a0,v1,27685
8000ba48:	646c2520 	0x646c2520
8000ba4c:	6c25202c 	0x6c25202c
8000ba50:	25202c64 	addiu	zero,t1,11364
8000ba54:	202c646c 	addi	t4,at,25708
8000ba58:	20646c25 	addi	a0,v1,27685
8000ba5c:	0000000a 	0xa
8000ba60:	74736574 	jalx	81cd95d0 <_stack+0x1bcc5f0>
8000ba64:	61747320 	0x61747320
8000ba68:	000a7472 	0xa7472
8000ba6c:	706d6f63 	0x706d6f63
8000ba70:	74617475 	jalx	8185d1d4 <_stack+0x17501f4>
8000ba74:	206e6f69 	addi	t6,v1,28521
8000ba78:	656e6f64 	0x656e6f64
8000ba7c:	00000a20 	0xa20
8000ba80:	70206b36 	0x70206b36
8000ba84:	6f667265 	0x6f667265
8000ba88:	6e616d72 	0x6e616d72
8000ba8c:	72206563 	0x72206563
8000ba90:	70206e75 	0x70206e75
8000ba94:	6d617261 	0x6d617261
8000ba98:	72657465 	0x72657465
8000ba9c:	6f662073 	0x6f662073
8000baa0:	6f632072 	0x6f632072
8000baa4:	616d6572 	0x616d6572
8000baa8:	0a2e6b72 	j	88b9adc8 <_stack+0x8a8dde8>
8000baac:	00000000 	nop
8000bab0:	76206b36 	jalx	8881acd8 <_stack+0x870dcf8>
8000bab4:	64696c61 	0x64696c61
8000bab8:	6f697461 	0x6f697461
8000babc:	7572206e 	jalx	85c881b8 <_stack+0x5b7b1d8>
8000bac0:	6170206e 	0x6170206e
8000bac4:	656d6172 	0x656d6172
8000bac8:	73726574 	0x73726574
8000bacc:	726f6620 	0x726f6620
8000bad0:	726f6320 	0x726f6320
8000bad4:	72616d65 	0x72616d65
8000bad8:	000a2e6b 	0xa2e6b
8000badc:	666f7250 	0x666f7250
8000bae0:	20656c69 	addi	a1,v1,27753
8000bae4:	656e6567 	0x656e6567
8000bae8:	69746172 	0x69746172
8000baec:	72206e6f 	0x72206e6f
8000baf0:	70206e75 	0x70206e75
8000baf4:	6d617261 	0x6d617261
8000baf8:	72657465 	0x72657465
8000bafc:	6f662073 	0x6f662073
8000bb00:	6f632072 	0x6f632072
8000bb04:	616d6572 	0x616d6572
8000bb08:	0a2e6b72 	j	88b9adc8 <_stack+0x8a8dde8>
8000bb0c:	00000000 	nop
8000bb10:	70204b32 	0x70204b32
8000bb14:	6f667265 	0x6f667265
8000bb18:	6e616d72 	0x6e616d72
8000bb1c:	72206563 	0x72206563
8000bb20:	70206e75 	0x70206e75
8000bb24:	6d617261 	0x6d617261
8000bb28:	72657465 	0x72657465
8000bb2c:	6f662073 	0x6f662073
8000bb30:	6f632072 	0x6f632072
8000bb34:	616d6572 	0x616d6572
8000bb38:	0a2e6b72 	j	88b9adc8 <_stack+0x8a8dde8>
8000bb3c:	00000000 	nop
8000bb40:	76204b32 	jalx	88812cc8 <_stack+0x8705ce8>
8000bb44:	64696c61 	0x64696c61
8000bb48:	6f697461 	0x6f697461
8000bb4c:	7572206e 	jalx	85c881b8 <_stack+0x5b7b1d8>
8000bb50:	6170206e 	0x6170206e
8000bb54:	656d6172 	0x656d6172
8000bb58:	73726574 	0x73726574
8000bb5c:	726f6620 	0x726f6620
8000bb60:	726f6320 	0x726f6320
8000bb64:	72616d65 	0x72616d65
8000bb68:	000a2e6b 	0xa2e6b
8000bb6c:	5d75255b 	0x5d75255b
8000bb70:	4f525245 	c3	0x1525245
8000bb74:	6c202152 	0x6c202152
8000bb78:	20747369 	addi	s4,v1,29545
8000bb7c:	20637263 	addi	v1,v1,29283
8000bb80:	30257830 	andi	a1,at,0x7830
8000bb84:	2d207834 	sltiu	zero,t1,30772
8000bb88:	6f687320 	0x6f687320
8000bb8c:	20646c75 	addi	a0,v1,27765
8000bb90:	30206562 	andi	zero,at,0x6562
8000bb94:	34302578 	ori	s0,at,0x2578
8000bb98:	00000a78 	0xa78
8000bb9c:	5d75255b 	0x5d75255b
8000bba0:	4f525245 	c3	0x1525245
8000bba4:	6d202152 	0x6d202152
8000bba8:	69727461 	0x69727461
8000bbac:	72632078 	0x72632078
8000bbb0:	78302063 	0x78302063
8000bbb4:	78343025 	0x78343025
8000bbb8:	73202d20 	0x73202d20
8000bbbc:	6c756f68 	0x6c756f68
8000bbc0:	65622064 	0x65622064
8000bbc4:	25783020 	addiu	t8,t3,12320
8000bbc8:	0a783430 	j	89e0d0c0 <_stack+0x9d000e0>
8000bbcc:	00000000 	nop
8000bbd0:	5d75255b 	0x5d75255b
8000bbd4:	4f525245 	c3	0x1525245
8000bbd8:	73202152 	0x73202152
8000bbdc:	65746174 	0x65746174
8000bbe0:	63726320 	0x63726320
8000bbe4:	25783020 	addiu	t8,t3,12320
8000bbe8:	20783430 	addi	t8,v1,13360
8000bbec:	6873202d 	0x6873202d
8000bbf0:	646c756f 	0x646c756f
8000bbf4:	20656220 	addi	a1,v1,25120
8000bbf8:	30257830 	andi	a1,at,0x7830
8000bbfc:	000a7834 	0xa7834
8000bc00:	65726f43 	0x65726f43
8000bc04:	6b72614d 	0x6b72614d
8000bc08:	7a695320 	0x7a695320
8000bc0c:	20202065 	addi	zero,at,8293
8000bc10:	25203a20 	addiu	zero,t1,14880
8000bc14:	000a756c 	0xa756c
8000bc18:	61746f54 	0x61746f54
8000bc1c:	736e206c 	0x736e206c
8000bc20:	25203a20 	addiu	zero,t1,14880
8000bc24:	000a756c 	0xa756c
8000bc28:	72657449 	0x72657449
8000bc2c:	6f697461 	0x6f697461
8000bc30:	532f736e 	0x532f736e
8000bc34:	3a206365 	xori	zero,s1,0x6365
8000bc38:	756c2520 	jalx	85b09480 <_stack+0x59fc4a0>
8000bc3c:	0000000a 	0xa
8000bc40:	45524f43 	0x45524f43
8000bc44:	4b52414d 	c2	0x152414d
8000bc48:	5a484d2f 	0x5a484d2f
8000bc4c:	28203d20 	slti	zero,at,15648
8000bc50:	30303031 	andi	s0,at,0x3031
8000bc54:	2e303030 	sltiu	s0,s1,12336
8000bc58:	50432f30 	0x50432f30
8000bc5c:	4f435f55 	c3	0x1435f55
8000bc60:	5f544e55 	0x5f544e55
8000bc64:	5f524550 	0x5f524550
8000bc68:	2a295355 	slti	t1,s1,21333
8000bc6c:	4345534e 	c0	0x145534e
8000bc70:	5245505f 	0x5245505f
8000bc74:	4553555f 	0x4553555f
8000bc78:	65722a43 	0x65722a43
8000bc7c:	746c7573 	jalx	81b1d5cc <_stack+0x1a105ec>
8000bc80:	5d305b73 	0x5d305b73
8000bc84:	6574692e 	0x6574692e
8000bc88:	69746172 	0x69746172
8000bc8c:	2f736e6f 	sltiu	s3,k1,28271
8000bc90:	61746f74 	0x61746f74
8000bc94:	736e5f6c 	0x736e5f6c
8000bc98:	0000000a 	0xa
8000bc9c:	65207449 	0x65207449
8000bca0:	6c617571 	0x6c617571
8000bca4:	6f742073 	0x6f742073
8000bca8:	30303120 	andi	s0,at,0x3120
8000bcac:	30312a30 	andi	s1,at,0x2a30
8000bcb0:	692a3030 	0x692a3030
8000bcb4:	61726574 	0x61726574
8000bcb8:	6e6f6974 	0x6e6f6974
8000bcbc:	746f742f 	jalx	81bdd0bc <_stack+0x1ad00dc>
8000bcc0:	6e5f6c61 	0x6e5f6c61
8000bcc4:	00000a73 	0xa73
8000bcc8:	74206e49 	jalx	8081b924 <_stack+0x70e944>
8000bccc:	20736968 	addi	s3,v1,26984
8000bcd0:	2c6e7572 	sltiu	t6,v1,30066
8000bcd4:	65746920 	0x65746920
8000bcd8:	65746172 	0x65746172
8000bcdc:	756c253d 	jalx	85b094f4 <_stack+0x59fc514>
8000bce0:	6f74202c 	0x6f74202c
8000bce4:	5f6c6174 	0x5f6c6174
8000bce8:	253d736e 	addiu	sp,t1,29550
8000bcec:	0a0a756c 	j	8829d5b0 <_stack+0x81905d0>
8000bcf0:	00000000 	nop
8000bcf4:	61746f54 	0x61746f54
8000bcf8:	6974206c 	0x6974206c
8000bcfc:	20736b63 	addi	s3,v1,27491
8000bd00:	20202020 	addi	zero,at,8224
8000bd04:	25203a20 	addiu	zero,t1,14880
8000bd08:	000a756c 	0xa756c
8000bd0c:	61746f54 	0x61746f54
8000bd10:	6974206c 	0x6974206c
8000bd14:	2820656d 	slti	zero,at,25965
8000bd18:	73636573 	0x73636573
8000bd1c:	25203a29 	addiu	zero,t1,14889
8000bd20:	00000a64 	0xa64
8000bd24:	72657449 	0x72657449
8000bd28:	6f697461 	0x6f697461
8000bd2c:	532f736e 	0x532f736e
8000bd30:	20206365 	addi	zero,at,25445
8000bd34:	25203a20 	addiu	zero,t1,14880
8000bd38:	00000a64 	0xa64
8000bd3c:	72657449 	0x72657449
8000bd40:	6f697461 	0x6f697461
8000bd44:	2020736e 	addi	zero,at,29550
8000bd48:	20202020 	addi	zero,at,8224
8000bd4c:	25203a20 	addiu	zero,t1,14880
8000bd50:	000a756c 	0xa756c
8000bd54:	35434347 	ori	v1,t2,0x4347
8000bd58:	302e342e 	andi	t6,at,0x342e
8000bd5c:	31303220 	andi	s0,t1,0x3220
8000bd60:	30363036 	andi	s6,at,0x3036
8000bd64:	00000039 	0x39
8000bd68:	706d6f43 	0x706d6f43
8000bd6c:	72656c69 	0x72656c69
8000bd70:	72657620 	0x72657620
8000bd74:	6e6f6973 	0x6e6f6973
8000bd78:	25203a20 	addiu	zero,t1,14880
8000bd7c:	00000a73 	0xa73
8000bd80:	706d6f43 	0x706d6f43
8000bd84:	72656c69 	0x72656c69
8000bd88:	616c6620 	0x616c6620
8000bd8c:	20207367 	addi	zero,at,29543
8000bd90:	25203a20 	addiu	zero,t1,14880
8000bd94:	00000a73 	0xa73
8000bd98:	61656c50 	0x61656c50
8000bd9c:	70206573 	0x70206573
8000bda0:	64207475 	0x64207475
8000bda4:	20617461 	addi	at,v1,29793
8000bda8:	6f6d656d 	0x6f6d656d
8000bdac:	6c207972 	0x6c207972
8000bdb0:	7461636f 	jalx	81858dbc <_stack+0x174bddc>
8000bdb4:	206e6f69 	addi	t6,v1,28521
8000bdb8:	65726568 	0x65726568
8000bdbc:	0909090a 	j	84242428 <_stack+0x4135448>
8000bdc0:	672e6528 	0x672e6528
8000bdc4:	6f63202e 	0x6f63202e
8000bdc8:	69206564 	0x69206564
8000bdcc:	6c66206e 	0x6c66206e
8000bdd0:	2c687361 	sltiu	t0,v1,29537
8000bdd4:	74616420 	jalx	81859080 <_stack+0x174c0a0>
8000bdd8:	6e6f2061 	0x6e6f2061
8000bddc:	61656820 	0x61656820
8000bde0:	74652070 	jalx	819481c0 <_stack+0x183b1e0>
8000bde4:	00002963 	0x2963
8000bde8:	6f6d654d 	0x6f6d654d
8000bdec:	6c207972 	0x6c207972
8000bdf0:	7461636f 	jalx	81858dbc <_stack+0x174bddc>
8000bdf4:	206e6f69 	addi	t6,v1,28521
8000bdf8:	25203a20 	addiu	zero,t1,14880
8000bdfc:	00000a73 	0xa73
8000be00:	64656573 	0x64656573
8000be04:	20637263 	addi	v1,v1,29283
8000be08:	20202020 	addi	zero,at,8224
8000be0c:	20202020 	addi	zero,at,8224
8000be10:	30203a20 	andi	zero,at,0x3a20
8000be14:	34302578 	ori	s0,at,0x2578
8000be18:	00000a78 	0xa78
8000be1c:	5d64255b 	0x5d64255b
8000be20:	6c637263 	0x6c637263
8000be24:	20747369 	addi	s4,v1,29545
8000be28:	20202020 	addi	zero,at,8224
8000be2c:	203a2020 	addi	k0,at,8224
8000be30:	30257830 	andi	a1,at,0x7830
8000be34:	000a7834 	0xa7834
8000be38:	5d64255b 	0x5d64255b
8000be3c:	6d637263 	0x6d637263
8000be40:	69727461 	0x69727461
8000be44:	20202078 	addi	zero,at,8312
8000be48:	203a2020 	addi	k0,at,8224
8000be4c:	30257830 	andi	a1,at,0x7830
8000be50:	000a7834 	0xa7834
8000be54:	5d64255b 	0x5d64255b
8000be58:	73637263 	0x73637263
8000be5c:	65746174 	0x65746174
8000be60:	20202020 	addi	zero,at,8224
8000be64:	203a2020 	addi	k0,at,8224
8000be68:	30257830 	andi	a1,at,0x7830
8000be6c:	000a7834 	0xa7834
8000be70:	5d64255b 	0x5d64255b
8000be74:	66637263 	0x66637263
8000be78:	6c616e69 	0x6c616e69
8000be7c:	20202020 	addi	zero,at,8224
8000be80:	203a2020 	addi	k0,at,8224
8000be84:	30257830 	andi	a1,at,0x7830
8000be88:	000a7834 	0xa7834
8000be8c:	72726f43 	0x72726f43
8000be90:	20746365 	addi	s4,v1,25445
8000be94:	7265706f 	0x7265706f
8000be98:	6f697461 	0x6f697461
8000be9c:	6176206e 	0x6176206e
8000bea0:	6164696c 	0x6164696c
8000bea4:	2e646574 	sltiu	a0,s3,25972
8000bea8:	65655320 	0x65655320
8000beac:	61657220 	0x61657220
8000beb0:	2e656d64 	sltiu	a1,s3,28004
8000beb4:	20747874 	addi	s4,v1,30836
8000beb8:	20726f66 	addi	s2,v1,28518
8000bebc:	206e7572 	addi	t6,v1,30066
8000bec0:	20646e61 	addi	a0,v1,28257
8000bec4:	6f706572 	0x6f706572
8000bec8:	6e697472 	0x6e697472
8000becc:	75722067 	jalx	85c8819c <_stack+0x5b7b1bc>
8000bed0:	2e73656c 	sltiu	s3,s3,25964
8000bed4:	0000000a 	0xa
8000bed8:	6f727245 	0x6f727245
8000bedc:	64207372 	0x64207372
8000bee0:	63657465 	0x63657465
8000bee4:	0a646574 	j	899195d0 <_stack+0x980c5f0>
8000bee8:	00000000 	nop
8000beec:	6e6e6143 	0x6e6e6143
8000bef0:	7620746f 	jalx	8881d1bc <_stack+0x87101dc>
8000bef4:	64696c61 	0x64696c61
8000bef8:	20657461 	addi	a1,v1,29793
8000befc:	7265706f 	0x7265706f
8000bf00:	6f697461 	0x6f697461
8000bf04:	6f66206e 	0x6f66206e
8000bf08:	68742072 	0x68742072
8000bf0c:	20657365 	addi	a1,v1,29541
8000bf10:	64656573 	0x64656573
8000bf14:	6c617620 	0x6c617620
8000bf18:	2c736575 	sltiu	s3,v1,25973
8000bf1c:	656c7020 	0x656c7020
8000bf20:	20657361 	addi	a1,v1,29537
8000bf24:	706d6f63 	0x706d6f63
8000bf28:	20657261 	addi	a1,v1,29281
8000bf2c:	68746977 	0x68746977
8000bf30:	73657220 	0x73657220
8000bf34:	73746c75 	0x73746c75
8000bf38:	206e6f20 	addi	t6,v1,28448
8000bf3c:	6e6b2061 	0x6e6b2061
8000bf40:	206e776f 	addi	t6,v1,30575
8000bf44:	74616c70 	jalx	8185b1c0 <_stack+0x174e1e0>
8000bf48:	6d726f66 	0x6d726f66
8000bf4c:	00000a2e 	0xa2e
8000bf50:	74617453 	jalx	8185d14c <_stack+0x175016c>
8000bf54:	00006369 	0x6369
8000bf58:	70616548 	0x70616548
8000bf5c:	00000000 	nop
8000bf60:	63617453 	0x63617453
8000bf64:	0000006b 	0x6b
	...
8000bf70:	80008890 	lb	zero,-30576(zero)
8000bf74:	80008890 	lb	zero,-30576(zero)
8000bf78:	80008b10 	lb	zero,-29936(zero)
8000bf7c:	80008b10 	lb	zero,-29936(zero)
8000bf80:	80008b34 	lb	zero,-29900(zero)

8000bf84 <errpat>:
8000bf84:	8000bfd0 8000bfdc 8000bfe8 8000bff4     ................

8000bf94 <scipat>:
8000bf94:	8000c000 8000c00c 8000c018 8000c024     ............$...

8000bfa4 <floatpat>:
8000bfa4:	8000c030 8000c03c 8000c048 8000c054     0...<...H...T...

8000bfb4 <intpat>:
8000bfb4:	8000c060 8000c068 8000c070 8000c078     `...h...p...x...
	...
8000bfd0:	332e3054 46312d65 00000000 542e542d     T0.3e-1F....-T.T
8000bfe0:	71542b2b 00000000 2e335431 7a346534     ++Tq....1T3.4e4z
8000bff0:	00000000 302e3433 5e542d65 00000000     ....34.0e-T^....
8000c000:	30352e35 332b6530 00000000 32312e2d     5.500e+3....-.12
8000c010:	322d6533 00000000 6537382d 3233382b     3e-2....-87e+832
8000c020:	00000000 362e302b 32312d65 00000000     ....+0.6e-12....
8000c030:	352e3533 30303434 00000000 3332312e     35.54400.....123
8000c040:	30303534 00000000 3031312d 3030372e     4500....-110.700
8000c050:	00000000 362e302b 30303434 00000000     ....+0.64400....
8000c060:	32313035 00000000 34333231 00000000     5012....1234....
8000c070:	3437382d 00000000 3232312b 00000000     -874....+122....
8000c080:	8000b6e0 8000b5a8 8000b5a8 8000b5a8     ................
8000c090:	8000b5a8 8000b5a8 8000b5a8 8000b5a8     ................
8000c0a0:	8000b5a8 8000b5a8 8000b5a8 8000b534     ............4...
8000c0b0:	8000b544 8000b544 8000b544 8000b544     D...D...D...D...
8000c0c0:	8000b544 8000b544 8000b544 8000b544     D...D...D...D...
8000c0d0:	8000b544 8000b5a8 8000b5a8 8000b5a8     D...............
8000c0e0:	8000b5a8 8000b5a8 8000b5a8 8000b5a8     ................
8000c0f0:	8000b5a8 8000b5a8 8000b5a8 8000b5a8     ................
8000c100:	8000b5a8 8000b5a8 8000b5a8 8000b5a8     ................
8000c110:	8000b5a8 8000b5a8 8000b5a8 8000b5a8     ................
8000c120:	8000b5a8 8000b5a8 8000b5a8 8000b5a8     ................
8000c130:	8000b5a8 8000b5a8 8000b5a8 8000b5a8     ................
8000c140:	8000b5a8 8000b5a8 8000b5a8 8000b5a8     ................
8000c150:	8000b5a8 8000b5a8 8000b5a8 8000b5a8     ................
8000c160:	8000b5a8 8000b5a8 8000b5a8 8000b5a8     ................
8000c170:	8000b5a8 8000b6bc 8000b6a0 8000b67c     ............|...
8000c180:	8000b5a8 8000b5a8 8000b5a8 8000b5a8     ................
8000c190:	8000b5a8 8000b5a8 8000b5a8 8000b658     ............X...
8000c1a0:	8000b5a8 8000b5a8 8000b634 8000b610     ........4.......
8000c1b0:	8000b5a8 8000b5a8 8000b5f4 8000b5a8     ................
8000c1c0:	8000b5d0 8000b5a8 8000b5a8 8000b610     ................
8000c1d0:	636f6c63 736e206b 2c64253d 3d636573     clock ns=%d,sec=
8000c1e0:	000a6425 72656854 73692065 206e6120     %d..There is an 
8000c1f0:	65637865 6f697470 0a21216e 00000000     exception!!.....
8000c200:	20656854 20637065 25207369 00000a78     The epc is %x...
8000c210:	20656854 73756163 73692065 0a782520     The cause is %x.
8000c220:	00000000 b0000702 00000000 00000000     ................
	...
8000c240:	00010000 03000001 00000000 00000000     ................
	...
