
obj/bitcount/main.elf:     file format elf32-tradlittlemips
obj/bitcount/main.elf


Disassembly of section .text:

80000000 <_ftext>:
_ftext():
80000000:	3c0a0040 	lui	t2,0x40
80000004:	408a6000 	mtc0	t2,c0_sr
80000008:	40806800 	mtc0	zero,c0_cause
8000000c:	3c1d8010 	lui	sp,0x8010
80000010:	27bd1fe0 	addiu	sp,sp,8160
80000014:	3c1c8001 	lui	gp,0x8001
80000018:	279c9ff0 	addiu	gp,gp,-24592
8000001c:	041100dc 	bal	80000390 <shell>
80000020:	00000000 	nop

80000024 <loop>:
loop():
80000024:	3c08bfd0 	lui	t0,0xbfd0
80000028:	8d090500 	lw	t1,1280(t0)
8000002c:	3c0a8000 	lui	t2,0x8000
80000030:	ad490000 	sw	t1,0(t2)
80000034:	08000009 	j	80000024 <loop>
80000038:	00000000 	nop

8000003c <exit>:
exit():
8000003c:	340900ff 	li	t1,0xff
80000040:	3c018000 	lui	at,0x8000
80000044:	a0297ffc 	sb	t1,32764(at)
	...
80000380:	0c0004e2 	jal	80001388 <exception>
80000384:	00000000 	nop
80000388:	0800000f 	j	8000003c <exit>
8000038c:	00000000 	nop

80000390 <shell>:
shell():
80000390:	27bdffd0 	addiu	sp,sp,-48
80000394:	afbf002c 	sw	ra,44(sp)
80000398:	afb60028 	sw	s6,40(sp)
8000039c:	afb50024 	sw	s5,36(sp)
800003a0:	afb40020 	sw	s4,32(sp)
800003a4:	afb3001c 	sw	s3,28(sp)
800003a8:	afb20018 	sw	s2,24(sp)
800003ac:	afb10014 	sw	s1,20(sp)
800003b0:	afb00010 	sw	s0,16(sp)
800003b4:	0c000488 	jal	80001220 <get_count>
800003b8:	00000000 	nop
800003bc:	00408025 	move	s0,v0
800003c0:	0c0004cd 	jal	80001334 <get_inst>
800003c4:	00000000 	nop
800003c8:	0040a025 	move	s4,v0
800003cc:	0c0004c9 	jal	80001324 <get_us>
800003d0:	00000000 	nop
800003d4:	24040001 	li	a0,1
800003d8:	24050064 	li	a1,100
800003dc:	00409025 	move	s2,v0
800003e0:	0c00015c 	jal	80000570 <bitcnts>
800003e4:	00000000 	nop
800003e8:	0040b025 	move	s6,v0
800003ec:	0c000488 	jal	80001220 <get_count>
800003f0:	00000000 	nop
800003f4:	00408825 	move	s1,v0
800003f8:	0c0004cd 	jal	80001334 <get_inst>
800003fc:	00000000 	nop
80000400:	0040a825 	move	s5,v0
80000404:	0c0004c9 	jal	80001324 <get_us>
80000408:	00000000 	nop
8000040c:	3c048000 	lui	a0,0x8000
80000410:	02c02825 	move	a1,s6
80000414:	24841510 	addiu	a0,a0,5392
80000418:	00409825 	move	s3,v0
8000041c:	0c0003ce 	jal	80000f38 <printf>
80000420:	00000000 	nop
80000424:	3c028000 	lui	v0,0x8000
80000428:	02b43823 	subu	a3,s5,s4
8000042c:	8fbf002c 	lw	ra,44(sp)
80000430:	02723023 	subu	a2,s3,s2
80000434:	8fb60028 	lw	s6,40(sp)
80000438:	02302823 	subu	a1,s1,s0
8000043c:	8fb50024 	lw	s5,36(sp)
80000440:	8fb40020 	lw	s4,32(sp)
80000444:	2444151c 	addiu	a0,v0,5404
80000448:	8fb3001c 	lw	s3,28(sp)
8000044c:	8fb20018 	lw	s2,24(sp)
80000450:	8fb10014 	lw	s1,20(sp)
80000454:	8fb00010 	lw	s0,16(sp)
80000458:	27bd0030 	addiu	sp,sp,48
8000045c:	080003ce 	j	80000f38 <printf>
80000460:	00000000 	nop
	...

80000470 <bit_shifter>:
bit_shifter():
80000470:	10800037 	beqz	a0,80000550 <bit_shifter+0xe0>
80000474:	00000000 	nop
80000478:	27bdfff8 	addiu	sp,sp,-8
8000047c:	24050020 	li	a1,32
80000480:	00001025 	move	v0,zero
80000484:	afb10004 	sw	s1,4(sp)
80000488:	afb00000 	sw	s0,0(sp)
8000048c:	00043043 	sra	a2,a0,0x1
80000490:	00043883 	sra	a3,a0,0x2
80000494:	000440c3 	sra	t0,a0,0x3
80000498:	00044903 	sra	t1,a0,0x4
8000049c:	00045143 	sra	t2,a0,0x5
800004a0:	00045983 	sra	t3,a0,0x6
800004a4:	000461c3 	sra	t4,a0,0x7
800004a8:	30830001 	andi	v1,a0,0x1
800004ac:	24a5fff8 	addiu	a1,a1,-8
800004b0:	30cd0001 	andi	t5,a2,0x1
800004b4:	30ee0001 	andi	t6,a3,0x1
800004b8:	310f0001 	andi	t7,t0,0x1
800004bc:	31380001 	andi	t8,t1,0x1
800004c0:	31590001 	andi	t9,t2,0x1
800004c4:	31700001 	andi	s0,t3,0x1
800004c8:	31910001 	andi	s1,t4,0x1
800004cc:	00431021 	addu	v0,v0,v1
800004d0:	00042203 	sra	a0,a0,0x8
800004d4:	10c00018 	beqz	a2,80000538 <bit_shifter+0xc8>
800004d8:	00000000 	nop
800004dc:	004d1021 	addu	v0,v0,t5
800004e0:	10e00015 	beqz	a3,80000538 <bit_shifter+0xc8>
800004e4:	00000000 	nop
800004e8:	004e1021 	addu	v0,v0,t6
800004ec:	11000012 	beqz	t0,80000538 <bit_shifter+0xc8>
800004f0:	00000000 	nop
800004f4:	004f1021 	addu	v0,v0,t7
800004f8:	1120000f 	beqz	t1,80000538 <bit_shifter+0xc8>
800004fc:	00000000 	nop
80000500:	00581021 	addu	v0,v0,t8
80000504:	1140000c 	beqz	t2,80000538 <bit_shifter+0xc8>
80000508:	00000000 	nop
8000050c:	00591021 	addu	v0,v0,t9
80000510:	11600009 	beqz	t3,80000538 <bit_shifter+0xc8>
80000514:	00000000 	nop
80000518:	00501021 	addu	v0,v0,s0
8000051c:	11800006 	beqz	t4,80000538 <bit_shifter+0xc8>
80000520:	00000000 	nop
80000524:	00511021 	addu	v0,v0,s1
80000528:	10800003 	beqz	a0,80000538 <bit_shifter+0xc8>
8000052c:	00000000 	nop
80000530:	14a0ffd6 	bnez	a1,8000048c <bit_shifter+0x1c>
80000534:	00000000 	nop
80000538:	8fb10004 	lw	s1,4(sp)
8000053c:	8fb00000 	lw	s0,0(sp)
80000540:	27bd0008 	addiu	sp,sp,8
80000544:	03e00008 	jr	ra
80000548:	00000000 	nop
8000054c:	00000000 	nop
80000550:	00001025 	move	v0,zero
80000554:	03e00008 	jr	ra
80000558:	00000000 	nop
8000055c:	00000000 	nop

80000560 <myrand>:
myrand():
80000560:	24025670 	li	v0,22128
80000564:	03e00008 	jr	ra
80000568:	00000000 	nop
8000056c:	00000000 	nop

80000570 <bitcnts>:
bitcnts():
80000570:	3c048000 	lui	a0,0x8000
80000574:	27bdffc8 	addiu	sp,sp,-56
80000578:	24841540 	addiu	a0,a0,5440
8000057c:	afb50028 	sw	s5,40(sp)
80000580:	00a0a825 	move	s5,a1
80000584:	afbf0034 	sw	ra,52(sp)
80000588:	afb6002c 	sw	s6,44(sp)
8000058c:	3c168000 	lui	s6,0x8000
80000590:	afb40024 	sw	s4,36(sp)
80000594:	3c148000 	lui	s4,0x8000
80000598:	afb30020 	sw	s3,32(sp)
8000059c:	00159880 	sll	s3,s5,0x2
800005a0:	afb70030 	sw	s7,48(sp)
800005a4:	26941570 	addiu	s4,s4,5488
800005a8:	afb2001c 	sw	s2,28(sp)
800005ac:	26d6158c 	addiu	s6,s6,5516
800005b0:	afb10018 	sw	s1,24(sp)
800005b4:	afb00014 	sw	s0,20(sp)
800005b8:	0c00051d 	jal	80001474 <puts>
800005bc:	00000000 	nop
800005c0:	0c0004d1 	jal	80001344 <get_ns>
800005c4:	00000000 	nop
800005c8:	00151100 	sll	v0,s5,0x4
800005cc:	00531823 	subu	v1,v0,s3
800005d0:	00752821 	addu	a1,v1,s5
800005d4:	24b35670 	addiu	s3,a1,22128
800005d8:	1aa0007d 	blez	s5,800007d0 <bitcnts+0x260>
800005dc:	00000000 	nop
800005e0:	3c06c4ec 	lui	a2,0xc4ec
800005e4:	8e920000 	lw	s2,0(s4)
800005e8:	2677a983 	addiu	s7,s3,-22141
800005ec:	24c74ec5 	addiu	a3,a2,20165
800005f0:	24045670 	li	a0,22128
800005f4:	02e70018 	mult	s7,a3
800005f8:	2410567d 	li	s0,22141
800005fc:	00004012 	mflo	t0
80000600:	31170007 	andi	s7,t0,0x7
80000604:	0240f809 	jalr	s2
80000608:	00000000 	nop
8000060c:	00408825 	move	s1,v0
80000610:	1270005d 	beq	s3,s0,80000788 <bitcnts+0x218>
80000614:	00000000 	nop
80000618:	12e00038 	beqz	s7,800006fc <bitcnts+0x18c>
8000061c:	00000000 	nop
80000620:	24090001 	li	t1,1
80000624:	12e9002e 	beq	s7,t1,800006e0 <bitcnts+0x170>
80000628:	00000000 	nop
8000062c:	240a0002 	li	t2,2
80000630:	12ea0026 	beq	s7,t2,800006cc <bitcnts+0x15c>
80000634:	00000000 	nop
80000638:	240b0003 	li	t3,3
8000063c:	12eb001e 	beq	s7,t3,800006b8 <bitcnts+0x148>
80000640:	00000000 	nop
80000644:	240c0004 	li	t4,4
80000648:	12ec0016 	beq	s7,t4,800006a4 <bitcnts+0x134>
8000064c:	00000000 	nop
80000650:	240d0005 	li	t5,5
80000654:	12ed000e 	beq	s7,t5,80000690 <bitcnts+0x120>
80000658:	00000000 	nop
8000065c:	240e0006 	li	t6,6
80000660:	12ee0006 	beq	s7,t6,8000067c <bitcnts+0x10c>
80000664:	00000000 	nop
80000668:	2404567d 	li	a0,22141
8000066c:	2410568a 	li	s0,22154
80000670:	0240f809 	jalr	s2
80000674:	00000000 	nop
80000678:	02228821 	addu	s1,s1,v0
8000067c:	02002025 	move	a0,s0
80000680:	0240f809 	jalr	s2
80000684:	00000000 	nop
80000688:	2610000d 	addiu	s0,s0,13
8000068c:	02228821 	addu	s1,s1,v0
80000690:	02002025 	move	a0,s0
80000694:	0240f809 	jalr	s2
80000698:	00000000 	nop
8000069c:	2610000d 	addiu	s0,s0,13
800006a0:	02228821 	addu	s1,s1,v0
800006a4:	02002025 	move	a0,s0
800006a8:	0240f809 	jalr	s2
800006ac:	00000000 	nop
800006b0:	2610000d 	addiu	s0,s0,13
800006b4:	02228821 	addu	s1,s1,v0
800006b8:	02002025 	move	a0,s0
800006bc:	0240f809 	jalr	s2
800006c0:	00000000 	nop
800006c4:	2610000d 	addiu	s0,s0,13
800006c8:	02228821 	addu	s1,s1,v0
800006cc:	02002025 	move	a0,s0
800006d0:	0240f809 	jalr	s2
800006d4:	00000000 	nop
800006d8:	2610000d 	addiu	s0,s0,13
800006dc:	02228821 	addu	s1,s1,v0
800006e0:	02002025 	move	a0,s0
800006e4:	2610000d 	addiu	s0,s0,13
800006e8:	0240f809 	jalr	s2
800006ec:	00000000 	nop
800006f0:	02228821 	addu	s1,s1,v0
800006f4:	12700024 	beq	s3,s0,80000788 <bitcnts+0x218>
800006f8:	00000000 	nop
800006fc:	02002025 	move	a0,s0
80000700:	0240f809 	jalr	s2
80000704:	00000000 	nop
80000708:	2604000d 	addiu	a0,s0,13
8000070c:	0222b821 	addu	s7,s1,v0
80000710:	0240f809 	jalr	s2
80000714:	00000000 	nop
80000718:	2604001a 	addiu	a0,s0,26
8000071c:	02e28821 	addu	s1,s7,v0
80000720:	0240f809 	jalr	s2
80000724:	00000000 	nop
80000728:	26040027 	addiu	a0,s0,39
8000072c:	0222b821 	addu	s7,s1,v0
80000730:	0240f809 	jalr	s2
80000734:	00000000 	nop
80000738:	26040034 	addiu	a0,s0,52
8000073c:	02e28821 	addu	s1,s7,v0
80000740:	0240f809 	jalr	s2
80000744:	00000000 	nop
80000748:	26040041 	addiu	a0,s0,65
8000074c:	0222b821 	addu	s7,s1,v0
80000750:	0240f809 	jalr	s2
80000754:	00000000 	nop
80000758:	2604004e 	addiu	a0,s0,78
8000075c:	02e28821 	addu	s1,s7,v0
80000760:	0240f809 	jalr	s2
80000764:	00000000 	nop
80000768:	2604005b 	addiu	a0,s0,91
8000076c:	0222b821 	addu	s7,s1,v0
80000770:	26100068 	addiu	s0,s0,104
80000774:	0240f809 	jalr	s2
80000778:	00000000 	nop
8000077c:	02e28821 	addu	s1,s7,v0
80000780:	1670ffde 	bne	s3,s0,800006fc <bitcnts+0x18c>
80000784:	00000000 	nop
80000788:	26940004 	addiu	s4,s4,4
8000078c:	1696ff92 	bne	s4,s6,800005d8 <bitcnts+0x68>
80000790:	00000000 	nop
80000794:	0c0004d1 	jal	80001344 <get_ns>
80000798:	00000000 	nop
8000079c:	02201025 	move	v0,s1
800007a0:	8fbf0034 	lw	ra,52(sp)
800007a4:	8fb70030 	lw	s7,48(sp)
800007a8:	8fb6002c 	lw	s6,44(sp)
800007ac:	8fb50028 	lw	s5,40(sp)
800007b0:	8fb40024 	lw	s4,36(sp)
800007b4:	8fb30020 	lw	s3,32(sp)
800007b8:	8fb2001c 	lw	s2,28(sp)
800007bc:	8fb10018 	lw	s1,24(sp)
800007c0:	8fb00014 	lw	s0,20(sp)
800007c4:	27bd0038 	addiu	sp,sp,56
800007c8:	03e00008 	jr	ra
800007cc:	00000000 	nop
800007d0:	26940004 	addiu	s4,s4,4
800007d4:	00008825 	move	s1,zero
800007d8:	1696ff7f 	bne	s4,s6,800005d8 <bitcnts+0x68>
800007dc:	00000000 	nop
800007e0:	1000ffec 	b	80000794 <bitcnts+0x224>
800007e4:	00000000 	nop
	...

800007f0 <bitcount>:
bitcount():
800007f0:	3c02aaaa 	lui	v0,0xaaaa
800007f4:	3c075555 	lui	a3,0x5555
800007f8:	3443aaaa 	ori	v1,v0,0xaaaa
800007fc:	00832824 	and	a1,a0,v1
80000800:	24e85555 	addiu	t0,a3,21845
80000804:	00053042 	srl	a2,a1,0x1
80000808:	00882024 	and	a0,a0,t0
8000080c:	3c0acccc 	lui	t2,0xcccc
80000810:	00c44821 	addu	t1,a2,a0
80000814:	3c0e3333 	lui	t6,0x3333
80000818:	354bcccc 	ori	t3,t2,0xcccc
8000081c:	012b6024 	and	t4,t1,t3
80000820:	25cf3333 	addiu	t7,t6,13107
80000824:	000c6882 	srl	t5,t4,0x2
80000828:	012fc024 	and	t8,t1,t7
8000082c:	3c02f0f0 	lui	v0,0xf0f0
80000830:	01b8c821 	addu	t9,t5,t8
80000834:	3c070f0f 	lui	a3,0xf0f
80000838:	3443f0f0 	ori	v1,v0,0xf0f0
8000083c:	03232824 	and	a1,t9,v1
80000840:	24e80f0f 	addiu	t0,a3,3855
80000844:	00053102 	srl	a2,a1,0x4
80000848:	03282024 	and	a0,t9,t0
8000084c:	3c0aff00 	lui	t2,0xff00
80000850:	00c44821 	addu	t1,a2,a0
80000854:	3c0e00ff 	lui	t6,0xff
80000858:	354bff00 	ori	t3,t2,0xff00
8000085c:	012b6024 	and	t4,t1,t3
80000860:	25cf00ff 	addiu	t7,t6,255
80000864:	000c6a02 	srl	t5,t4,0x8
80000868:	012fc024 	and	t8,t1,t7
8000086c:	01b8c821 	addu	t9,t5,t8
80000870:	00191402 	srl	v0,t9,0x10
80000874:	3323ffff 	andi	v1,t9,0xffff
80000878:	00431021 	addu	v0,v0,v1
8000087c:	03e00008 	jr	ra
80000880:	00000000 	nop
	...

80000890 <ntbl_bitcount>:
ntbl_bitcount():
80000890:	3c078000 	lui	a3,0x8000
80000894:	308300f0 	andi	v1,a0,0xf0
80000898:	24eb1590 	addiu	t3,a3,5520
8000089c:	00033102 	srl	a2,v1,0x4
800008a0:	3085000f 	andi	a1,a0,0xf
800008a4:	30820f00 	andi	v0,a0,0xf00
800008a8:	00cb4821 	addu	t1,a2,t3
800008ac:	00ab5021 	addu	t2,a1,t3
800008b0:	00026202 	srl	t4,v0,0x8
800008b4:	3088f000 	andi	t0,a0,0xf000
800008b8:	812d0000 	lb	t5,0(t1)
800008bc:	018b7021 	addu	t6,t4,t3
800008c0:	814f0000 	lb	t7,0(t2)
800008c4:	0008c302 	srl	t8,t0,0xc
800008c8:	0004cc02 	srl	t9,a0,0x10
800008cc:	030b3821 	addu	a3,t8,t3
800008d0:	81c30000 	lb	v1,0(t6)
800008d4:	3325000f 	andi	a1,t9,0xf
800008d8:	00044d02 	srl	t1,a0,0x14
800008dc:	00ab5021 	addu	t2,a1,t3
800008e0:	80e20000 	lb	v0,0(a3)
800008e4:	01af3021 	addu	a2,t5,t7
800008e8:	312c000f 	andi	t4,t1,0xf
800008ec:	00044602 	srl	t0,a0,0x18
800008f0:	814e0000 	lb	t6,0(t2)
800008f4:	00c36821 	addu	t5,a2,v1
800008f8:	018b7821 	addu	t7,t4,t3
800008fc:	3118000f 	andi	t8,t0,0xf
80000900:	01a2c821 	addu	t9,t5,v0
80000904:	030b3821 	addu	a3,t8,t3
80000908:	81e90000 	lb	t1,0(t7)
8000090c:	00042702 	srl	a0,a0,0x1c
80000910:	032e1821 	addu	v1,t9,t6
80000914:	008b5821 	addu	t3,a0,t3
80000918:	80e50000 	lb	a1,0(a3)
8000091c:	00693021 	addu	a2,v1,t1
80000920:	816a0000 	lb	t2,0(t3)
80000924:	00c51021 	addu	v0,a2,a1
80000928:	004a1021 	addu	v0,v0,t2
8000092c:	03e00008 	jr	ra
80000930:	00000000 	nop
	...

80000940 <BW_btbl_bitcount>:
BW_btbl_bitcount():
80000940:	3c038000 	lui	v1,0x8000
80000944:	00041202 	srl	v0,a0,0x8
80000948:	24671590 	addiu	a3,v1,5520
8000094c:	308500ff 	andi	a1,a0,0xff
80000950:	304600ff 	andi	a2,v0,0xff
80000954:	00045602 	srl	t2,a0,0x18
80000958:	00a74021 	addu	t0,a1,a3
8000095c:	00c74821 	addu	t1,a2,a3
80000960:	00042402 	srl	a0,a0,0x10
80000964:	01476021 	addu	t4,t2,a3
80000968:	810b0000 	lb	t3,0(t0)
8000096c:	812d0000 	lb	t5,0(t1)
80000970:	308e00ff 	andi	t6,a0,0xff
80000974:	01c77821 	addu	t7,t6,a3
80000978:	81980000 	lb	t8,0(t4)
8000097c:	016dc821 	addu	t9,t3,t5
80000980:	81e30000 	lb	v1,0(t7)
80000984:	03381021 	addu	v0,t9,t8
80000988:	00431021 	addu	v0,v0,v1
8000098c:	03e00008 	jr	ra
80000990:	00000000 	nop
	...

800009a0 <AR_btbl_bitcount>:
AR_btbl_bitcount():
800009a0:	3c038000 	lui	v1,0x8000
800009a4:	afa40000 	sw	a0,0(sp)
800009a8:	00043202 	srl	a2,a0,0x8
800009ac:	24681590 	addiu	t0,v1,5520
800009b0:	00042c02 	srl	a1,a0,0x10
800009b4:	308200ff 	andi	v0,a0,0xff
800009b8:	30c700ff 	andi	a3,a2,0xff
800009bc:	00484821 	addu	t1,v0,t0
800009c0:	00e85021 	addu	t2,a3,t0
800009c4:	30ab00ff 	andi	t3,a1,0xff
800009c8:	01686021 	addu	t4,t3,t0
800009cc:	812d0000 	lb	t5,0(t1)
800009d0:	00042602 	srl	a0,a0,0x18
800009d4:	814e0000 	lb	t6,0(t2)
800009d8:	00887821 	addu	t7,a0,t0
800009dc:	81980000 	lb	t8,0(t4)
800009e0:	01cdc821 	addu	t9,t6,t5
800009e4:	81e60000 	lb	a2,0(t7)
800009e8:	03191821 	addu	v1,t8,t9
800009ec:	00c31021 	addu	v0,a2,v1
800009f0:	03e00008 	jr	ra
800009f4:	00000000 	nop
	...

80000a00 <ntbl_bitcnt>:
ntbl_bitcnt():
80000a00:	3c058000 	lui	a1,0x8000
80000a04:	3082000f 	andi	v0,a0,0xf
80000a08:	24a51690 	addiu	a1,a1,5776
80000a0c:	00042103 	sra	a0,a0,0x4
80000a10:	00a21821 	addu	v1,a1,v0
80000a14:	80620000 	lb	v0,0(v1)
80000a18:	10800045 	beqz	a0,80000b30 <ntbl_bitcnt+0x130>
80000a1c:	00000000 	nop
80000a20:	27bdfff0 	addiu	sp,sp,-16
80000a24:	00001825 	move	v1,zero
80000a28:	afb2000c 	sw	s2,12(sp)
80000a2c:	afb10008 	sw	s1,8(sp)
80000a30:	afb00004 	sw	s0,4(sp)
80000a34:	3086000f 	andi	a2,a0,0xf
80000a38:	00047103 	sra	t6,a0,0x4
80000a3c:	00047a03 	sra	t7,a0,0x8
80000a40:	0004c303 	sra	t8,a0,0xc
80000a44:	0004cc03 	sra	t9,a0,0x10
80000a48:	00048503 	sra	s0,a0,0x14
80000a4c:	00048e03 	sra	s1,a0,0x18
80000a50:	00049703 	sra	s2,a0,0x1c
80000a54:	00a63021 	addu	a2,a1,a2
80000a58:	31c7000f 	andi	a3,t6,0xf
80000a5c:	31e8000f 	andi	t0,t7,0xf
80000a60:	3309000f 	andi	t1,t8,0xf
80000a64:	332a000f 	andi	t2,t9,0xf
80000a68:	320b000f 	andi	t3,s0,0xf
80000a6c:	322c000f 	andi	t4,s1,0xf
80000a70:	324d000f 	andi	t5,s2,0xf
80000a74:	00621821 	addu	v1,v1,v0
80000a78:	80c20000 	lb	v0,0(a2)
80000a7c:	00a73821 	addu	a3,a1,a3
80000a80:	00a84021 	addu	t0,a1,t0
80000a84:	00a94821 	addu	t1,a1,t1
80000a88:	00aa5021 	addu	t2,a1,t2
80000a8c:	00ab5821 	addu	t3,a1,t3
80000a90:	00ac6021 	addu	t4,a1,t4
80000a94:	000427c3 	sra	a0,a0,0x1f
80000a98:	00ad6821 	addu	t5,a1,t5
80000a9c:	11c0001d 	beqz	t6,80000b14 <ntbl_bitcnt+0x114>
80000aa0:	00000000 	nop
80000aa4:	00621821 	addu	v1,v1,v0
80000aa8:	80e20000 	lb	v0,0(a3)
80000aac:	11e00019 	beqz	t7,80000b14 <ntbl_bitcnt+0x114>
80000ab0:	00000000 	nop
80000ab4:	00621821 	addu	v1,v1,v0
80000ab8:	81020000 	lb	v0,0(t0)
80000abc:	13000015 	beqz	t8,80000b14 <ntbl_bitcnt+0x114>
80000ac0:	00000000 	nop
80000ac4:	00621821 	addu	v1,v1,v0
80000ac8:	81220000 	lb	v0,0(t1)
80000acc:	13200011 	beqz	t9,80000b14 <ntbl_bitcnt+0x114>
80000ad0:	00000000 	nop
80000ad4:	00621821 	addu	v1,v1,v0
80000ad8:	81420000 	lb	v0,0(t2)
80000adc:	1200000d 	beqz	s0,80000b14 <ntbl_bitcnt+0x114>
80000ae0:	00000000 	nop
80000ae4:	00621821 	addu	v1,v1,v0
80000ae8:	81620000 	lb	v0,0(t3)
80000aec:	12200009 	beqz	s1,80000b14 <ntbl_bitcnt+0x114>
80000af0:	00000000 	nop
80000af4:	00621821 	addu	v1,v1,v0
80000af8:	81820000 	lb	v0,0(t4)
80000afc:	12400005 	beqz	s2,80000b14 <ntbl_bitcnt+0x114>
80000b00:	00000000 	nop
80000b04:	00621821 	addu	v1,v1,v0
80000b08:	81a20000 	lb	v0,0(t5)
80000b0c:	1480ffc9 	bnez	a0,80000a34 <ntbl_bitcnt+0x34>
80000b10:	00000000 	nop
80000b14:	8fb2000c 	lw	s2,12(sp)
80000b18:	00431021 	addu	v0,v0,v1
80000b1c:	8fb10008 	lw	s1,8(sp)
80000b20:	8fb00004 	lw	s0,4(sp)
80000b24:	27bd0010 	addiu	sp,sp,16
80000b28:	03e00008 	jr	ra
80000b2c:	00000000 	nop
80000b30:	00002025 	move	a0,zero
80000b34:	00441021 	addu	v0,v0,a0
80000b38:	03e00008 	jr	ra
80000b3c:	00000000 	nop

80000b40 <btbl_bitcnt>:
btbl_bitcnt():
80000b40:	3c038000 	lui	v1,0x8000
80000b44:	308200ff 	andi	v0,a0,0xff
80000b48:	24661690 	addiu	a2,v1,5776
80000b4c:	00043a03 	sra	a3,a0,0x8
80000b50:	00462821 	addu	a1,v0,a2
80000b54:	27bdffd8 	addiu	sp,sp,-40
80000b58:	afb00018 	sw	s0,24(sp)
80000b5c:	afbf0024 	sw	ra,36(sp)
80000b60:	afb20020 	sw	s2,32(sp)
80000b64:	afb1001c 	sw	s1,28(sp)
80000b68:	afa70028 	sw	a3,40(sp)
80000b6c:	80b00000 	lb	s0,0(a1)
80000b70:	14e0000b 	bnez	a3,80000ba0 <btbl_bitcnt+0x60>
80000b74:	00000000 	nop
80000b78:	8fbf0024 	lw	ra,36(sp)
80000b7c:	02001025 	move	v0,s0
80000b80:	8fb20020 	lw	s2,32(sp)
80000b84:	8fb1001c 	lw	s1,28(sp)
80000b88:	8fb00018 	lw	s0,24(sp)
80000b8c:	27bd0028 	addiu	sp,sp,40
80000b90:	03e00008 	jr	ra
80000b94:	00000000 	nop
	...
80000ba0:	30e800ff 	andi	t0,a3,0xff
80000ba4:	01064821 	addu	t1,t0,a2
80000ba8:	00045403 	sra	t2,a0,0x10
80000bac:	81310000 	lb	s1,0(t1)
80000bb0:	afaa0014 	sw	t2,20(sp)
80000bb4:	1540000a 	bnez	t2,80000be0 <btbl_bitcnt+0xa0>
80000bb8:	00000000 	nop
80000bbc:	02118021 	addu	s0,s0,s1
80000bc0:	8fbf0024 	lw	ra,36(sp)
80000bc4:	02001025 	move	v0,s0
80000bc8:	8fb20020 	lw	s2,32(sp)
80000bcc:	8fb1001c 	lw	s1,28(sp)
80000bd0:	8fb00018 	lw	s0,24(sp)
80000bd4:	27bd0028 	addiu	sp,sp,40
80000bd8:	03e00008 	jr	ra
80000bdc:	00000000 	nop
80000be0:	314b00ff 	andi	t3,t2,0xff
80000be4:	afaa0010 	sw	t2,16(sp)
80000be8:	01666021 	addu	t4,t3,a2
80000bec:	00042603 	sra	a0,a0,0x18
80000bf0:	81920000 	lb	s2,0(t4)
80000bf4:	14800006 	bnez	a0,80000c10 <btbl_bitcnt+0xd0>
80000bf8:	00000000 	nop
80000bfc:	02328821 	addu	s1,s1,s2
80000c00:	02118021 	addu	s0,s0,s1
80000c04:	1000ffee 	b	80000bc0 <btbl_bitcnt+0x80>
80000c08:	00000000 	nop
80000c0c:	00000000 	nop
80000c10:	0c0002d0 	jal	80000b40 <btbl_bitcnt>
80000c14:	00000000 	nop
80000c18:	02429021 	addu	s2,s2,v0
80000c1c:	02328821 	addu	s1,s1,s2
80000c20:	1000fff7 	b	80000c00 <btbl_bitcnt+0xc0>
80000c24:	00000000 	nop
	...

80000c30 <bit_count>:
bit_count():
80000c30:	00001025 	move	v0,zero
80000c34:	1080002e 	beqz	a0,80000cf0 <bit_count+0xc0>
80000c38:	00000000 	nop
80000c3c:	2483ffff 	addiu	v1,a0,-1
80000c40:	24420001 	addiu	v0,v0,1
80000c44:	00832024 	and	a0,a0,v1
80000c48:	2485ffff 	addiu	a1,a0,-1
80000c4c:	00403025 	move	a2,v0
80000c50:	1080002b 	beqz	a0,80000d00 <bit_count+0xd0>
80000c54:	00000000 	nop
80000c58:	00853824 	and	a3,a0,a1
80000c5c:	24e8ffff 	addiu	t0,a3,-1
80000c60:	24420001 	addiu	v0,v0,1
80000c64:	10e00022 	beqz	a3,80000cf0 <bit_count+0xc0>
80000c68:	00000000 	nop
80000c6c:	00e84824 	and	t1,a3,t0
80000c70:	252affff 	addiu	t2,t1,-1
80000c74:	24c20002 	addiu	v0,a2,2
80000c78:	1120001d 	beqz	t1,80000cf0 <bit_count+0xc0>
80000c7c:	00000000 	nop
80000c80:	012a5824 	and	t3,t1,t2
80000c84:	256cffff 	addiu	t4,t3,-1
80000c88:	24c20003 	addiu	v0,a2,3
80000c8c:	11600018 	beqz	t3,80000cf0 <bit_count+0xc0>
80000c90:	00000000 	nop
80000c94:	016c6824 	and	t5,t3,t4
80000c98:	25aeffff 	addiu	t6,t5,-1
80000c9c:	24c20004 	addiu	v0,a2,4
80000ca0:	11a00013 	beqz	t5,80000cf0 <bit_count+0xc0>
80000ca4:	00000000 	nop
80000ca8:	01ae7824 	and	t7,t5,t6
80000cac:	25f8ffff 	addiu	t8,t7,-1
80000cb0:	24c20005 	addiu	v0,a2,5
80000cb4:	11e0000e 	beqz	t7,80000cf0 <bit_count+0xc0>
80000cb8:	00000000 	nop
80000cbc:	01f8c824 	and	t9,t7,t8
80000cc0:	2723ffff 	addiu	v1,t9,-1
80000cc4:	24c20006 	addiu	v0,a2,6
80000cc8:	13200009 	beqz	t9,80000cf0 <bit_count+0xc0>
80000ccc:	00000000 	nop
80000cd0:	03232024 	and	a0,t9,v1
80000cd4:	24c20007 	addiu	v0,a2,7
80000cd8:	1480ffd8 	bnez	a0,80000c3c <bit_count+0xc>
80000cdc:	00000000 	nop
80000ce0:	03e00008 	jr	ra
80000ce4:	00000000 	nop
	...
80000cf0:	03e00008 	jr	ra
80000cf4:	00000000 	nop
	...
80000d00:	03e00008 	jr	ra
80000d04:	00000000 	nop
	...

80000d10 <__divu10>:
__divu10():
80000d10:	00041082 	srl	v0,a0,0x2
80000d14:	00041842 	srl	v1,a0,0x1
80000d18:	24840006 	addiu	a0,a0,6
80000d1c:	00621821 	addu	v1,v1,v0
80000d20:	00031102 	srl	v0,v1,0x4
80000d24:	00621821 	addu	v1,v1,v0
80000d28:	00031202 	srl	v0,v1,0x8
80000d2c:	00621821 	addu	v1,v1,v0
80000d30:	00031402 	srl	v0,v1,0x10
80000d34:	00621821 	addu	v1,v1,v0
80000d38:	000318c2 	srl	v1,v1,0x3
80000d3c:	00031040 	sll	v0,v1,0x1
80000d40:	000328c0 	sll	a1,v1,0x3
80000d44:	00451021 	addu	v0,v0,a1
80000d48:	00821023 	subu	v0,a0,v0
80000d4c:	00021102 	srl	v0,v0,0x4
80000d50:	00431021 	addu	v0,v0,v1
80000d54:	03e00008 	jr	ra
80000d58:	00000000 	nop

80000d5c <printnum2>:
printnum2():
80000d5c:	27bdff90 	addiu	sp,sp,-112
80000d60:	afb0005c 	sw	s0,92(sp)
80000d64:	00808025 	move	s0,a0
80000d68:	afbf006c 	sw	ra,108(sp)
80000d6c:	afb30068 	sw	s3,104(sp)
80000d70:	afb20064 	sw	s2,100(sp)
80000d74:	afb10060 	sw	s1,96(sp)
80000d78:	10e00003 	beqz	a3,80000d88 <printnum2+0x2c>
80000d7c:	00000000 	nop
80000d80:	04800060 	bltz	a0,80000f04 <printnum2+0x1a8>
80000d84:	00000000 	nop
80000d88:	12000068 	beqz	s0,80000f2c <printnum2+0x1d0>
80000d8c:	00000000 	nop
80000d90:	27a40010 	addiu	a0,sp,16
80000d94:	00008825 	move	s1,zero
80000d98:	24080002 	li	t0,2
80000d9c:	24090008 	li	t1,8
80000da0:	240a0010 	li	t2,16
80000da4:	10c80040 	beq	a2,t0,80000ea8 <printnum2+0x14c>
80000da8:	00000000 	nop
80000dac:	00101842 	srl	v1,s0,0x1
80000db0:	10c90042 	beq	a2,t1,80000ebc <printnum2+0x160>
80000db4:	00000000 	nop
80000db8:	00101082 	srl	v0,s0,0x2
80000dbc:	10ca0044 	beq	a2,t2,80000ed0 <printnum2+0x174>
80000dc0:	00000000 	nop
80000dc4:	00621821 	addu	v1,v1,v0
80000dc8:	26070006 	addiu	a3,s0,6
80000dcc:	00031102 	srl	v0,v1,0x4
80000dd0:	00621821 	addu	v1,v1,v0
80000dd4:	00031202 	srl	v0,v1,0x8
80000dd8:	00621821 	addu	v1,v1,v0
80000ddc:	00031402 	srl	v0,v1,0x10
80000de0:	00621821 	addu	v1,v1,v0
80000de4:	000318c2 	srl	v1,v1,0x3
80000de8:	00031040 	sll	v0,v1,0x1
80000dec:	000358c0 	sll	t3,v1,0x3
80000df0:	004b1021 	addu	v0,v0,t3
80000df4:	00e21023 	subu	v0,a3,v0
80000df8:	00021102 	srl	v0,v0,0x4
80000dfc:	00621021 	addu	v0,v1,v0
80000e00:	00021840 	sll	v1,v0,0x1
80000e04:	000238c0 	sll	a3,v0,0x3
80000e08:	00671821 	addu	v1,v1,a3
80000e0c:	02031823 	subu	v1,s0,v1
80000e10:	00408025 	move	s0,v0
80000e14:	a0830000 	sb	v1,0(a0)
80000e18:	26310001 	addiu	s1,s1,1
80000e1c:	24840001 	addiu	a0,a0,1
80000e20:	1600ffe0 	bnez	s0,80000da4 <printnum2+0x48>
80000e24:	00000000 	nop
80000e28:	00b1102a 	slt	v0,a1,s1
80000e2c:	10400002 	beqz	v0,80000e38 <printnum2+0xdc>
80000e30:	00000000 	nop
80000e34:	02202825 	move	a1,s1
80000e38:	10a0002a 	beqz	a1,80000ee4 <printnum2+0x188>
80000e3c:	00000000 	nop
80000e40:	27a20010 	addiu	v0,sp,16
80000e44:	24b0ffff 	addiu	s0,a1,-1
80000e48:	00459021 	addu	s2,v0,a1
80000e4c:	10000008 	b	80000e70 <printnum2+0x114>
80000e50:	00000000 	nop
80000e54:	24040030 	li	a0,48
80000e58:	2610ffff 	addiu	s0,s0,-1
80000e5c:	0c00052c 	jal	800014b0 <putchar>
80000e60:	00000000 	nop
80000e64:	2652ffff 	addiu	s2,s2,-1
80000e68:	1260001e 	beqz	s3,80000ee4 <printnum2+0x188>
80000e6c:	00000000 	nop
80000e70:	26020001 	addiu	v0,s0,1
80000e74:	02009825 	move	s3,s0
80000e78:	0222102a 	slt	v0,s1,v0
80000e7c:	1440fff5 	bnez	v0,80000e54 <printnum2+0xf8>
80000e80:	00000000 	nop
80000e84:	8242ffff 	lb	v0,-1(s2)
80000e88:	00000000 	nop
80000e8c:	2843000a 	slti	v1,v0,10
80000e90:	24440057 	addiu	a0,v0,87
80000e94:	1060fff0 	beqz	v1,80000e58 <printnum2+0xfc>
80000e98:	00000000 	nop
80000e9c:	24440030 	addiu	a0,v0,48
80000ea0:	1000ffed 	b	80000e58 <printnum2+0xfc>
80000ea4:	00000000 	nop
80000ea8:	32020001 	andi	v0,s0,0x1
80000eac:	00108042 	srl	s0,s0,0x1
80000eb0:	a0820000 	sb	v0,0(a0)
80000eb4:	1000ffd8 	b	80000e18 <printnum2+0xbc>
80000eb8:	00000000 	nop
80000ebc:	32020007 	andi	v0,s0,0x7
80000ec0:	001080c2 	srl	s0,s0,0x3
80000ec4:	a0820000 	sb	v0,0(a0)
80000ec8:	1000ffd3 	b	80000e18 <printnum2+0xbc>
80000ecc:	00000000 	nop
80000ed0:	3202000f 	andi	v0,s0,0xf
80000ed4:	00108102 	srl	s0,s0,0x4
80000ed8:	a0820000 	sb	v0,0(a0)
80000edc:	1000ffce 	b	80000e18 <printnum2+0xbc>
80000ee0:	00000000 	nop
80000ee4:	8fbf006c 	lw	ra,108(sp)
80000ee8:	8fb30068 	lw	s3,104(sp)
80000eec:	8fb20064 	lw	s2,100(sp)
80000ef0:	8fb10060 	lw	s1,96(sp)
80000ef4:	8fb0005c 	lw	s0,92(sp)
80000ef8:	27bd0070 	addiu	sp,sp,112
80000efc:	03e00008 	jr	ra
80000f00:	00000000 	nop
80000f04:	2404002d 	li	a0,45
80000f08:	afa60054 	sw	a2,84(sp)
80000f0c:	afa50050 	sw	a1,80(sp)
80000f10:	00108023 	negu	s0,s0
80000f14:	0c00052c 	jal	800014b0 <putchar>
80000f18:	00000000 	nop
80000f1c:	8fa50050 	lw	a1,80(sp)
80000f20:	8fa60054 	lw	a2,84(sp)
80000f24:	1000ff98 	b	80000d88 <printnum2+0x2c>
80000f28:	00000000 	nop
80000f2c:	00008825 	move	s1,zero
80000f30:	1000ffbd 	b	80000e28 <printnum2+0xcc>
80000f34:	00000000 	nop

80000f38 <printf>:
printf():
80000f38:	27bdffc8 	addiu	sp,sp,-56
80000f3c:	afbf0034 	sw	ra,52(sp)
80000f40:	27a2003c 	addiu	v0,sp,60
80000f44:	afb50030 	sw	s5,48(sp)
80000f48:	afb4002c 	sw	s4,44(sp)
80000f4c:	afb30028 	sw	s3,40(sp)
80000f50:	afb20024 	sw	s2,36(sp)
80000f54:	afb10020 	sw	s1,32(sp)
80000f58:	afb0001c 	sw	s0,28(sp)
80000f5c:	afa5003c 	sw	a1,60(sp)
80000f60:	afa60040 	sw	a2,64(sp)
80000f64:	afa70044 	sw	a3,68(sp)
80000f68:	afa20010 	sw	v0,16(sp)
80000f6c:	80910000 	lb	s1,0(a0)
80000f70:	00000000 	nop
80000f74:	12200015 	beqz	s1,80000fcc <printf+0x94>
80000f78:	00000000 	nop
80000f7c:	3c158000 	lui	s5,0x8000
80000f80:	00008025 	move	s0,zero
80000f84:	24130025 	li	s3,37
80000f88:	26b51790 	addiu	s5,s5,6032
80000f8c:	0040a025 	move	s4,v0
80000f90:	00809025 	move	s2,a0
80000f94:	12330018 	beq	s1,s3,80000ff8 <printf+0xc0>
80000f98:	00000000 	nop
80000f9c:	2402000a 	li	v0,10
80000fa0:	12220046 	beq	s1,v0,800010bc <printf+0x184>
80000fa4:	00000000 	nop
80000fa8:	02202025 	move	a0,s1
80000fac:	0c00052c 	jal	800014b0 <putchar>
80000fb0:	00000000 	nop
80000fb4:	26100001 	addiu	s0,s0,1
80000fb8:	02501021 	addu	v0,s2,s0
80000fbc:	80510000 	lb	s1,0(v0)
80000fc0:	00000000 	nop
80000fc4:	1620fff3 	bnez	s1,80000f94 <printf+0x5c>
80000fc8:	00000000 	nop
80000fcc:	8fbf0034 	lw	ra,52(sp)
80000fd0:	00001025 	move	v0,zero
80000fd4:	8fb50030 	lw	s5,48(sp)
80000fd8:	8fb4002c 	lw	s4,44(sp)
80000fdc:	8fb30028 	lw	s3,40(sp)
80000fe0:	8fb20024 	lw	s2,36(sp)
80000fe4:	8fb10020 	lw	s1,32(sp)
80000fe8:	8fb0001c 	lw	s0,28(sp)
80000fec:	27bd0038 	addiu	sp,sp,56
80000ff0:	03e00008 	jr	ra
80000ff4:	00000000 	nop
80000ff8:	02501021 	addu	v0,s2,s0
80000ffc:	24050001 	li	a1,1
80001000:	80430001 	lb	v1,1(v0)
80001004:	00000000 	nop
80001008:	2462ffdb 	addiu	v0,v1,-37
8000100c:	304200ff 	andi	v0,v0,0xff
80001010:	2c440054 	sltiu	a0,v0,84
80001014:	10800024 	beqz	a0,800010a8 <printf+0x170>
80001018:	00000000 	nop
8000101c:	00021080 	sll	v0,v0,0x2
80001020:	02a21021 	addu	v0,s5,v0
80001024:	8c420000 	lw	v0,0(v0)
80001028:	00000000 	nop
8000102c:	00400008 	jr	v0
80001030:	00000000 	nop
80001034:	26100001 	addiu	s0,s0,1
80001038:	02501021 	addu	v0,s2,s0
8000103c:	80430001 	lb	v1,1(v0)
80001040:	00000000 	nop
80001044:	2462ffcf 	addiu	v0,v1,-49
80001048:	304200ff 	andi	v0,v0,0xff
8000104c:	2c420009 	sltiu	v0,v0,9
80001050:	10400069 	beqz	v0,800011f8 <printf+0x2c0>
80001054:	00000000 	nop
80001058:	02503021 	addu	a2,s2,s0
8000105c:	00002825 	move	a1,zero
80001060:	2467ffd0 	addiu	a3,v1,-48
80001064:	80c30002 	lb	v1,2(a2)
80001068:	00052040 	sll	a0,a1,0x1
8000106c:	000528c0 	sll	a1,a1,0x3
80001070:	2462ffcf 	addiu	v0,v1,-49
80001074:	00852821 	addu	a1,a0,a1
80001078:	304200ff 	andi	v0,v0,0xff
8000107c:	2c420009 	sltiu	v0,v0,9
80001080:	00e52821 	addu	a1,a3,a1
80001084:	26100001 	addiu	s0,s0,1
80001088:	24c60001 	addiu	a2,a2,1
8000108c:	1440fff4 	bnez	v0,80001060 <printf+0x128>
80001090:	00000000 	nop
80001094:	2462ffdb 	addiu	v0,v1,-37
80001098:	304200ff 	andi	v0,v0,0xff
8000109c:	2c440054 	sltiu	a0,v0,84
800010a0:	1480ffde 	bnez	a0,8000101c <printf+0xe4>
800010a4:	00000000 	nop
800010a8:	24040025 	li	a0,37
800010ac:	0c00052c 	jal	800014b0 <putchar>
800010b0:	00000000 	nop
800010b4:	1000ffbf 	b	80000fb4 <printf+0x7c>
800010b8:	00000000 	nop
800010bc:	2404000d 	li	a0,13
800010c0:	0c00052c 	jal	800014b0 <putchar>
800010c4:	00000000 	nop
800010c8:	1000ffb7 	b	80000fa8 <printf+0x70>
800010cc:	00000000 	nop
800010d0:	8e840000 	lw	a0,0(s4)
800010d4:	00003825 	move	a3,zero
800010d8:	2406000a 	li	a2,10
800010dc:	26940004 	addiu	s4,s4,4
800010e0:	0c000357 	jal	80000d5c <printnum2>
800010e4:	00000000 	nop
800010e8:	26100001 	addiu	s0,s0,1
800010ec:	1000ffb1 	b	80000fb4 <printf+0x7c>
800010f0:	00000000 	nop
800010f4:	8e840000 	lw	a0,0(s4)
800010f8:	26100001 	addiu	s0,s0,1
800010fc:	26940004 	addiu	s4,s4,4
80001100:	0c0004f4 	jal	800013d0 <putstring>
80001104:	00000000 	nop
80001108:	1000ffaa 	b	80000fb4 <printf+0x7c>
8000110c:	00000000 	nop
80001110:	8e840000 	lw	a0,0(s4)
80001114:	00003825 	move	a3,zero
80001118:	24060010 	li	a2,16
8000111c:	26940004 	addiu	s4,s4,4
80001120:	0c000357 	jal	80000d5c <printnum2>
80001124:	00000000 	nop
80001128:	26100001 	addiu	s0,s0,1
8000112c:	1000ffa1 	b	80000fb4 <printf+0x7c>
80001130:	00000000 	nop
80001134:	8e840000 	lw	a0,0(s4)
80001138:	00003825 	move	a3,zero
8000113c:	24060008 	li	a2,8
80001140:	26940004 	addiu	s4,s4,4
80001144:	0c000357 	jal	80000d5c <printnum2>
80001148:	00000000 	nop
8000114c:	26100001 	addiu	s0,s0,1
80001150:	1000ff98 	b	80000fb4 <printf+0x7c>
80001154:	00000000 	nop
80001158:	8e840000 	lw	a0,0(s4)
8000115c:	00003825 	move	a3,zero
80001160:	2406000a 	li	a2,10
80001164:	26940004 	addiu	s4,s4,4
80001168:	0c000357 	jal	80000d5c <printnum2>
8000116c:	00000000 	nop
80001170:	26100002 	addiu	s0,s0,2
80001174:	1000ff8f 	b	80000fb4 <printf+0x7c>
80001178:	00000000 	nop
8000117c:	8e840000 	lw	a0,0(s4)
80001180:	24070001 	li	a3,1
80001184:	2406000a 	li	a2,10
80001188:	26940004 	addiu	s4,s4,4
8000118c:	0c000357 	jal	80000d5c <printnum2>
80001190:	00000000 	nop
80001194:	26100001 	addiu	s0,s0,1
80001198:	1000ff86 	b	80000fb4 <printf+0x7c>
8000119c:	00000000 	nop
800011a0:	8e840000 	lw	a0,0(s4)
800011a4:	26100001 	addiu	s0,s0,1
800011a8:	26940004 	addiu	s4,s4,4
800011ac:	0c00052c 	jal	800014b0 <putchar>
800011b0:	00000000 	nop
800011b4:	1000ff7f 	b	80000fb4 <printf+0x7c>
800011b8:	00000000 	nop
800011bc:	8e840000 	lw	a0,0(s4)
800011c0:	00003825 	move	a3,zero
800011c4:	24060002 	li	a2,2
800011c8:	26940004 	addiu	s4,s4,4
800011cc:	0c000357 	jal	80000d5c <printnum2>
800011d0:	00000000 	nop
800011d4:	26100001 	addiu	s0,s0,1
800011d8:	1000ff76 	b	80000fb4 <printf+0x7c>
800011dc:	00000000 	nop
800011e0:	24040025 	li	a0,37
800011e4:	26100001 	addiu	s0,s0,1
800011e8:	0c00052c 	jal	800014b0 <putchar>
800011ec:	00000000 	nop
800011f0:	1000ff70 	b	80000fb4 <printf+0x7c>
800011f4:	00000000 	nop
800011f8:	00002825 	move	a1,zero
800011fc:	1000ff82 	b	80001008 <printf+0xd0>
80001200:	00000000 	nop
	...

80001210 <_get_count>:
_get_count():
80001210:	3c02bfd0 	lui	v0,0xbfd0
80001214:	8c420500 	lw	v0,1280(v0)
80001218:	03e00008 	jr	ra
8000121c:	00000000 	nop

80001220 <get_count>:
get_count():
80001220:	3c02bfd0 	lui	v0,0xbfd0
80001224:	8c420500 	lw	v0,1280(v0)
80001228:	03e00008 	jr	ra
8000122c:	00000000 	nop

80001230 <clock_gettime>:
clock_gettime():
80001230:	3c02bfd0 	lui	v0,0xbfd0
80001234:	27bdffe8 	addiu	sp,sp,-24
80001238:	00a05825 	move	t3,a1
8000123c:	8c4c0500 	lw	t4,1280(v0)
80001240:	3c021062 	lui	v0,0x1062
80001244:	afbf0014 	sw	ra,20(sp)
80001248:	3c048000 	lui	a0,0x8000
8000124c:	24424dd3 	addiu	v0,v0,19923
80001250:	aca00000 	sw	zero,0(a1)
80001254:	00003025 	move	a2,zero
80001258:	01820019 	multu	t4,v0
8000125c:	000c6040 	sll	t4,t4,0x1
80001260:	248418e0 	addiu	a0,a0,6368
80001264:	00003810 	mfhi	a3
	...
80001270:	01820019 	multu	t4,v0
80001274:	00002810 	mfhi	a1
80001278:	00073982 	srl	a3,a3,0x6
8000127c:	00073840 	sll	a3,a3,0x1
80001280:	00e20019 	multu	a3,v0
80001284:	00052982 	srl	a1,a1,0x6
80001288:	000541c0 	sll	t0,a1,0x7
8000128c:	00001810 	mfhi	v1
80001290:	00055080 	sll	t2,a1,0x2
80001294:	010a5023 	subu	t2,t0,t2
80001298:	01452821 	addu	a1,t2,a1
8000129c:	00031982 	srl	v1,v1,0x6
800012a0:	000528c0 	sll	a1,a1,0x3
800012a4:	00620019 	multu	v1,v0
800012a8:	000341c0 	sll	t0,v1,0x7
800012ac:	00034880 	sll	t1,v1,0x2
800012b0:	01852823 	subu	a1,t4,a1
800012b4:	00001010 	mfhi	v0
800012b8:	01094823 	subu	t1,t0,t1
800012bc:	ad650004 	sw	a1,4(t3)
800012c0:	01234821 	addu	t1,t1,v1
800012c4:	00021182 	srl	v0,v0,0x6
800012c8:	00025080 	sll	t2,v0,0x2
800012cc:	000241c0 	sll	t0,v0,0x7
800012d0:	010a4023 	subu	t0,t0,t2
800012d4:	01021021 	addu	v0,t0,v0
800012d8:	000940c0 	sll	t0,t1,0x3
800012dc:	000210c0 	sll	v0,v0,0x3
800012e0:	00e83823 	subu	a3,a3,t0
800012e4:	00621823 	subu	v1,v1,v0
800012e8:	ad670008 	sw	a3,8(t3)
800012ec:	ad63000c 	sw	v1,12(t3)
800012f0:	0c0003ce 	jal	80000f38 <printf>
800012f4:	00000000 	nop
800012f8:	00001025 	move	v0,zero
800012fc:	8fbf0014 	lw	ra,20(sp)
80001300:	27bd0018 	addiu	sp,sp,24
80001304:	03e00008 	jr	ra
80001308:	00000000 	nop

8000130c <get_clock>:
get_clock():
8000130c:	3c02bfd0 	lui	v0,0xbfd0
80001310:	8c420500 	lw	v0,1280(v0)
80001314:	00000000 	nop
80001318:	00021040 	sll	v0,v0,0x1
8000131c:	03e00008 	jr	ra
80001320:	00000000 	nop

80001324 <get_us>:
get_us():
80001324:	3c02bfd0 	lui	v0,0xbfd0
80001328:	8c420600 	lw	v0,1536(v0)
8000132c:	03e00008 	jr	ra
80001330:	00000000 	nop

80001334 <get_inst>:
get_inst():
80001334:	3c02bfd0 	lui	v0,0xbfd0
80001338:	8c420700 	lw	v0,1792(v0)
8000133c:	03e00008 	jr	ra
80001340:	00000000 	nop

80001344 <get_ns>:
get_ns():
80001344:	3c02bfd0 	lui	v0,0xbfd0
80001348:	8c440600 	lw	a0,1536(v0)
8000134c:	00000000 	nop
80001350:	00041080 	sll	v0,a0,0x2
80001354:	000419c0 	sll	v1,a0,0x7
80001358:	00621023 	subu	v0,v1,v0
8000135c:	00441021 	addu	v0,v0,a0
80001360:	000210c0 	sll	v0,v0,0x3
80001364:	03e00008 	jr	ra
80001368:	00000000 	nop
8000136c:	00000000 	nop

80001370 <get_epc>:
get_epc():
80001370:	40027000 	mfc0	v0,c0_epc
80001374:	03e00008 	jr	ra
80001378:	00000000 	nop

8000137c <get_cause>:
get_cause():
8000137c:	40026800 	mfc0	v0,c0_cause
80001380:	03e00008 	jr	ra
80001384:	00000000 	nop

80001388 <exception>:
exception():
80001388:	3c048000 	lui	a0,0x8000
8000138c:	27bdffe8 	addiu	sp,sp,-24
80001390:	248418f4 	addiu	a0,a0,6388
80001394:	afbf0014 	sw	ra,20(sp)
80001398:	0c0003ce 	jal	80000f38 <printf>
8000139c:	00000000 	nop
800013a0:	3c048000 	lui	a0,0x8000
800013a4:	40057000 	mfc0	a1,c0_epc
800013a8:	24841910 	addiu	a0,a0,6416
800013ac:	0c0003ce 	jal	80000f38 <printf>
800013b0:	00000000 	nop
800013b4:	3c048000 	lui	a0,0x8000
800013b8:	8fbf0014 	lw	ra,20(sp)
800013bc:	27bd0018 	addiu	sp,sp,24
800013c0:	24841920 	addiu	a0,a0,6432
800013c4:	40056800 	mfc0	a1,c0_cause
800013c8:	080003ce 	j	80000f38 <printf>
800013cc:	00000000 	nop

800013d0 <putstring>:
putstring():
800013d0:	27bdffe0 	addiu	sp,sp,-32
800013d4:	afbf001c 	sw	ra,28(sp)
800013d8:	afb20018 	sw	s2,24(sp)
800013dc:	afb10014 	sw	s1,20(sp)
800013e0:	afb00010 	sw	s0,16(sp)
800013e4:	80900000 	lb	s0,0(a0)
800013e8:	00000000 	nop
800013ec:	12000019 	beqz	s0,80001454 <putstring+0x84>
800013f0:	00000000 	nop
800013f4:	00808825 	move	s1,a0
800013f8:	2412000a 	li	s2,10
800013fc:	10000008 	b	80001420 <putstring+0x50>
80001400:	00000000 	nop
80001404:	02002025 	move	a0,s0
80001408:	0c00052c 	jal	800014b0 <putchar>
8000140c:	00000000 	nop
80001410:	82300000 	lb	s0,0(s1)
80001414:	00000000 	nop
80001418:	1200000e 	beqz	s0,80001454 <putstring+0x84>
8000141c:	00000000 	nop
80001420:	26310001 	addiu	s1,s1,1
80001424:	1612fff7 	bne	s0,s2,80001404 <putstring+0x34>
80001428:	00000000 	nop
8000142c:	2404000d 	li	a0,13
80001430:	0c00052c 	jal	800014b0 <putchar>
80001434:	00000000 	nop
80001438:	02002025 	move	a0,s0
8000143c:	0c00052c 	jal	800014b0 <putchar>
80001440:	00000000 	nop
80001444:	82300000 	lb	s0,0(s1)
80001448:	00000000 	nop
8000144c:	1600fff4 	bnez	s0,80001420 <putstring+0x50>
80001450:	00000000 	nop
80001454:	8fbf001c 	lw	ra,28(sp)
80001458:	00001025 	move	v0,zero
8000145c:	8fb20018 	lw	s2,24(sp)
80001460:	8fb10014 	lw	s1,20(sp)
80001464:	8fb00010 	lw	s0,16(sp)
80001468:	27bd0020 	addiu	sp,sp,32
8000146c:	03e00008 	jr	ra
80001470:	00000000 	nop

80001474 <puts>:
puts():
80001474:	27bdffe8 	addiu	sp,sp,-24
80001478:	afbf0014 	sw	ra,20(sp)
8000147c:	0c0004f4 	jal	800013d0 <putstring>
80001480:	00000000 	nop
80001484:	2404000d 	li	a0,13
80001488:	0c00052c 	jal	800014b0 <putchar>
8000148c:	00000000 	nop
80001490:	2404000a 	li	a0,10
80001494:	0c00052c 	jal	800014b0 <putchar>
80001498:	00000000 	nop
8000149c:	00001025 	move	v0,zero
800014a0:	8fbf0014 	lw	ra,20(sp)
800014a4:	27bd0018 	addiu	sp,sp,24
800014a8:	03e00008 	jr	ra
800014ac:	00000000 	nop

800014b0 <putchar>:
putchar():
800014b0:	3c03bfd0 	lui	v1,0xbfd0
800014b4:	8c6203fc 	lw	v0,1020(v1)
800014b8:	00000000 	nop
800014bc:	30420001 	andi	v0,v0,0x1
800014c0:	1040fffb 	beqz	v0,800014b0 <putchar>
800014c4:	00000000 	nop
800014c8:	10800002 	beqz	a0,800014d4 <putchar+0x24>
800014cc:	00000000 	nop
800014d0:	ac6403f8 	sw	a0,1016(v1)
800014d4:	00001025 	move	v0,zero
800014d8:	03e00008 	jr	ra
800014dc:	00000000 	nop

800014e0 <tgt_putchar>:
tgt_putchar():
800014e0:	3c03bfd0 	lui	v1,0xbfd0
800014e4:	8c6203fc 	lw	v0,1020(v1)
800014e8:	00000000 	nop
800014ec:	30420001 	andi	v0,v0,0x1
800014f0:	1040fffb 	beqz	v0,800014e0 <tgt_putchar>
800014f4:	00000000 	nop
800014f8:	10800002 	beqz	a0,80001504 <tgt_putchar+0x24>
800014fc:	00000000 	nop
80001500:	ac6403f8 	sw	a0,1016(v1)
80001504:	03e00008 	jr	ra
80001508:	00000000 	nop
8000150c:	00000000 	nop
80001510:	73746942 	0x73746942
80001514:	6c25203a 	0x6c25203a
80001518:	00000a64 	0xa64
8000151c:	656d6954 	0x656d6954
80001520:	7525203a 	jalx	849480e8 <_stack+0x4846108>
80001524:	63796320 	0x63796320
80001528:	2c73656c 	sltiu	s3,v1,25964
8000152c:	20752520 	addi	s5,v1,9504
80001530:	202c7375 	addi	t4,at,29557
80001534:	69207525 	0x69207525
80001538:	0a74736e 	j	89d1cdb8 <_stack+0x9c1add8>
8000153c:	00000000 	nop
80001540:	20746942 	addi	s4,v1,26946
80001544:	6e756f63 	0x6e756f63
80001548:	20726574 	addi	s2,v1,25972
8000154c:	6f676c61 	0x6f676c61
80001550:	68746972 	0x68746972
80001554:	6562206d 	0x6562206d
80001558:	6d68636e 	0x6d68636e
8000155c:	0a6b7261 	j	89adc984 <_stack+0x99da9a4>
80001560:	00000000 	nop
	...

80001570 <pBitCntFunc.1605>:
80001570:	80000c30 800007f0 80000a00 80000890     0...............
80001580:	80000940 800009a0 80000470 00000000     @.......p.......

80001590 <bits>:
80001590:	02010100 03020201 03020201 04030302     ................
800015a0:	03020201 04030302 04030302 05040403     ................
800015b0:	03020201 04030302 04030302 05040403     ................
800015c0:	04030302 05040403 05040403 06050504     ................
800015d0:	03020201 04030302 04030302 05040403     ................
800015e0:	04030302 05040403 05040403 06050504     ................
800015f0:	04030302 05040403 05040403 06050504     ................
80001600:	05040403 06050504 06050504 07060605     ................
80001610:	03020201 04030302 04030302 05040403     ................
80001620:	04030302 05040403 05040403 06050504     ................
80001630:	04030302 05040403 05040403 06050504     ................
80001640:	05040403 06050504 06050504 07060605     ................
80001650:	04030302 05040403 05040403 06050504     ................
80001660:	05040403 06050504 06050504 07060605     ................
80001670:	05040403 06050504 06050504 07060605     ................
80001680:	06050504 07060605 07060605 08070706     ................

80001690 <bits>:
80001690:	02010100 03020201 03020201 04030302     ................
800016a0:	03020201 04030302 04030302 05040403     ................
800016b0:	03020201 04030302 04030302 05040403     ................
800016c0:	04030302 05040403 05040403 06050504     ................
800016d0:	03020201 04030302 04030302 05040403     ................
800016e0:	04030302 05040403 05040403 06050504     ................
800016f0:	04030302 05040403 05040403 06050504     ................
80001700:	05040403 06050504 06050504 07060605     ................
80001710:	03020201 04030302 04030302 05040403     ................
80001720:	04030302 05040403 05040403 06050504     ................
80001730:	04030302 05040403 05040403 06050504     ................
80001740:	05040403 06050504 06050504 07060605     ................
80001750:	04030302 05040403 05040403 06050504     ................
80001760:	05040403 06050504 06050504 07060605     ................
80001770:	05040403 06050504 06050504 07060605     ................
80001780:	06050504 07060605 07060605 08070706     ................
80001790:	800011e0 800010a8 800010a8 800010a8     ................
800017a0:	800010a8 800010a8 800010a8 800010a8     ................
800017b0:	800010a8 800010a8 800010a8 80001034     ............4...
800017c0:	80001044 80001044 80001044 80001044     D...D...D...D...
800017d0:	80001044 80001044 80001044 80001044     D...D...D...D...
800017e0:	80001044 800010a8 800010a8 800010a8     D...............
800017f0:	800010a8 800010a8 800010a8 800010a8     ................
80001800:	800010a8 800010a8 800010a8 800010a8     ................
80001810:	800010a8 800010a8 800010a8 800010a8     ................
80001820:	800010a8 800010a8 800010a8 800010a8     ................
80001830:	800010a8 800010a8 800010a8 800010a8     ................
80001840:	800010a8 800010a8 800010a8 800010a8     ................
80001850:	800010a8 800010a8 800010a8 800010a8     ................
80001860:	800010a8 800010a8 800010a8 800010a8     ................
80001870:	800010a8 800010a8 800010a8 800010a8     ................
80001880:	800010a8 800011bc 800011a0 8000117c     ............|...
80001890:	800010a8 800010a8 800010a8 800010a8     ................
800018a0:	800010a8 800010a8 800010a8 80001158     ............X...
800018b0:	800010a8 800010a8 80001134 80001110     ........4.......
800018c0:	800010a8 800010a8 800010f4 800010a8     ................
800018d0:	800010d0 800010a8 800010a8 80001110     ................
800018e0:	636f6c63 736e206b 2c64253d 3d636573     clock ns=%d,sec=
800018f0:	000a6425 72656854 73692065 206e6120     %d..There is an 
80001900:	65637865 6f697470 0a21216e 00000000     exception!!.....
80001910:	20656854 20637065 25207369 00000a78     The epc is %x...
80001920:	20656854 73756163 73692065 0a782520     The cause is %x.
80001930:	00000000 b0000702 00000000 00000000     ................
	...
80001950:	00010000 03000001 00000000 00000000     ................
	...
