
obj/stream_copy/main.elf:     file format elf32-tradlittlemips
obj/stream_copy/main.elf


Disassembly of section .text:

80000000 <_ftext>:
_ftext():
80000000:	3c0a0040 	lui	t2,0x40
80000004:	408a6000 	mtc0	t2,c0_sr
80000008:	40806800 	mtc0	zero,c0_cause
8000000c:	3c1d8010 	lui	sp,0x8010
80000010:	27bd1fe0 	addiu	sp,sp,8160
80000014:	3c1c8001 	lui	gp,0x8001
80000018:	279caf90 	addiu	gp,gp,-20592
8000001c:	041100dc 	bal	80000390 <shell>
80000020:	00000000 	nop

80000024 <loop>:
loop():
80000024:	3c08bfd0 	lui	t0,0xbfd0
80000028:	8d090500 	lw	t1,1280(t0)
8000002c:	3c0a8000 	lui	t2,0x8000
80000030:	ad490000 	sw	t1,0(t2)
80000034:	08000009 	j	80000024 <loop>
80000038:	00000000 	nop

8000003c <exit>:
exit():
8000003c:	340900ff 	li	t1,0xff
80000040:	3c018000 	lui	at,0x8000
80000044:	a0297ffc 	sb	t1,32764(at)
	...
80000380:	0c000352 	jal	80000d48 <exception>
80000384:	00000000 	nop
80000388:	0800000f 	j	8000003c <exit>
8000038c:	00000000 	nop

80000390 <shell>:
shell():
80000390:	27bdffd0 	addiu	sp,sp,-48
80000394:	afbf002c 	sw	ra,44(sp)
80000398:	afb60028 	sw	s6,40(sp)
8000039c:	afb50024 	sw	s5,36(sp)
800003a0:	afb40020 	sw	s4,32(sp)
800003a4:	afb3001c 	sw	s3,28(sp)
800003a8:	afb20018 	sw	s2,24(sp)
800003ac:	afb10014 	sw	s1,20(sp)
800003b0:	3c118000 	lui	s1,0x8000
800003b4:	afb00010 	sw	s0,16(sp)
800003b8:	3c108000 	lui	s0,0x8000
800003bc:	0c0002f8 	jal	80000be0 <get_count>
800003c0:	00000000 	nop
800003c4:	00409025 	move	s2,v0
800003c8:	0c00033d 	jal	80000cf4 <get_inst>
800003cc:	00000000 	nop
800003d0:	0040a025 	move	s4,v0
800003d4:	0c000339 	jal	80000ce4 <get_us>
800003d8:	00000000 	nop
800003dc:	240603e8 	li	a2,1000
800003e0:	26242000 	addiu	a0,s1,8192
800003e4:	26052fa0 	addiu	a1,s0,12192
800003e8:	00409825 	move	s3,v0
800003ec:	0c000150 	jal	80000540 <stream_copy>
800003f0:	00000000 	nop
800003f4:	0c0002f8 	jal	80000be0 <get_count>
800003f8:	00000000 	nop
800003fc:	0040b025 	move	s6,v0
80000400:	0c00033d 	jal	80000cf4 <get_inst>
80000404:	00000000 	nop
80000408:	0040a825 	move	s5,v0
8000040c:	0c000339 	jal	80000ce4 <get_us>
80000410:	00000000 	nop
80000414:	3c0a8000 	lui	t2,0x8000
80000418:	02d29023 	subu	s2,s6,s2
8000041c:	00539823 	subu	s3,v0,s3
80000420:	02b4a023 	subu	s4,s5,s4
80000424:	26032fa0 	addiu	v1,s0,12192
80000428:	26242000 	addiu	a0,s1,8192
8000042c:	25463f40 	addiu	a2,t2,16192
80000430:	8c690000 	lw	t1,0(v1)
80000434:	8c880000 	lw	t0,0(a0)
80000438:	00000000 	nop
8000043c:	15280038 	bne	t1,t0,80000520 <shell+0x190>
80000440:	00000000 	nop
80000444:	8c620004 	lw	v0,4(v1)
80000448:	8c850004 	lw	a1,4(a0)
8000044c:	00000000 	nop
80000450:	14450033 	bne	v0,a1,80000520 <shell+0x190>
80000454:	00000000 	nop
80000458:	8c670008 	lw	a3,8(v1)
8000045c:	8c8b0008 	lw	t3,8(a0)
80000460:	00000000 	nop
80000464:	14eb002e 	bne	a3,t3,80000520 <shell+0x190>
80000468:	00000000 	nop
8000046c:	8c6c000c 	lw	t4,12(v1)
80000470:	8c8d000c 	lw	t5,12(a0)
80000474:	00000000 	nop
80000478:	158d0029 	bne	t4,t5,80000520 <shell+0x190>
8000047c:	00000000 	nop
80000480:	8c6e0010 	lw	t6,16(v1)
80000484:	8c8f0010 	lw	t7,16(a0)
80000488:	00000000 	nop
8000048c:	15cf0024 	bne	t6,t7,80000520 <shell+0x190>
80000490:	00000000 	nop
80000494:	8c780014 	lw	t8,20(v1)
80000498:	8c990014 	lw	t9,20(a0)
8000049c:	00000000 	nop
800004a0:	1719001f 	bne	t8,t9,80000520 <shell+0x190>
800004a4:	00000000 	nop
800004a8:	8c7f0018 	lw	ra,24(v1)
800004ac:	8c900018 	lw	s0,24(a0)
800004b0:	00000000 	nop
800004b4:	17f0001a 	bne	ra,s0,80000520 <shell+0x190>
800004b8:	00000000 	nop
800004bc:	8c71001c 	lw	s1,28(v1)
800004c0:	24840020 	addiu	a0,a0,32
800004c4:	8c96fffc 	lw	s6,-4(a0)
800004c8:	24630020 	addiu	v1,v1,32
800004cc:	16360014 	bne	s1,s6,80000520 <shell+0x190>
800004d0:	00000000 	nop
800004d4:	1466ffd6 	bne	v1,a2,80000430 <shell+0xa0>
800004d8:	00000000 	nop
800004dc:	02803825 	move	a3,s4
800004e0:	8fbf002c 	lw	ra,44(sp)
800004e4:	3c148000 	lui	s4,0x8000
800004e8:	8fb60028 	lw	s6,40(sp)
800004ec:	8fb50024 	lw	s5,36(sp)
800004f0:	02603025 	move	a2,s3
800004f4:	8fb10014 	lw	s1,20(sp)
800004f8:	26840ee4 	addiu	a0,s4,3812
800004fc:	8fb3001c 	lw	s3,28(sp)
80000500:	02402825 	move	a1,s2
80000504:	8fb40020 	lw	s4,32(sp)
80000508:	8fb20018 	lw	s2,24(sp)
8000050c:	8fb00010 	lw	s0,16(sp)
80000510:	27bd0030 	addiu	sp,sp,48
80000514:	0800023e 	j	800008f8 <printf>
80000518:	00000000 	nop
8000051c:	00000000 	nop
80000520:	3c158000 	lui	s5,0x8000
80000524:	26a40ed0 	addiu	a0,s5,3792
80000528:	0c00038d 	jal	80000e34 <puts>
8000052c:	00000000 	nop
80000530:	1000ffea 	b	800004dc <shell+0x14c>
80000534:	00000000 	nop
	...

80000540 <stream_copy>:
stream_copy():
80000540:	18c00059 	blez	a2,800006a8 <stream_copy+0x168>
80000544:	00000000 	nop
80000548:	00063080 	sll	a2,a2,0x2
8000054c:	8c830000 	lw	v1,0(a0)
80000550:	24820004 	addiu	v0,a0,4
80000554:	24c7fffc 	addiu	a3,a2,-4
80000558:	00864821 	addu	t1,a0,a2
8000055c:	00074082 	srl	t0,a3,0x2
80000560:	aca30000 	sw	v1,0(a1)
80000564:	24a30004 	addiu	v1,a1,4
80000568:	310a0007 	andi	t2,t0,0x7
8000056c:	10490054 	beq	v0,t1,800006c0 <stream_copy+0x180>
80000570:	00000000 	nop
80000574:	11400031 	beqz	t2,8000063c <stream_copy+0xfc>
80000578:	00000000 	nop
8000057c:	240b0001 	li	t3,1
80000580:	114b0028 	beq	t2,t3,80000624 <stream_copy+0xe4>
80000584:	00000000 	nop
80000588:	240c0002 	li	t4,2
8000058c:	114c0021 	beq	t2,t4,80000614 <stream_copy+0xd4>
80000590:	00000000 	nop
80000594:	240d0003 	li	t5,3
80000598:	114d001a 	beq	t2,t5,80000604 <stream_copy+0xc4>
8000059c:	00000000 	nop
800005a0:	240e0004 	li	t6,4
800005a4:	114e0013 	beq	t2,t6,800005f4 <stream_copy+0xb4>
800005a8:	00000000 	nop
800005ac:	240f0005 	li	t7,5
800005b0:	114f000c 	beq	t2,t7,800005e4 <stream_copy+0xa4>
800005b4:	00000000 	nop
800005b8:	24180006 	li	t8,6
800005bc:	11580005 	beq	t2,t8,800005d4 <stream_copy+0x94>
800005c0:	00000000 	nop
800005c4:	8c590000 	lw	t9,0(v0)
800005c8:	24820008 	addiu	v0,a0,8
800005cc:	ac790000 	sw	t9,0(v1)
800005d0:	24a30008 	addiu	v1,a1,8
800005d4:	8c440000 	lw	a0,0(v0)
800005d8:	24630004 	addiu	v1,v1,4
800005dc:	24420004 	addiu	v0,v0,4
800005e0:	ac64fffc 	sw	a0,-4(v1)
800005e4:	8c450000 	lw	a1,0(v0)
800005e8:	24630004 	addiu	v1,v1,4
800005ec:	24420004 	addiu	v0,v0,4
800005f0:	ac65fffc 	sw	a1,-4(v1)
800005f4:	8c460000 	lw	a2,0(v0)
800005f8:	24630004 	addiu	v1,v1,4
800005fc:	24420004 	addiu	v0,v0,4
80000600:	ac66fffc 	sw	a2,-4(v1)
80000604:	8c470000 	lw	a3,0(v0)
80000608:	24630004 	addiu	v1,v1,4
8000060c:	24420004 	addiu	v0,v0,4
80000610:	ac67fffc 	sw	a3,-4(v1)
80000614:	8c480000 	lw	t0,0(v0)
80000618:	24630004 	addiu	v1,v1,4
8000061c:	24420004 	addiu	v0,v0,4
80000620:	ac68fffc 	sw	t0,-4(v1)
80000624:	8c4a0000 	lw	t2,0(v0)
80000628:	24630004 	addiu	v1,v1,4
8000062c:	24420004 	addiu	v0,v0,4
80000630:	ac6afffc 	sw	t2,-4(v1)
80000634:	1049001e 	beq	v0,t1,800006b0 <stream_copy+0x170>
80000638:	00000000 	nop
8000063c:	8c4b0000 	lw	t3,0(v0)
80000640:	24630020 	addiu	v1,v1,32
80000644:	24420020 	addiu	v0,v0,32
80000648:	ac6bffe0 	sw	t3,-32(v1)
8000064c:	8c4cffe4 	lw	t4,-28(v0)
80000650:	00000000 	nop
80000654:	ac6cffe4 	sw	t4,-28(v1)
80000658:	8c4dffe8 	lw	t5,-24(v0)
8000065c:	00000000 	nop
80000660:	ac6dffe8 	sw	t5,-24(v1)
80000664:	8c4effec 	lw	t6,-20(v0)
80000668:	00000000 	nop
8000066c:	ac6effec 	sw	t6,-20(v1)
80000670:	8c4ffff0 	lw	t7,-16(v0)
80000674:	00000000 	nop
80000678:	ac6ffff0 	sw	t7,-16(v1)
8000067c:	8c58fff4 	lw	t8,-12(v0)
80000680:	00000000 	nop
80000684:	ac78fff4 	sw	t8,-12(v1)
80000688:	8c59fff8 	lw	t9,-8(v0)
8000068c:	00000000 	nop
80000690:	ac79fff8 	sw	t9,-8(v1)
80000694:	8c44fffc 	lw	a0,-4(v0)
80000698:	00000000 	nop
8000069c:	ac64fffc 	sw	a0,-4(v1)
800006a0:	1449ffe6 	bne	v0,t1,8000063c <stream_copy+0xfc>
800006a4:	00000000 	nop
800006a8:	03e00008 	jr	ra
800006ac:	00000000 	nop
800006b0:	03e00008 	jr	ra
800006b4:	00000000 	nop
	...
800006c0:	03e00008 	jr	ra
800006c4:	00000000 	nop
	...

800006d0 <__divu10>:
__divu10():
800006d0:	00041082 	srl	v0,a0,0x2
800006d4:	00041842 	srl	v1,a0,0x1
800006d8:	24840006 	addiu	a0,a0,6
800006dc:	00621821 	addu	v1,v1,v0
800006e0:	00031102 	srl	v0,v1,0x4
800006e4:	00621821 	addu	v1,v1,v0
800006e8:	00031202 	srl	v0,v1,0x8
800006ec:	00621821 	addu	v1,v1,v0
800006f0:	00031402 	srl	v0,v1,0x10
800006f4:	00621821 	addu	v1,v1,v0
800006f8:	000318c2 	srl	v1,v1,0x3
800006fc:	00031040 	sll	v0,v1,0x1
80000700:	000328c0 	sll	a1,v1,0x3
80000704:	00451021 	addu	v0,v0,a1
80000708:	00821023 	subu	v0,a0,v0
8000070c:	00021102 	srl	v0,v0,0x4
80000710:	00431021 	addu	v0,v0,v1
80000714:	03e00008 	jr	ra
80000718:	00000000 	nop

8000071c <printnum2>:
printnum2():
8000071c:	27bdff90 	addiu	sp,sp,-112
80000720:	afb0005c 	sw	s0,92(sp)
80000724:	00808025 	move	s0,a0
80000728:	afbf006c 	sw	ra,108(sp)
8000072c:	afb30068 	sw	s3,104(sp)
80000730:	afb20064 	sw	s2,100(sp)
80000734:	afb10060 	sw	s1,96(sp)
80000738:	10e00003 	beqz	a3,80000748 <printnum2+0x2c>
8000073c:	00000000 	nop
80000740:	04800060 	bltz	a0,800008c4 <printnum2+0x1a8>
80000744:	00000000 	nop
80000748:	12000068 	beqz	s0,800008ec <printnum2+0x1d0>
8000074c:	00000000 	nop
80000750:	27a40010 	addiu	a0,sp,16
80000754:	00008825 	move	s1,zero
80000758:	24080002 	li	t0,2
8000075c:	24090008 	li	t1,8
80000760:	240a0010 	li	t2,16
80000764:	10c80040 	beq	a2,t0,80000868 <printnum2+0x14c>
80000768:	00000000 	nop
8000076c:	00101842 	srl	v1,s0,0x1
80000770:	10c90042 	beq	a2,t1,8000087c <printnum2+0x160>
80000774:	00000000 	nop
80000778:	00101082 	srl	v0,s0,0x2
8000077c:	10ca0044 	beq	a2,t2,80000890 <printnum2+0x174>
80000780:	00000000 	nop
80000784:	00621821 	addu	v1,v1,v0
80000788:	26070006 	addiu	a3,s0,6
8000078c:	00031102 	srl	v0,v1,0x4
80000790:	00621821 	addu	v1,v1,v0
80000794:	00031202 	srl	v0,v1,0x8
80000798:	00621821 	addu	v1,v1,v0
8000079c:	00031402 	srl	v0,v1,0x10
800007a0:	00621821 	addu	v1,v1,v0
800007a4:	000318c2 	srl	v1,v1,0x3
800007a8:	00031040 	sll	v0,v1,0x1
800007ac:	000358c0 	sll	t3,v1,0x3
800007b0:	004b1021 	addu	v0,v0,t3
800007b4:	00e21023 	subu	v0,a3,v0
800007b8:	00021102 	srl	v0,v0,0x4
800007bc:	00621021 	addu	v0,v1,v0
800007c0:	00021840 	sll	v1,v0,0x1
800007c4:	000238c0 	sll	a3,v0,0x3
800007c8:	00671821 	addu	v1,v1,a3
800007cc:	02031823 	subu	v1,s0,v1
800007d0:	00408025 	move	s0,v0
800007d4:	a0830000 	sb	v1,0(a0)
800007d8:	26310001 	addiu	s1,s1,1
800007dc:	24840001 	addiu	a0,a0,1
800007e0:	1600ffe0 	bnez	s0,80000764 <printnum2+0x48>
800007e4:	00000000 	nop
800007e8:	00b1102a 	slt	v0,a1,s1
800007ec:	10400002 	beqz	v0,800007f8 <printnum2+0xdc>
800007f0:	00000000 	nop
800007f4:	02202825 	move	a1,s1
800007f8:	10a0002a 	beqz	a1,800008a4 <printnum2+0x188>
800007fc:	00000000 	nop
80000800:	27a20010 	addiu	v0,sp,16
80000804:	24b0ffff 	addiu	s0,a1,-1
80000808:	00459021 	addu	s2,v0,a1
8000080c:	10000008 	b	80000830 <printnum2+0x114>
80000810:	00000000 	nop
80000814:	24040030 	li	a0,48
80000818:	2610ffff 	addiu	s0,s0,-1
8000081c:	0c00039c 	jal	80000e70 <putchar>
80000820:	00000000 	nop
80000824:	2652ffff 	addiu	s2,s2,-1
80000828:	1260001e 	beqz	s3,800008a4 <printnum2+0x188>
8000082c:	00000000 	nop
80000830:	26020001 	addiu	v0,s0,1
80000834:	02009825 	move	s3,s0
80000838:	0222102a 	slt	v0,s1,v0
8000083c:	1440fff5 	bnez	v0,80000814 <printnum2+0xf8>
80000840:	00000000 	nop
80000844:	8242ffff 	lb	v0,-1(s2)
80000848:	00000000 	nop
8000084c:	2843000a 	slti	v1,v0,10
80000850:	24440057 	addiu	a0,v0,87
80000854:	1060fff0 	beqz	v1,80000818 <printnum2+0xfc>
80000858:	00000000 	nop
8000085c:	24440030 	addiu	a0,v0,48
80000860:	1000ffed 	b	80000818 <printnum2+0xfc>
80000864:	00000000 	nop
80000868:	32020001 	andi	v0,s0,0x1
8000086c:	00108042 	srl	s0,s0,0x1
80000870:	a0820000 	sb	v0,0(a0)
80000874:	1000ffd8 	b	800007d8 <printnum2+0xbc>
80000878:	00000000 	nop
8000087c:	32020007 	andi	v0,s0,0x7
80000880:	001080c2 	srl	s0,s0,0x3
80000884:	a0820000 	sb	v0,0(a0)
80000888:	1000ffd3 	b	800007d8 <printnum2+0xbc>
8000088c:	00000000 	nop
80000890:	3202000f 	andi	v0,s0,0xf
80000894:	00108102 	srl	s0,s0,0x4
80000898:	a0820000 	sb	v0,0(a0)
8000089c:	1000ffce 	b	800007d8 <printnum2+0xbc>
800008a0:	00000000 	nop
800008a4:	8fbf006c 	lw	ra,108(sp)
800008a8:	8fb30068 	lw	s3,104(sp)
800008ac:	8fb20064 	lw	s2,100(sp)
800008b0:	8fb10060 	lw	s1,96(sp)
800008b4:	8fb0005c 	lw	s0,92(sp)
800008b8:	27bd0070 	addiu	sp,sp,112
800008bc:	03e00008 	jr	ra
800008c0:	00000000 	nop
800008c4:	2404002d 	li	a0,45
800008c8:	afa60054 	sw	a2,84(sp)
800008cc:	afa50050 	sw	a1,80(sp)
800008d0:	00108023 	negu	s0,s0
800008d4:	0c00039c 	jal	80000e70 <putchar>
800008d8:	00000000 	nop
800008dc:	8fa50050 	lw	a1,80(sp)
800008e0:	8fa60054 	lw	a2,84(sp)
800008e4:	1000ff98 	b	80000748 <printnum2+0x2c>
800008e8:	00000000 	nop
800008ec:	00008825 	move	s1,zero
800008f0:	1000ffbd 	b	800007e8 <printnum2+0xcc>
800008f4:	00000000 	nop

800008f8 <printf>:
printf():
800008f8:	27bdffc8 	addiu	sp,sp,-56
800008fc:	afbf0034 	sw	ra,52(sp)
80000900:	27a2003c 	addiu	v0,sp,60
80000904:	afb50030 	sw	s5,48(sp)
80000908:	afb4002c 	sw	s4,44(sp)
8000090c:	afb30028 	sw	s3,40(sp)
80000910:	afb20024 	sw	s2,36(sp)
80000914:	afb10020 	sw	s1,32(sp)
80000918:	afb0001c 	sw	s0,28(sp)
8000091c:	afa5003c 	sw	a1,60(sp)
80000920:	afa60040 	sw	a2,64(sp)
80000924:	afa70044 	sw	a3,68(sp)
80000928:	afa20010 	sw	v0,16(sp)
8000092c:	80910000 	lb	s1,0(a0)
80000930:	00000000 	nop
80000934:	12200015 	beqz	s1,8000098c <printf+0x94>
80000938:	00000000 	nop
8000093c:	3c158000 	lui	s5,0x8000
80000940:	00008025 	move	s0,zero
80000944:	24130025 	li	s3,37
80000948:	26b50f10 	addiu	s5,s5,3856
8000094c:	0040a025 	move	s4,v0
80000950:	00809025 	move	s2,a0
80000954:	12330018 	beq	s1,s3,800009b8 <printf+0xc0>
80000958:	00000000 	nop
8000095c:	2402000a 	li	v0,10
80000960:	12220046 	beq	s1,v0,80000a7c <printf+0x184>
80000964:	00000000 	nop
80000968:	02202025 	move	a0,s1
8000096c:	0c00039c 	jal	80000e70 <putchar>
80000970:	00000000 	nop
80000974:	26100001 	addiu	s0,s0,1
80000978:	02501021 	addu	v0,s2,s0
8000097c:	80510000 	lb	s1,0(v0)
80000980:	00000000 	nop
80000984:	1620fff3 	bnez	s1,80000954 <printf+0x5c>
80000988:	00000000 	nop
8000098c:	8fbf0034 	lw	ra,52(sp)
80000990:	00001025 	move	v0,zero
80000994:	8fb50030 	lw	s5,48(sp)
80000998:	8fb4002c 	lw	s4,44(sp)
8000099c:	8fb30028 	lw	s3,40(sp)
800009a0:	8fb20024 	lw	s2,36(sp)
800009a4:	8fb10020 	lw	s1,32(sp)
800009a8:	8fb0001c 	lw	s0,28(sp)
800009ac:	27bd0038 	addiu	sp,sp,56
800009b0:	03e00008 	jr	ra
800009b4:	00000000 	nop
800009b8:	02501021 	addu	v0,s2,s0
800009bc:	24050001 	li	a1,1
800009c0:	80430001 	lb	v1,1(v0)
800009c4:	00000000 	nop
800009c8:	2462ffdb 	addiu	v0,v1,-37
800009cc:	304200ff 	andi	v0,v0,0xff
800009d0:	2c440054 	sltiu	a0,v0,84
800009d4:	10800024 	beqz	a0,80000a68 <printf+0x170>
800009d8:	00000000 	nop
800009dc:	00021080 	sll	v0,v0,0x2
800009e0:	02a21021 	addu	v0,s5,v0
800009e4:	8c420000 	lw	v0,0(v0)
800009e8:	00000000 	nop
800009ec:	00400008 	jr	v0
800009f0:	00000000 	nop
800009f4:	26100001 	addiu	s0,s0,1
800009f8:	02501021 	addu	v0,s2,s0
800009fc:	80430001 	lb	v1,1(v0)
80000a00:	00000000 	nop
80000a04:	2462ffcf 	addiu	v0,v1,-49
80000a08:	304200ff 	andi	v0,v0,0xff
80000a0c:	2c420009 	sltiu	v0,v0,9
80000a10:	10400069 	beqz	v0,80000bb8 <printf+0x2c0>
80000a14:	00000000 	nop
80000a18:	02503021 	addu	a2,s2,s0
80000a1c:	00002825 	move	a1,zero
80000a20:	2467ffd0 	addiu	a3,v1,-48
80000a24:	80c30002 	lb	v1,2(a2)
80000a28:	00052040 	sll	a0,a1,0x1
80000a2c:	000528c0 	sll	a1,a1,0x3
80000a30:	2462ffcf 	addiu	v0,v1,-49
80000a34:	00852821 	addu	a1,a0,a1
80000a38:	304200ff 	andi	v0,v0,0xff
80000a3c:	2c420009 	sltiu	v0,v0,9
80000a40:	00e52821 	addu	a1,a3,a1
80000a44:	26100001 	addiu	s0,s0,1
80000a48:	24c60001 	addiu	a2,a2,1
80000a4c:	1440fff4 	bnez	v0,80000a20 <printf+0x128>
80000a50:	00000000 	nop
80000a54:	2462ffdb 	addiu	v0,v1,-37
80000a58:	304200ff 	andi	v0,v0,0xff
80000a5c:	2c440054 	sltiu	a0,v0,84
80000a60:	1480ffde 	bnez	a0,800009dc <printf+0xe4>
80000a64:	00000000 	nop
80000a68:	24040025 	li	a0,37
80000a6c:	0c00039c 	jal	80000e70 <putchar>
80000a70:	00000000 	nop
80000a74:	1000ffbf 	b	80000974 <printf+0x7c>
80000a78:	00000000 	nop
80000a7c:	2404000d 	li	a0,13
80000a80:	0c00039c 	jal	80000e70 <putchar>
80000a84:	00000000 	nop
80000a88:	1000ffb7 	b	80000968 <printf+0x70>
80000a8c:	00000000 	nop
80000a90:	8e840000 	lw	a0,0(s4)
80000a94:	00003825 	move	a3,zero
80000a98:	2406000a 	li	a2,10
80000a9c:	26940004 	addiu	s4,s4,4
80000aa0:	0c0001c7 	jal	8000071c <printnum2>
80000aa4:	00000000 	nop
80000aa8:	26100001 	addiu	s0,s0,1
80000aac:	1000ffb1 	b	80000974 <printf+0x7c>
80000ab0:	00000000 	nop
80000ab4:	8e840000 	lw	a0,0(s4)
80000ab8:	26100001 	addiu	s0,s0,1
80000abc:	26940004 	addiu	s4,s4,4
80000ac0:	0c000364 	jal	80000d90 <putstring>
80000ac4:	00000000 	nop
80000ac8:	1000ffaa 	b	80000974 <printf+0x7c>
80000acc:	00000000 	nop
80000ad0:	8e840000 	lw	a0,0(s4)
80000ad4:	00003825 	move	a3,zero
80000ad8:	24060010 	li	a2,16
80000adc:	26940004 	addiu	s4,s4,4
80000ae0:	0c0001c7 	jal	8000071c <printnum2>
80000ae4:	00000000 	nop
80000ae8:	26100001 	addiu	s0,s0,1
80000aec:	1000ffa1 	b	80000974 <printf+0x7c>
80000af0:	00000000 	nop
80000af4:	8e840000 	lw	a0,0(s4)
80000af8:	00003825 	move	a3,zero
80000afc:	24060008 	li	a2,8
80000b00:	26940004 	addiu	s4,s4,4
80000b04:	0c0001c7 	jal	8000071c <printnum2>
80000b08:	00000000 	nop
80000b0c:	26100001 	addiu	s0,s0,1
80000b10:	1000ff98 	b	80000974 <printf+0x7c>
80000b14:	00000000 	nop
80000b18:	8e840000 	lw	a0,0(s4)
80000b1c:	00003825 	move	a3,zero
80000b20:	2406000a 	li	a2,10
80000b24:	26940004 	addiu	s4,s4,4
80000b28:	0c0001c7 	jal	8000071c <printnum2>
80000b2c:	00000000 	nop
80000b30:	26100002 	addiu	s0,s0,2
80000b34:	1000ff8f 	b	80000974 <printf+0x7c>
80000b38:	00000000 	nop
80000b3c:	8e840000 	lw	a0,0(s4)
80000b40:	24070001 	li	a3,1
80000b44:	2406000a 	li	a2,10
80000b48:	26940004 	addiu	s4,s4,4
80000b4c:	0c0001c7 	jal	8000071c <printnum2>
80000b50:	00000000 	nop
80000b54:	26100001 	addiu	s0,s0,1
80000b58:	1000ff86 	b	80000974 <printf+0x7c>
80000b5c:	00000000 	nop
80000b60:	8e840000 	lw	a0,0(s4)
80000b64:	26100001 	addiu	s0,s0,1
80000b68:	26940004 	addiu	s4,s4,4
80000b6c:	0c00039c 	jal	80000e70 <putchar>
80000b70:	00000000 	nop
80000b74:	1000ff7f 	b	80000974 <printf+0x7c>
80000b78:	00000000 	nop
80000b7c:	8e840000 	lw	a0,0(s4)
80000b80:	00003825 	move	a3,zero
80000b84:	24060002 	li	a2,2
80000b88:	26940004 	addiu	s4,s4,4
80000b8c:	0c0001c7 	jal	8000071c <printnum2>
80000b90:	00000000 	nop
80000b94:	26100001 	addiu	s0,s0,1
80000b98:	1000ff76 	b	80000974 <printf+0x7c>
80000b9c:	00000000 	nop
80000ba0:	24040025 	li	a0,37
80000ba4:	26100001 	addiu	s0,s0,1
80000ba8:	0c00039c 	jal	80000e70 <putchar>
80000bac:	00000000 	nop
80000bb0:	1000ff70 	b	80000974 <printf+0x7c>
80000bb4:	00000000 	nop
80000bb8:	00002825 	move	a1,zero
80000bbc:	1000ff82 	b	800009c8 <printf+0xd0>
80000bc0:	00000000 	nop
	...

80000bd0 <_get_count>:
_get_count():
80000bd0:	3c02bfd0 	lui	v0,0xbfd0
80000bd4:	8c420500 	lw	v0,1280(v0)
80000bd8:	03e00008 	jr	ra
80000bdc:	00000000 	nop

80000be0 <get_count>:
get_count():
80000be0:	3c02bfd0 	lui	v0,0xbfd0
80000be4:	8c420500 	lw	v0,1280(v0)
80000be8:	03e00008 	jr	ra
80000bec:	00000000 	nop

80000bf0 <clock_gettime>:
clock_gettime():
80000bf0:	3c02bfd0 	lui	v0,0xbfd0
80000bf4:	27bdffe8 	addiu	sp,sp,-24
80000bf8:	00a05825 	move	t3,a1
80000bfc:	8c4c0500 	lw	t4,1280(v0)
80000c00:	3c021062 	lui	v0,0x1062
80000c04:	afbf0014 	sw	ra,20(sp)
80000c08:	3c048000 	lui	a0,0x8000
80000c0c:	24424dd3 	addiu	v0,v0,19923
80000c10:	aca00000 	sw	zero,0(a1)
80000c14:	00003025 	move	a2,zero
80000c18:	01820019 	multu	t4,v0
80000c1c:	000c6040 	sll	t4,t4,0x1
80000c20:	24841060 	addiu	a0,a0,4192
80000c24:	00003810 	mfhi	a3
	...
80000c30:	01820019 	multu	t4,v0
80000c34:	00002810 	mfhi	a1
80000c38:	00073982 	srl	a3,a3,0x6
80000c3c:	00073840 	sll	a3,a3,0x1
80000c40:	00e20019 	multu	a3,v0
80000c44:	00052982 	srl	a1,a1,0x6
80000c48:	000541c0 	sll	t0,a1,0x7
80000c4c:	00001810 	mfhi	v1
80000c50:	00055080 	sll	t2,a1,0x2
80000c54:	010a5023 	subu	t2,t0,t2
80000c58:	01452821 	addu	a1,t2,a1
80000c5c:	00031982 	srl	v1,v1,0x6
80000c60:	000528c0 	sll	a1,a1,0x3
80000c64:	00620019 	multu	v1,v0
80000c68:	000341c0 	sll	t0,v1,0x7
80000c6c:	00034880 	sll	t1,v1,0x2
80000c70:	01852823 	subu	a1,t4,a1
80000c74:	00001010 	mfhi	v0
80000c78:	01094823 	subu	t1,t0,t1
80000c7c:	ad650004 	sw	a1,4(t3)
80000c80:	01234821 	addu	t1,t1,v1
80000c84:	00021182 	srl	v0,v0,0x6
80000c88:	00025080 	sll	t2,v0,0x2
80000c8c:	000241c0 	sll	t0,v0,0x7
80000c90:	010a4023 	subu	t0,t0,t2
80000c94:	01021021 	addu	v0,t0,v0
80000c98:	000940c0 	sll	t0,t1,0x3
80000c9c:	000210c0 	sll	v0,v0,0x3
80000ca0:	00e83823 	subu	a3,a3,t0
80000ca4:	00621823 	subu	v1,v1,v0
80000ca8:	ad670008 	sw	a3,8(t3)
80000cac:	ad63000c 	sw	v1,12(t3)
80000cb0:	0c00023e 	jal	800008f8 <printf>
80000cb4:	00000000 	nop
80000cb8:	00001025 	move	v0,zero
80000cbc:	8fbf0014 	lw	ra,20(sp)
80000cc0:	27bd0018 	addiu	sp,sp,24
80000cc4:	03e00008 	jr	ra
80000cc8:	00000000 	nop

80000ccc <get_clock>:
get_clock():
80000ccc:	3c02bfd0 	lui	v0,0xbfd0
80000cd0:	8c420500 	lw	v0,1280(v0)
80000cd4:	00000000 	nop
80000cd8:	00021040 	sll	v0,v0,0x1
80000cdc:	03e00008 	jr	ra
80000ce0:	00000000 	nop

80000ce4 <get_us>:
get_us():
80000ce4:	3c02bfd0 	lui	v0,0xbfd0
80000ce8:	8c420600 	lw	v0,1536(v0)
80000cec:	03e00008 	jr	ra
80000cf0:	00000000 	nop

80000cf4 <get_inst>:
get_inst():
80000cf4:	3c02bfd0 	lui	v0,0xbfd0
80000cf8:	8c420700 	lw	v0,1792(v0)
80000cfc:	03e00008 	jr	ra
80000d00:	00000000 	nop

80000d04 <get_ns>:
get_ns():
80000d04:	3c02bfd0 	lui	v0,0xbfd0
80000d08:	8c440600 	lw	a0,1536(v0)
80000d0c:	00000000 	nop
80000d10:	00041080 	sll	v0,a0,0x2
80000d14:	000419c0 	sll	v1,a0,0x7
80000d18:	00621023 	subu	v0,v1,v0
80000d1c:	00441021 	addu	v0,v0,a0
80000d20:	000210c0 	sll	v0,v0,0x3
80000d24:	03e00008 	jr	ra
80000d28:	00000000 	nop
80000d2c:	00000000 	nop

80000d30 <get_epc>:
get_epc():
80000d30:	40027000 	mfc0	v0,c0_epc
80000d34:	03e00008 	jr	ra
80000d38:	00000000 	nop

80000d3c <get_cause>:
get_cause():
80000d3c:	40026800 	mfc0	v0,c0_cause
80000d40:	03e00008 	jr	ra
80000d44:	00000000 	nop

80000d48 <exception>:
exception():
80000d48:	3c048000 	lui	a0,0x8000
80000d4c:	27bdffe8 	addiu	sp,sp,-24
80000d50:	24841074 	addiu	a0,a0,4212
80000d54:	afbf0014 	sw	ra,20(sp)
80000d58:	0c00023e 	jal	800008f8 <printf>
80000d5c:	00000000 	nop
80000d60:	3c048000 	lui	a0,0x8000
80000d64:	40057000 	mfc0	a1,c0_epc
80000d68:	24841090 	addiu	a0,a0,4240
80000d6c:	0c00023e 	jal	800008f8 <printf>
80000d70:	00000000 	nop
80000d74:	3c048000 	lui	a0,0x8000
80000d78:	8fbf0014 	lw	ra,20(sp)
80000d7c:	27bd0018 	addiu	sp,sp,24
80000d80:	248410a0 	addiu	a0,a0,4256
80000d84:	40056800 	mfc0	a1,c0_cause
80000d88:	0800023e 	j	800008f8 <printf>
80000d8c:	00000000 	nop

80000d90 <putstring>:
putstring():
80000d90:	27bdffe0 	addiu	sp,sp,-32
80000d94:	afbf001c 	sw	ra,28(sp)
80000d98:	afb20018 	sw	s2,24(sp)
80000d9c:	afb10014 	sw	s1,20(sp)
80000da0:	afb00010 	sw	s0,16(sp)
80000da4:	80900000 	lb	s0,0(a0)
80000da8:	00000000 	nop
80000dac:	12000019 	beqz	s0,80000e14 <putstring+0x84>
80000db0:	00000000 	nop
80000db4:	00808825 	move	s1,a0
80000db8:	2412000a 	li	s2,10
80000dbc:	10000008 	b	80000de0 <putstring+0x50>
80000dc0:	00000000 	nop
80000dc4:	02002025 	move	a0,s0
80000dc8:	0c00039c 	jal	80000e70 <putchar>
80000dcc:	00000000 	nop
80000dd0:	82300000 	lb	s0,0(s1)
80000dd4:	00000000 	nop
80000dd8:	1200000e 	beqz	s0,80000e14 <putstring+0x84>
80000ddc:	00000000 	nop
80000de0:	26310001 	addiu	s1,s1,1
80000de4:	1612fff7 	bne	s0,s2,80000dc4 <putstring+0x34>
80000de8:	00000000 	nop
80000dec:	2404000d 	li	a0,13
80000df0:	0c00039c 	jal	80000e70 <putchar>
80000df4:	00000000 	nop
80000df8:	02002025 	move	a0,s0
80000dfc:	0c00039c 	jal	80000e70 <putchar>
80000e00:	00000000 	nop
80000e04:	82300000 	lb	s0,0(s1)
80000e08:	00000000 	nop
80000e0c:	1600fff4 	bnez	s0,80000de0 <putstring+0x50>
80000e10:	00000000 	nop
80000e14:	8fbf001c 	lw	ra,28(sp)
80000e18:	00001025 	move	v0,zero
80000e1c:	8fb20018 	lw	s2,24(sp)
80000e20:	8fb10014 	lw	s1,20(sp)
80000e24:	8fb00010 	lw	s0,16(sp)
80000e28:	27bd0020 	addiu	sp,sp,32
80000e2c:	03e00008 	jr	ra
80000e30:	00000000 	nop

80000e34 <puts>:
puts():
80000e34:	27bdffe8 	addiu	sp,sp,-24
80000e38:	afbf0014 	sw	ra,20(sp)
80000e3c:	0c000364 	jal	80000d90 <putstring>
80000e40:	00000000 	nop
80000e44:	2404000d 	li	a0,13
80000e48:	0c00039c 	jal	80000e70 <putchar>
80000e4c:	00000000 	nop
80000e50:	2404000a 	li	a0,10
80000e54:	0c00039c 	jal	80000e70 <putchar>
80000e58:	00000000 	nop
80000e5c:	00001025 	move	v0,zero
80000e60:	8fbf0014 	lw	ra,20(sp)
80000e64:	27bd0018 	addiu	sp,sp,24
80000e68:	03e00008 	jr	ra
80000e6c:	00000000 	nop

80000e70 <putchar>:
putchar():
80000e70:	3c03bfd0 	lui	v1,0xbfd0
80000e74:	8c6203fc 	lw	v0,1020(v1)
80000e78:	00000000 	nop
80000e7c:	30420001 	andi	v0,v0,0x1
80000e80:	1040fffb 	beqz	v0,80000e70 <putchar>
80000e84:	00000000 	nop
80000e88:	10800002 	beqz	a0,80000e94 <putchar+0x24>
80000e8c:	00000000 	nop
80000e90:	ac6403f8 	sw	a0,1016(v1)
80000e94:	00001025 	move	v0,zero
80000e98:	03e00008 	jr	ra
80000e9c:	00000000 	nop

80000ea0 <tgt_putchar>:
tgt_putchar():
80000ea0:	3c03bfd0 	lui	v1,0xbfd0
80000ea4:	8c6203fc 	lw	v0,1020(v1)
80000ea8:	00000000 	nop
80000eac:	30420001 	andi	v0,v0,0x1
80000eb0:	1040fffb 	beqz	v0,80000ea0 <tgt_putchar>
80000eb4:	00000000 	nop
80000eb8:	10800002 	beqz	a0,80000ec4 <tgt_putchar+0x24>
80000ebc:	00000000 	nop
80000ec0:	ac6403f8 	sw	a0,1016(v1)
80000ec4:	03e00008 	jr	ra
80000ec8:	00000000 	nop
80000ecc:	00000000 	nop
80000ed0:	65727473 	0x65727473
80000ed4:	63206d61 	0x63206d61
80000ed8:	2079706f 	addi	t9,v1,28783
80000edc:	4f525245 	c3	0x1525245
80000ee0:	00002152 	0x2152
80000ee4:	656d6954 	0x656d6954
80000ee8:	7525203a 	jalx	849480e8 <_stack+0x4846108>
80000eec:	63796320 	0x63796320
80000ef0:	2c73656c 	sltiu	s3,v1,25964
80000ef4:	20752520 	addi	s5,v1,9504
80000ef8:	202c7375 	addi	t4,at,29557
80000efc:	69207525 	0x69207525
80000f00:	0a74736e 	j	89d1cdb8 <_stack+0x9c1add8>
80000f04:	00000000 	nop
	...
80000f10:	80000ba0 	lb	zero,2976(zero)
80000f14:	80000a68 	lb	zero,2664(zero)
80000f18:	80000a68 	lb	zero,2664(zero)
80000f1c:	80000a68 	lb	zero,2664(zero)
80000f20:	80000a68 	lb	zero,2664(zero)
80000f24:	80000a68 	lb	zero,2664(zero)
80000f28:	80000a68 	lb	zero,2664(zero)
80000f2c:	80000a68 	lb	zero,2664(zero)
80000f30:	80000a68 	lb	zero,2664(zero)
80000f34:	80000a68 	lb	zero,2664(zero)
80000f38:	80000a68 	lb	zero,2664(zero)
80000f3c:	800009f4 	lb	zero,2548(zero)
80000f40:	80000a04 	lb	zero,2564(zero)
80000f44:	80000a04 	lb	zero,2564(zero)
80000f48:	80000a04 	lb	zero,2564(zero)
80000f4c:	80000a04 	lb	zero,2564(zero)
80000f50:	80000a04 	lb	zero,2564(zero)
80000f54:	80000a04 	lb	zero,2564(zero)
80000f58:	80000a04 	lb	zero,2564(zero)
80000f5c:	80000a04 	lb	zero,2564(zero)
80000f60:	80000a04 	lb	zero,2564(zero)
80000f64:	80000a68 	lb	zero,2664(zero)
80000f68:	80000a68 	lb	zero,2664(zero)
80000f6c:	80000a68 	lb	zero,2664(zero)
80000f70:	80000a68 	lb	zero,2664(zero)
80000f74:	80000a68 	lb	zero,2664(zero)
80000f78:	80000a68 	lb	zero,2664(zero)
80000f7c:	80000a68 	lb	zero,2664(zero)
80000f80:	80000a68 	lb	zero,2664(zero)
80000f84:	80000a68 	lb	zero,2664(zero)
80000f88:	80000a68 	lb	zero,2664(zero)
80000f8c:	80000a68 	lb	zero,2664(zero)
80000f90:	80000a68 	lb	zero,2664(zero)
80000f94:	80000a68 	lb	zero,2664(zero)
80000f98:	80000a68 	lb	zero,2664(zero)
80000f9c:	80000a68 	lb	zero,2664(zero)
80000fa0:	80000a68 	lb	zero,2664(zero)
80000fa4:	80000a68 	lb	zero,2664(zero)
80000fa8:	80000a68 	lb	zero,2664(zero)
80000fac:	80000a68 	lb	zero,2664(zero)
80000fb0:	80000a68 	lb	zero,2664(zero)
80000fb4:	80000a68 	lb	zero,2664(zero)
80000fb8:	80000a68 	lb	zero,2664(zero)
80000fbc:	80000a68 	lb	zero,2664(zero)
80000fc0:	80000a68 	lb	zero,2664(zero)
80000fc4:	80000a68 	lb	zero,2664(zero)
80000fc8:	80000a68 	lb	zero,2664(zero)
80000fcc:	80000a68 	lb	zero,2664(zero)
80000fd0:	80000a68 	lb	zero,2664(zero)
80000fd4:	80000a68 	lb	zero,2664(zero)
80000fd8:	80000a68 	lb	zero,2664(zero)
80000fdc:	80000a68 	lb	zero,2664(zero)
80000fe0:	80000a68 	lb	zero,2664(zero)
80000fe4:	80000a68 	lb	zero,2664(zero)
80000fe8:	80000a68 	lb	zero,2664(zero)
80000fec:	80000a68 	lb	zero,2664(zero)
80000ff0:	80000a68 	lb	zero,2664(zero)
80000ff4:	80000a68 	lb	zero,2664(zero)
80000ff8:	80000a68 	lb	zero,2664(zero)
80000ffc:	80000a68 	lb	zero,2664(zero)
80001000:	80000a68 	lb	zero,2664(zero)
80001004:	80000b7c 	lb	zero,2940(zero)
80001008:	80000b60 	lb	zero,2912(zero)
8000100c:	80000b3c 	lb	zero,2876(zero)
80001010:	80000a68 	lb	zero,2664(zero)
80001014:	80000a68 	lb	zero,2664(zero)
80001018:	80000a68 	lb	zero,2664(zero)
8000101c:	80000a68 	lb	zero,2664(zero)
80001020:	80000a68 	lb	zero,2664(zero)
80001024:	80000a68 	lb	zero,2664(zero)
80001028:	80000a68 	lb	zero,2664(zero)
8000102c:	80000b18 	lb	zero,2840(zero)
80001030:	80000a68 	lb	zero,2664(zero)
80001034:	80000a68 	lb	zero,2664(zero)
80001038:	80000af4 	lb	zero,2804(zero)
8000103c:	80000ad0 	lb	zero,2768(zero)
80001040:	80000a68 	lb	zero,2664(zero)
80001044:	80000a68 	lb	zero,2664(zero)
80001048:	80000ab4 	lb	zero,2740(zero)
8000104c:	80000a68 	lb	zero,2664(zero)
80001050:	80000a90 	lb	zero,2704(zero)
80001054:	80000a68 	lb	zero,2664(zero)
80001058:	80000a68 	lb	zero,2664(zero)
8000105c:	80000ad0 	lb	zero,2768(zero)
80001060:	636f6c63 	0x636f6c63
80001064:	736e206b 	0x736e206b
80001068:	2c64253d 	sltiu	a0,v1,9533
8000106c:	3d636573 	0x3d636573
80001070:	000a6425 	0xa6425
80001074:	72656854 	0x72656854
80001078:	73692065 	0x73692065
8000107c:	206e6120 	addi	t6,v1,24864
80001080:	65637865 	0x65637865
80001084:	6f697470 	0x6f697470
80001088:	0a21216e 	j	888485b8 <_stack+0x87465d8>
8000108c:	00000000 	nop
80001090:	20656854 	addi	a1,v1,26708
80001094:	20637065 	addi	v1,v1,28773
80001098:	25207369 	addiu	zero,t1,29545
8000109c:	00000a78 	0xa78
800010a0:	20656854 	addi	a1,v1,26708
800010a4:	73756163 	0x73756163
800010a8:	73692065 	0x73692065
800010ac:	0a782520 	j	89e09480 <_stack+0x9d074a0>
800010b0:	00000000 	nop
800010b4:	b0000702 	0xb0000702
	...
800010d0:	00010000 	sll	zero,at,0x0
800010d4:	03000001 	0x3000001
	...
