
obj/quick_sort/main.elf:     file format elf32-tradlittlemips
obj/quick_sort/main.elf


Disassembly of section .text:

80000000 <_ftext>:
_ftext():
80000000:	3c0a0040 	lui	t2,0x40
80000004:	408a6000 	mtc0	t2,c0_sr
80000008:	40806800 	mtc0	zero,c0_cause
8000000c:	3c1d8010 	lui	sp,0x8010
80000010:	27bd4fe0 	addiu	sp,sp,20448
80000014:	3c1c8001 	lui	gp,0x8001
80000018:	279cef30 	addiu	gp,gp,-4304
8000001c:	041100dc 	bal	80000390 <shell>
80000020:	00000000 	nop

80000024 <loop>:
loop():
80000024:	3c08bfd0 	lui	t0,0xbfd0
80000028:	8d090500 	lw	t1,1280(t0)
8000002c:	3c0a8000 	lui	t2,0x8000
80000030:	ad490000 	sw	t1,0(t2)
80000034:	08000009 	j	80000024 <loop>
80000038:	00000000 	nop

8000003c <exit>:
exit():
8000003c:	340900ff 	li	t1,0xff
80000040:	3c018000 	lui	at,0x8000
80000044:	a0297ffc 	sb	t1,32764(at)
	...
80000380:	0c00107e 	jal	800041f8 <exception>
80000384:	00000000 	nop
80000388:	0800000f 	j	8000003c <exit>
8000038c:	00000000 	nop

80000390 <shell>:
shell():
80000390:	27bdffd0 	addiu	sp,sp,-48
80000394:	afbf002c 	sw	ra,44(sp)
80000398:	afb50028 	sw	s5,40(sp)
8000039c:	afb40024 	sw	s4,36(sp)
800003a0:	afb30020 	sw	s3,32(sp)
800003a4:	afb2001c 	sw	s2,28(sp)
800003a8:	afb10018 	sw	s1,24(sp)
800003ac:	afb00014 	sw	s0,20(sp)
800003b0:	0c001024 	jal	80004090 <get_count>
800003b4:	00000000 	nop
800003b8:	00408025 	move	s0,v0
800003bc:	0c001069 	jal	800041a4 <get_inst>
800003c0:	00000000 	nop
800003c4:	00409025 	move	s2,v0
800003c8:	0c001065 	jal	80004194 <get_us>
800003cc:	00000000 	nop
800003d0:	3c048000 	lui	a0,0x8000
800003d4:	240503e8 	li	a1,1000
800003d8:	24845fa0 	addiu	a0,a0,24480
800003dc:	00408825 	move	s1,v0
800003e0:	0c000d3c 	jal	800034f0 <quick_sort>
800003e4:	00000000 	nop
800003e8:	0040a825 	move	s5,v0
800003ec:	0c001024 	jal	80004090 <get_count>
800003f0:	00000000 	nop
800003f4:	0040a025 	move	s4,v0
800003f8:	0c001069 	jal	800041a4 <get_inst>
800003fc:	00000000 	nop
80000400:	00409825 	move	s3,v0
80000404:	0c001065 	jal	80004194 <get_us>
80000408:	00000000 	nop
8000040c:	00518823 	subu	s1,v0,s1
80000410:	3c028000 	lui	v0,0x8000
80000414:	02908023 	subu	s0,s4,s0
80000418:	02729023 	subu	s2,s3,s2
8000041c:	24445000 	addiu	a0,v0,20480
80000420:	26a60fa0 	addiu	a2,s5,4000
80000424:	02a01825 	move	v1,s5
80000428:	8c690000 	lw	t1,0(v1)
8000042c:	8c880000 	lw	t0,0(a0)
80000430:	00000000 	nop
80000434:	15280036 	bne	t1,t0,80000510 <shell+0x180>
80000438:	00000000 	nop
8000043c:	8c650004 	lw	a1,4(v1)
80000440:	8c870004 	lw	a3,4(a0)
80000444:	00000000 	nop
80000448:	14a70031 	bne	a1,a3,80000510 <shell+0x180>
8000044c:	00000000 	nop
80000450:	8c6a0008 	lw	t2,8(v1)
80000454:	8c8b0008 	lw	t3,8(a0)
80000458:	00000000 	nop
8000045c:	154b002c 	bne	t2,t3,80000510 <shell+0x180>
80000460:	00000000 	nop
80000464:	8c6c000c 	lw	t4,12(v1)
80000468:	8c8d000c 	lw	t5,12(a0)
8000046c:	00000000 	nop
80000470:	158d0027 	bne	t4,t5,80000510 <shell+0x180>
80000474:	00000000 	nop
80000478:	8c6e0010 	lw	t6,16(v1)
8000047c:	8c8f0010 	lw	t7,16(a0)
80000480:	00000000 	nop
80000484:	15cf0022 	bne	t6,t7,80000510 <shell+0x180>
80000488:	00000000 	nop
8000048c:	8c780014 	lw	t8,20(v1)
80000490:	8c990014 	lw	t9,20(a0)
80000494:	00000000 	nop
80000498:	1719001d 	bne	t8,t9,80000510 <shell+0x180>
8000049c:	00000000 	nop
800004a0:	8c7f0018 	lw	ra,24(v1)
800004a4:	8c950018 	lw	s5,24(a0)
800004a8:	00000000 	nop
800004ac:	17f50018 	bne	ra,s5,80000510 <shell+0x180>
800004b0:	00000000 	nop
800004b4:	8c74001c 	lw	s4,28(v1)
800004b8:	24840020 	addiu	a0,a0,32
800004bc:	8c93fffc 	lw	s3,-4(a0)
800004c0:	24630020 	addiu	v1,v1,32
800004c4:	16930012 	bne	s4,s3,80000510 <shell+0x180>
800004c8:	00000000 	nop
800004cc:	1466ffd6 	bne	v1,a2,80000428 <shell+0x98>
800004d0:	00000000 	nop
800004d4:	02403825 	move	a3,s2
800004d8:	8fbf002c 	lw	ra,44(sp)
800004dc:	3c128000 	lui	s2,0x8000
800004e0:	8fb50028 	lw	s5,40(sp)
800004e4:	8fb40024 	lw	s4,36(sp)
800004e8:	02203025 	move	a2,s1
800004ec:	8fb30020 	lw	s3,32(sp)
800004f0:	26444394 	addiu	a0,s2,17300
800004f4:	8fb10018 	lw	s1,24(sp)
800004f8:	02002825 	move	a1,s0
800004fc:	8fb2001c 	lw	s2,28(sp)
80000500:	8fb00014 	lw	s0,20(sp)
80000504:	27bd0030 	addiu	sp,sp,48
80000508:	08000f6a 	j	80003da8 <printf>
8000050c:	00000000 	nop
80000510:	3c028000 	lui	v0,0x8000
80000514:	24444380 	addiu	a0,v0,17280
80000518:	0c0010b9 	jal	800042e4 <puts>
8000051c:	00000000 	nop
80000520:	1000ffec 	b	800004d4 <shell+0x144>
80000524:	00000000 	nop
	...

80000530 <partition>:
partition():
80000530:	00056080 	sll	t4,a1,0x2
80000534:	00a6182a 	slt	v1,a1,a2
80000538:	008c3821 	addu	a3,a0,t4
8000053c:	00a01025 	move	v0,a1
80000540:	8ce50000 	lw	a1,0(a3)
80000544:	1060009c 	beqz	v1,800007b8 <partition+0x288>
80000548:	00000000 	nop
8000054c:	00064080 	sll	t0,a2,0x2
80000550:	00023827 	nor	a3,zero,v0
80000554:	00881821 	addu	v1,a0,t0
80000558:	00e65021 	addu	t2,a3,a2
8000055c:	00604825 	move	t1,v1
80000560:	8c680000 	lw	t0,0(v1)
80000564:	314b0007 	andi	t3,t2,0x7
80000568:	00a8682a 	slt	t5,a1,t0
8000056c:	11a00098 	beqz	t5,800007d0 <partition+0x2a0>
80000570:	00000000 	nop
80000574:	24c6ffff 	addiu	a2,a2,-1
80000578:	2463fffc 	addiu	v1,v1,-4
8000057c:	0046482a 	slt	t1,v0,a2
80000580:	11200086 	beqz	t1,8000079c <partition+0x26c>
80000584:	00000000 	nop
80000588:	11600047 	beqz	t3,800006a8 <partition+0x178>
8000058c:	00000000 	nop
80000590:	240e0001 	li	t6,1
80000594:	116e003a 	beq	t3,t6,80000680 <partition+0x150>
80000598:	00000000 	nop
8000059c:	240f0002 	li	t7,2
800005a0:	116f0030 	beq	t3,t7,80000664 <partition+0x134>
800005a4:	00000000 	nop
800005a8:	24180003 	li	t8,3
800005ac:	11780026 	beq	t3,t8,80000648 <partition+0x118>
800005b0:	00000000 	nop
800005b4:	24190004 	li	t9,4
800005b8:	1179001c 	beq	t3,t9,8000062c <partition+0xfc>
800005bc:	00000000 	nop
800005c0:	24080005 	li	t0,5
800005c4:	11680012 	beq	t3,t0,80000610 <partition+0xe0>
800005c8:	00000000 	nop
800005cc:	24070006 	li	a3,6
800005d0:	11670008 	beq	t3,a3,800005f4 <partition+0xc4>
800005d4:	00000000 	nop
800005d8:	8c680000 	lw	t0,0(v1)
800005dc:	00604825 	move	t1,v1
800005e0:	00a8502a 	slt	t2,a1,t0
800005e4:	1140007a 	beqz	t2,800007d0 <partition+0x2a0>
800005e8:	00000000 	nop
800005ec:	24c6ffff 	addiu	a2,a2,-1
800005f0:	2463fffc 	addiu	v1,v1,-4
800005f4:	8c680000 	lw	t0,0(v1)
800005f8:	00604825 	move	t1,v1
800005fc:	00a8582a 	slt	t3,a1,t0
80000600:	11600073 	beqz	t3,800007d0 <partition+0x2a0>
80000604:	00000000 	nop
80000608:	24c6ffff 	addiu	a2,a2,-1
8000060c:	2463fffc 	addiu	v1,v1,-4
80000610:	8c680000 	lw	t0,0(v1)
80000614:	00604825 	move	t1,v1
80000618:	00a8682a 	slt	t5,a1,t0
8000061c:	11a0006c 	beqz	t5,800007d0 <partition+0x2a0>
80000620:	00000000 	nop
80000624:	24c6ffff 	addiu	a2,a2,-1
80000628:	2463fffc 	addiu	v1,v1,-4
8000062c:	8c680000 	lw	t0,0(v1)
80000630:	00604825 	move	t1,v1
80000634:	00a8702a 	slt	t6,a1,t0
80000638:	11c00065 	beqz	t6,800007d0 <partition+0x2a0>
8000063c:	00000000 	nop
80000640:	24c6ffff 	addiu	a2,a2,-1
80000644:	2463fffc 	addiu	v1,v1,-4
80000648:	8c680000 	lw	t0,0(v1)
8000064c:	00604825 	move	t1,v1
80000650:	00a8782a 	slt	t7,a1,t0
80000654:	11e0005e 	beqz	t7,800007d0 <partition+0x2a0>
80000658:	00000000 	nop
8000065c:	24c6ffff 	addiu	a2,a2,-1
80000660:	2463fffc 	addiu	v1,v1,-4
80000664:	8c680000 	lw	t0,0(v1)
80000668:	00604825 	move	t1,v1
8000066c:	00a8c02a 	slt	t8,a1,t0
80000670:	13000057 	beqz	t8,800007d0 <partition+0x2a0>
80000674:	00000000 	nop
80000678:	24c6ffff 	addiu	a2,a2,-1
8000067c:	2463fffc 	addiu	v1,v1,-4
80000680:	8c680000 	lw	t0,0(v1)
80000684:	00604825 	move	t1,v1
80000688:	00a8c82a 	slt	t9,a1,t0
8000068c:	13200050 	beqz	t9,800007d0 <partition+0x2a0>
80000690:	00000000 	nop
80000694:	24c6ffff 	addiu	a2,a2,-1
80000698:	2463fffc 	addiu	v1,v1,-4
8000069c:	0046482a 	slt	t1,v0,a2
800006a0:	1120003e 	beqz	t1,8000079c <partition+0x26c>
800006a4:	00000000 	nop
800006a8:	8c680000 	lw	t0,0(v1)
800006ac:	00604825 	move	t1,v1
800006b0:	00a8382a 	slt	a3,a1,t0
800006b4:	10e00046 	beqz	a3,800007d0 <partition+0x2a0>
800006b8:	00000000 	nop
800006bc:	2463fffc 	addiu	v1,v1,-4
800006c0:	8c680000 	lw	t0,0(v1)
800006c4:	24c6ffff 	addiu	a2,a2,-1
800006c8:	00606825 	move	t5,v1
800006cc:	00a8582a 	slt	t3,a1,t0
800006d0:	00c05025 	move	t2,a2
800006d4:	00604825 	move	t1,v1
800006d8:	1160003d 	beqz	t3,800007d0 <partition+0x2a0>
800006dc:	00000000 	nop
800006e0:	2463fffc 	addiu	v1,v1,-4
800006e4:	8c680000 	lw	t0,0(v1)
800006e8:	24c6ffff 	addiu	a2,a2,-1
800006ec:	00604825 	move	t1,v1
800006f0:	00a8702a 	slt	t6,a1,t0
800006f4:	11c00036 	beqz	t6,800007d0 <partition+0x2a0>
800006f8:	00000000 	nop
800006fc:	8da8fff8 	lw	t0,-8(t5)
80000700:	25a3fff8 	addiu	v1,t5,-8
80000704:	2546fffe 	addiu	a2,t2,-2
80000708:	00604825 	move	t1,v1
8000070c:	00a8782a 	slt	t7,a1,t0
80000710:	11e0002f 	beqz	t7,800007d0 <partition+0x2a0>
80000714:	00000000 	nop
80000718:	8da8fff4 	lw	t0,-12(t5)
8000071c:	25a3fff4 	addiu	v1,t5,-12
80000720:	2546fffd 	addiu	a2,t2,-3
80000724:	00604825 	move	t1,v1
80000728:	00a8c02a 	slt	t8,a1,t0
8000072c:	13000028 	beqz	t8,800007d0 <partition+0x2a0>
80000730:	00000000 	nop
80000734:	8da8fff0 	lw	t0,-16(t5)
80000738:	25a3fff0 	addiu	v1,t5,-16
8000073c:	2546fffc 	addiu	a2,t2,-4
80000740:	00604825 	move	t1,v1
80000744:	00a8c82a 	slt	t9,a1,t0
80000748:	13200021 	beqz	t9,800007d0 <partition+0x2a0>
8000074c:	00000000 	nop
80000750:	8da8ffec 	lw	t0,-20(t5)
80000754:	25a3ffec 	addiu	v1,t5,-20
80000758:	2546fffb 	addiu	a2,t2,-5
8000075c:	00604825 	move	t1,v1
80000760:	00a8382a 	slt	a3,a1,t0
80000764:	10e0001a 	beqz	a3,800007d0 <partition+0x2a0>
80000768:	00000000 	nop
8000076c:	8da8ffe8 	lw	t0,-24(t5)
80000770:	25a3ffe8 	addiu	v1,t5,-24
80000774:	2546fffa 	addiu	a2,t2,-6
80000778:	00604825 	move	t1,v1
8000077c:	00a8582a 	slt	t3,a1,t0
80000780:	11600013 	beqz	t3,800007d0 <partition+0x2a0>
80000784:	00000000 	nop
80000788:	2546fff9 	addiu	a2,t2,-7
8000078c:	25a3ffe4 	addiu	v1,t5,-28
80000790:	0046582a 	slt	t3,v0,a2
80000794:	1560ffc4 	bnez	t3,800006a8 <partition+0x178>
80000798:	00000000 	nop
8000079c:	00063080 	sll	a2,a2,0x2
800007a0:	008c3821 	addu	a3,a0,t4
800007a4:	00864821 	addu	t1,a0,a2
800007a8:	8d280000 	lw	t0,0(t1)
800007ac:	00000000 	nop
800007b0:	ace80000 	sw	t0,0(a3)
800007b4:	ad280000 	sw	t0,0(t1)
800007b8:	ace50000 	sw	a1,0(a3)
800007bc:	03e00008 	jr	ra
800007c0:	00000000 	nop
	...
800007d0:	008c3821 	addu	a3,a0,t4
800007d4:	0046602a 	slt	t4,v0,a2
800007d8:	ace80000 	sw	t0,0(a3)
800007dc:	1180fff5 	beqz	t4,800007b4 <partition+0x284>
800007e0:	00000000 	nop
800007e4:	00026827 	nor	t5,zero,v0
800007e8:	01a65021 	addu	t2,t5,a2
800007ec:	314e0007 	andi	t6,t2,0x7
800007f0:	11c0003d 	beqz	t6,800008e8 <partition+0x3b8>
800007f4:	00000000 	nop
800007f8:	24e70004 	addiu	a3,a3,4
800007fc:	8ce80000 	lw	t0,0(a3)
80000800:	24420001 	addiu	v0,v0,1
80000804:	00a8782a 	slt	t7,a1,t0
80000808:	15e00064 	bnez	t7,8000099c <partition+0x46c>
8000080c:	00000000 	nop
80000810:	24180001 	li	t8,1
80000814:	11d80034 	beq	t6,t8,800008e8 <partition+0x3b8>
80000818:	00000000 	nop
8000081c:	24190002 	li	t9,2
80000820:	11d9002b 	beq	t6,t9,800008d0 <partition+0x3a0>
80000824:	00000000 	nop
80000828:	24080003 	li	t0,3
8000082c:	11c80022 	beq	t6,t0,800008b8 <partition+0x388>
80000830:	00000000 	nop
80000834:	24090004 	li	t1,4
80000838:	11c90019 	beq	t6,t1,800008a0 <partition+0x370>
8000083c:	00000000 	nop
80000840:	240b0005 	li	t3,5
80000844:	11cb0010 	beq	t6,t3,80000888 <partition+0x358>
80000848:	00000000 	nop
8000084c:	240c0006 	li	t4,6
80000850:	11cc0007 	beq	t6,t4,80000870 <partition+0x340>
80000854:	00000000 	nop
80000858:	8ce80004 	lw	t0,4(a3)
8000085c:	24420001 	addiu	v0,v0,1
80000860:	24e70004 	addiu	a3,a3,4
80000864:	00a8682a 	slt	t5,a1,t0
80000868:	15a0004c 	bnez	t5,8000099c <partition+0x46c>
8000086c:	00000000 	nop
80000870:	8ce80004 	lw	t0,4(a3)
80000874:	24420001 	addiu	v0,v0,1
80000878:	24e70004 	addiu	a3,a3,4
8000087c:	00a8502a 	slt	t2,a1,t0
80000880:	15400046 	bnez	t2,8000099c <partition+0x46c>
80000884:	00000000 	nop
80000888:	8ce80004 	lw	t0,4(a3)
8000088c:	24420001 	addiu	v0,v0,1
80000890:	24e70004 	addiu	a3,a3,4
80000894:	00a8702a 	slt	t6,a1,t0
80000898:	15c00040 	bnez	t6,8000099c <partition+0x46c>
8000089c:	00000000 	nop
800008a0:	8ce80004 	lw	t0,4(a3)
800008a4:	24420001 	addiu	v0,v0,1
800008a8:	24e70004 	addiu	a3,a3,4
800008ac:	00a8782a 	slt	t7,a1,t0
800008b0:	15e0003a 	bnez	t7,8000099c <partition+0x46c>
800008b4:	00000000 	nop
800008b8:	8ce80004 	lw	t0,4(a3)
800008bc:	24420001 	addiu	v0,v0,1
800008c0:	24e70004 	addiu	a3,a3,4
800008c4:	00a8c02a 	slt	t8,a1,t0
800008c8:	17000034 	bnez	t8,8000099c <partition+0x46c>
800008cc:	00000000 	nop
800008d0:	24e70004 	addiu	a3,a3,4
800008d4:	8ce80000 	lw	t0,0(a3)
800008d8:	24420001 	addiu	v0,v0,1
800008dc:	00a8c82a 	slt	t9,a1,t0
800008e0:	1720002e 	bnez	t9,8000099c <partition+0x46c>
800008e4:	00000000 	nop
800008e8:	24420001 	addiu	v0,v0,1
800008ec:	00405825 	move	t3,v0
800008f0:	1046002f 	beq	v0,a2,800009b0 <partition+0x480>
800008f4:	00000000 	nop
800008f8:	8ce80004 	lw	t0,4(a3)
800008fc:	00000000 	nop
80000900:	00a8482a 	slt	t1,a1,t0
80000904:	15200025 	bnez	t1,8000099c <partition+0x46c>
80000908:	00000000 	nop
8000090c:	8ce80008 	lw	t0,8(a3)
80000910:	24420001 	addiu	v0,v0,1
80000914:	00a8602a 	slt	t4,a1,t0
80000918:	15800020 	bnez	t4,8000099c <partition+0x46c>
8000091c:	00000000 	nop
80000920:	8ce8000c 	lw	t0,12(a3)
80000924:	25620002 	addiu	v0,t3,2
80000928:	00a8682a 	slt	t5,a1,t0
8000092c:	15a0001b 	bnez	t5,8000099c <partition+0x46c>
80000930:	00000000 	nop
80000934:	8ce80010 	lw	t0,16(a3)
80000938:	25620003 	addiu	v0,t3,3
8000093c:	00a8502a 	slt	t2,a1,t0
80000940:	15400016 	bnez	t2,8000099c <partition+0x46c>
80000944:	00000000 	nop
80000948:	8ce80014 	lw	t0,20(a3)
8000094c:	25620004 	addiu	v0,t3,4
80000950:	00a8702a 	slt	t6,a1,t0
80000954:	15c00011 	bnez	t6,8000099c <partition+0x46c>
80000958:	00000000 	nop
8000095c:	8ce80018 	lw	t0,24(a3)
80000960:	25620005 	addiu	v0,t3,5
80000964:	00a8782a 	slt	t7,a1,t0
80000968:	15e0000c 	bnez	t7,8000099c <partition+0x46c>
8000096c:	00000000 	nop
80000970:	24e70020 	addiu	a3,a3,32
80000974:	8ce8fffc 	lw	t0,-4(a3)
80000978:	25620006 	addiu	v0,t3,6
8000097c:	00a8c02a 	slt	t8,a1,t0
80000980:	17000006 	bnez	t8,8000099c <partition+0x46c>
80000984:	00000000 	nop
80000988:	8ce80000 	lw	t0,0(a3)
8000098c:	25620007 	addiu	v0,t3,7
80000990:	00a8c82a 	slt	t9,a1,t0
80000994:	1320ffd4 	beqz	t9,800008e8 <partition+0x3b8>
80000998:	00000000 	nop
8000099c:	ac680000 	sw	t0,0(v1)
800009a0:	00026080 	sll	t4,v0,0x2
800009a4:	1000fee9 	b	8000054c <partition+0x1c>
800009a8:	00000000 	nop
800009ac:	00000000 	nop
800009b0:	00023080 	sll	a2,v0,0x2
800009b4:	00863821 	addu	a3,a0,a2
800009b8:	8ce40000 	lw	a0,0(a3)
800009bc:	00000000 	nop
800009c0:	ac640000 	sw	a0,0(v1)
800009c4:	ace50000 	sw	a1,0(a3)
800009c8:	03e00008 	jr	ra
800009cc:	00000000 	nop

800009d0 <_quick_sort>:
_quick_sort():
800009d0:	27bdffa0 	addiu	sp,sp,-96
800009d4:	00a6102a 	slt	v0,a1,a2
800009d8:	afbf005c 	sw	ra,92(sp)
800009dc:	afbe0058 	sw	s8,88(sp)
800009e0:	afb70054 	sw	s7,84(sp)
800009e4:	afb60050 	sw	s6,80(sp)
800009e8:	afb5004c 	sw	s5,76(sp)
800009ec:	afb40048 	sw	s4,72(sp)
800009f0:	afb30044 	sw	s3,68(sp)
800009f4:	afb20040 	sw	s2,64(sp)
800009f8:	afb1003c 	sw	s1,60(sp)
800009fc:	afb00038 	sw	s0,56(sp)
80000a00:	afa60068 	sw	a2,104(sp)
80000a04:	10400a9e 	beqz	v0,80003480 <_quick_sort+0x2ab0>
80000a08:	00000000 	nop
80000a0c:	0080b825 	move	s7,a0
80000a10:	0005c080 	sll	t8,a1,0x2
80000a14:	8fa60068 	lw	a2,104(sp)
80000a18:	00a08825 	move	s1,a1
80000a1c:	02f81821 	addu	v1,s7,t8
80000a20:	8c670000 	lw	a3,0(v1)
80000a24:	00062080 	sll	a0,a2,0x2
80000a28:	00114027 	nor	t0,zero,s1
80000a2c:	02e41021 	addu	v0,s7,a0
80000a30:	01065021 	addu	t2,t0,a2
80000a34:	00404825 	move	t1,v0
80000a38:	8c530000 	lw	s3,0(v0)
80000a3c:	314b0007 	andi	t3,t2,0x7
80000a40:	00f3602a 	slt	t4,a3,s3
80000a44:	118009f1 	beqz	t4,8000320c <_quick_sort+0x283c>
80000a48:	00000000 	nop
80000a4c:	24c6ffff 	addiu	a2,a2,-1
80000a50:	2442fffc 	addiu	v0,v0,-4
80000a54:	0226482a 	slt	t1,s1,a2
80000a58:	11200086 	beqz	t1,80000c74 <_quick_sort+0x2a4>
80000a5c:	00000000 	nop
80000a60:	11600047 	beqz	t3,80000b80 <_quick_sort+0x1b0>
80000a64:	00000000 	nop
80000a68:	240d0001 	li	t5,1
80000a6c:	116d003a 	beq	t3,t5,80000b58 <_quick_sort+0x188>
80000a70:	00000000 	nop
80000a74:	240e0002 	li	t6,2
80000a78:	116e0030 	beq	t3,t6,80000b3c <_quick_sort+0x16c>
80000a7c:	00000000 	nop
80000a80:	240f0003 	li	t7,3
80000a84:	116f0026 	beq	t3,t7,80000b20 <_quick_sort+0x150>
80000a88:	00000000 	nop
80000a8c:	24100004 	li	s0,4
80000a90:	1170001c 	beq	t3,s0,80000b04 <_quick_sort+0x134>
80000a94:	00000000 	nop
80000a98:	24120005 	li	s2,5
80000a9c:	11720012 	beq	t3,s2,80000ae8 <_quick_sort+0x118>
80000aa0:	00000000 	nop
80000aa4:	24130006 	li	s3,6
80000aa8:	11730008 	beq	t3,s3,80000acc <_quick_sort+0xfc>
80000aac:	00000000 	nop
80000ab0:	8c530000 	lw	s3,0(v0)
80000ab4:	00404825 	move	t1,v0
80000ab8:	00f3a02a 	slt	s4,a3,s3
80000abc:	128009d3 	beqz	s4,8000320c <_quick_sort+0x283c>
80000ac0:	00000000 	nop
80000ac4:	24c6ffff 	addiu	a2,a2,-1
80000ac8:	2442fffc 	addiu	v0,v0,-4
80000acc:	8c530000 	lw	s3,0(v0)
80000ad0:	00404825 	move	t1,v0
80000ad4:	00f3a82a 	slt	s5,a3,s3
80000ad8:	12a009cc 	beqz	s5,8000320c <_quick_sort+0x283c>
80000adc:	00000000 	nop
80000ae0:	24c6ffff 	addiu	a2,a2,-1
80000ae4:	2442fffc 	addiu	v0,v0,-4
80000ae8:	8c530000 	lw	s3,0(v0)
80000aec:	00404825 	move	t1,v0
80000af0:	00f3b02a 	slt	s6,a3,s3
80000af4:	12c009c5 	beqz	s6,8000320c <_quick_sort+0x283c>
80000af8:	00000000 	nop
80000afc:	24c6ffff 	addiu	a2,a2,-1
80000b00:	2442fffc 	addiu	v0,v0,-4
80000b04:	8c530000 	lw	s3,0(v0)
80000b08:	00404825 	move	t1,v0
80000b0c:	00f3c82a 	slt	t9,a3,s3
80000b10:	132009be 	beqz	t9,8000320c <_quick_sort+0x283c>
80000b14:	00000000 	nop
80000b18:	24c6ffff 	addiu	a2,a2,-1
80000b1c:	2442fffc 	addiu	v0,v0,-4
80000b20:	8c530000 	lw	s3,0(v0)
80000b24:	00404825 	move	t1,v0
80000b28:	00f3f02a 	slt	s8,a3,s3
80000b2c:	13c009b7 	beqz	s8,8000320c <_quick_sort+0x283c>
80000b30:	00000000 	nop
80000b34:	24c6ffff 	addiu	a2,a2,-1
80000b38:	2442fffc 	addiu	v0,v0,-4
80000b3c:	8c530000 	lw	s3,0(v0)
80000b40:	00404825 	move	t1,v0
80000b44:	00f3f82a 	slt	ra,a3,s3
80000b48:	13e009b0 	beqz	ra,8000320c <_quick_sort+0x283c>
80000b4c:	00000000 	nop
80000b50:	24c6ffff 	addiu	a2,a2,-1
80000b54:	2442fffc 	addiu	v0,v0,-4
80000b58:	8c530000 	lw	s3,0(v0)
80000b5c:	00404825 	move	t1,v0
80000b60:	00f3182a 	slt	v1,a3,s3
80000b64:	106009a9 	beqz	v1,8000320c <_quick_sort+0x283c>
80000b68:	00000000 	nop
80000b6c:	24c6ffff 	addiu	a2,a2,-1
80000b70:	2442fffc 	addiu	v0,v0,-4
80000b74:	0226202a 	slt	a0,s1,a2
80000b78:	1080003e 	beqz	a0,80000c74 <_quick_sort+0x2a4>
80000b7c:	00000000 	nop
80000b80:	8c530000 	lw	s3,0(v0)
80000b84:	00404825 	move	t1,v0
80000b88:	00f3402a 	slt	t0,a3,s3
80000b8c:	1100099f 	beqz	t0,8000320c <_quick_sort+0x283c>
80000b90:	00000000 	nop
80000b94:	2442fffc 	addiu	v0,v0,-4
80000b98:	8c530000 	lw	s3,0(v0)
80000b9c:	24c6ffff 	addiu	a2,a2,-1
80000ba0:	00406025 	move	t4,v0
80000ba4:	00f3582a 	slt	t3,a3,s3
80000ba8:	00c05025 	move	t2,a2
80000bac:	00404825 	move	t1,v0
80000bb0:	11600996 	beqz	t3,8000320c <_quick_sort+0x283c>
80000bb4:	00000000 	nop
80000bb8:	2442fffc 	addiu	v0,v0,-4
80000bbc:	8c530000 	lw	s3,0(v0)
80000bc0:	24c6ffff 	addiu	a2,a2,-1
80000bc4:	00404825 	move	t1,v0
80000bc8:	00f3682a 	slt	t5,a3,s3
80000bcc:	11a0098f 	beqz	t5,8000320c <_quick_sort+0x283c>
80000bd0:	00000000 	nop
80000bd4:	8d93fff8 	lw	s3,-8(t4)
80000bd8:	2582fff8 	addiu	v0,t4,-8
80000bdc:	2546fffe 	addiu	a2,t2,-2
80000be0:	00404825 	move	t1,v0
80000be4:	00f3702a 	slt	t6,a3,s3
80000be8:	11c00988 	beqz	t6,8000320c <_quick_sort+0x283c>
80000bec:	00000000 	nop
80000bf0:	8d93fff4 	lw	s3,-12(t4)
80000bf4:	2582fff4 	addiu	v0,t4,-12
80000bf8:	2546fffd 	addiu	a2,t2,-3
80000bfc:	00404825 	move	t1,v0
80000c00:	00f3782a 	slt	t7,a3,s3
80000c04:	11e00981 	beqz	t7,8000320c <_quick_sort+0x283c>
80000c08:	00000000 	nop
80000c0c:	8d93fff0 	lw	s3,-16(t4)
80000c10:	2582fff0 	addiu	v0,t4,-16
80000c14:	2546fffc 	addiu	a2,t2,-4
80000c18:	00404825 	move	t1,v0
80000c1c:	00f3802a 	slt	s0,a3,s3
80000c20:	1200097a 	beqz	s0,8000320c <_quick_sort+0x283c>
80000c24:	00000000 	nop
80000c28:	8d93ffec 	lw	s3,-20(t4)
80000c2c:	2582ffec 	addiu	v0,t4,-20
80000c30:	2546fffb 	addiu	a2,t2,-5
80000c34:	00404825 	move	t1,v0
80000c38:	00f3902a 	slt	s2,a3,s3
80000c3c:	12400973 	beqz	s2,8000320c <_quick_sort+0x283c>
80000c40:	00000000 	nop
80000c44:	8d93ffe8 	lw	s3,-24(t4)
80000c48:	2582ffe8 	addiu	v0,t4,-24
80000c4c:	2546fffa 	addiu	a2,t2,-6
80000c50:	00404825 	move	t1,v0
80000c54:	00f3a02a 	slt	s4,a3,s3
80000c58:	1280096c 	beqz	s4,8000320c <_quick_sort+0x283c>
80000c5c:	00000000 	nop
80000c60:	2546fff9 	addiu	a2,t2,-7
80000c64:	2582ffe4 	addiu	v0,t4,-28
80000c68:	0226702a 	slt	t6,s1,a2
80000c6c:	15c0ffc4 	bnez	t6,80000b80 <_quick_sort+0x1b0>
80000c70:	00000000 	nop
80000c74:	00067880 	sll	t7,a2,0x2
80000c78:	00118080 	sll	s0,s1,0x2
80000c7c:	02ef4821 	addu	t1,s7,t7
80000c80:	02f01821 	addu	v1,s7,s0
80000c84:	8d330000 	lw	s3,0(t1)
80000c88:	00000000 	nop
80000c8c:	ac730000 	sw	s3,0(v1)
80000c90:	ad330000 	sw	s3,0(t1)
80000c94:	2632ffff 	addiu	s2,s1,-1
80000c98:	ac670000 	sw	a3,0(v1)
80000c9c:	00b2382a 	slt	a3,a1,s2
80000ca0:	afb2001c 	sw	s2,28(sp)
80000ca4:	10e009f0 	beqz	a3,80003468 <_quick_sort+0x2a98>
80000ca8:	00000000 	nop
80000cac:	02f89821 	addu	s3,s7,t8
80000cb0:	8fa6001c 	lw	a2,28(sp)
80000cb4:	00a09025 	move	s2,a1
80000cb8:	8e690000 	lw	t1,0(s3)
80000cbc:	0006a080 	sll	s4,a2,0x2
80000cc0:	0012a827 	nor	s5,zero,s2
80000cc4:	02f41021 	addu	v0,s7,s4
80000cc8:	02a6b021 	addu	s6,s5,a2
80000ccc:	00405825 	move	t3,v0
80000cd0:	8c440000 	lw	a0,0(v0)
80000cd4:	32d90007 	andi	t9,s6,0x7
80000cd8:	0124f02a 	slt	s8,t1,a0
80000cdc:	13c0085d 	beqz	s8,80002e54 <_quick_sort+0x2484>
80000ce0:	00000000 	nop
80000ce4:	24c6ffff 	addiu	a2,a2,-1
80000ce8:	2442fffc 	addiu	v0,v0,-4
80000cec:	0246f82a 	slt	ra,s2,a2
80000cf0:	13e00086 	beqz	ra,80000f0c <_quick_sort+0x53c>
80000cf4:	00000000 	nop
80000cf8:	13200047 	beqz	t9,80000e18 <_quick_sort+0x448>
80000cfc:	00000000 	nop
80000d00:	24080001 	li	t0,1
80000d04:	1328003a 	beq	t9,t0,80000df0 <_quick_sort+0x420>
80000d08:	00000000 	nop
80000d0c:	240c0002 	li	t4,2
80000d10:	132c0030 	beq	t9,t4,80000dd4 <_quick_sort+0x404>
80000d14:	00000000 	nop
80000d18:	240b0003 	li	t3,3
80000d1c:	132b0026 	beq	t9,t3,80000db8 <_quick_sort+0x3e8>
80000d20:	00000000 	nop
80000d24:	24030004 	li	v1,4
80000d28:	1323001c 	beq	t9,v1,80000d9c <_quick_sort+0x3cc>
80000d2c:	00000000 	nop
80000d30:	240a0005 	li	t2,5
80000d34:	132a0012 	beq	t9,t2,80000d80 <_quick_sort+0x3b0>
80000d38:	00000000 	nop
80000d3c:	24040006 	li	a0,6
80000d40:	13240008 	beq	t9,a0,80000d64 <_quick_sort+0x394>
80000d44:	00000000 	nop
80000d48:	8c440000 	lw	a0,0(v0)
80000d4c:	00405825 	move	t3,v0
80000d50:	0124682a 	slt	t5,t1,a0
80000d54:	11a0083f 	beqz	t5,80002e54 <_quick_sort+0x2484>
80000d58:	00000000 	nop
80000d5c:	24c6ffff 	addiu	a2,a2,-1
80000d60:	2442fffc 	addiu	v0,v0,-4
80000d64:	8c440000 	lw	a0,0(v0)
80000d68:	00405825 	move	t3,v0
80000d6c:	0124702a 	slt	t6,t1,a0
80000d70:	11c00838 	beqz	t6,80002e54 <_quick_sort+0x2484>
80000d74:	00000000 	nop
80000d78:	24c6ffff 	addiu	a2,a2,-1
80000d7c:	2442fffc 	addiu	v0,v0,-4
80000d80:	8c440000 	lw	a0,0(v0)
80000d84:	00405825 	move	t3,v0
80000d88:	0124782a 	slt	t7,t1,a0
80000d8c:	11e00831 	beqz	t7,80002e54 <_quick_sort+0x2484>
80000d90:	00000000 	nop
80000d94:	24c6ffff 	addiu	a2,a2,-1
80000d98:	2442fffc 	addiu	v0,v0,-4
80000d9c:	8c440000 	lw	a0,0(v0)
80000da0:	00405825 	move	t3,v0
80000da4:	0124802a 	slt	s0,t1,a0
80000da8:	1200082a 	beqz	s0,80002e54 <_quick_sort+0x2484>
80000dac:	00000000 	nop
80000db0:	24c6ffff 	addiu	a2,a2,-1
80000db4:	2442fffc 	addiu	v0,v0,-4
80000db8:	8c440000 	lw	a0,0(v0)
80000dbc:	00405825 	move	t3,v0
80000dc0:	0124382a 	slt	a3,t1,a0
80000dc4:	10e00823 	beqz	a3,80002e54 <_quick_sort+0x2484>
80000dc8:	00000000 	nop
80000dcc:	24c6ffff 	addiu	a2,a2,-1
80000dd0:	2442fffc 	addiu	v0,v0,-4
80000dd4:	8c440000 	lw	a0,0(v0)
80000dd8:	00405825 	move	t3,v0
80000ddc:	0124982a 	slt	s3,t1,a0
80000de0:	1260081c 	beqz	s3,80002e54 <_quick_sort+0x2484>
80000de4:	00000000 	nop
80000de8:	24c6ffff 	addiu	a2,a2,-1
80000dec:	2442fffc 	addiu	v0,v0,-4
80000df0:	8c440000 	lw	a0,0(v0)
80000df4:	00405825 	move	t3,v0
80000df8:	0124a02a 	slt	s4,t1,a0
80000dfc:	12800815 	beqz	s4,80002e54 <_quick_sort+0x2484>
80000e00:	00000000 	nop
80000e04:	24c6ffff 	addiu	a2,a2,-1
80000e08:	2442fffc 	addiu	v0,v0,-4
80000e0c:	0246a82a 	slt	s5,s2,a2
80000e10:	12a0003e 	beqz	s5,80000f0c <_quick_sort+0x53c>
80000e14:	00000000 	nop
80000e18:	8c440000 	lw	a0,0(v0)
80000e1c:	00405825 	move	t3,v0
80000e20:	0124b02a 	slt	s6,t1,a0
80000e24:	12c0080b 	beqz	s6,80002e54 <_quick_sort+0x2484>
80000e28:	00000000 	nop
80000e2c:	2442fffc 	addiu	v0,v0,-4
80000e30:	8c440000 	lw	a0,0(v0)
80000e34:	24c6ffff 	addiu	a2,a2,-1
80000e38:	0040c825 	move	t9,v0
80000e3c:	0124f02a 	slt	s8,t1,a0
80000e40:	00c0f825 	move	ra,a2
80000e44:	00405825 	move	t3,v0
80000e48:	13c00802 	beqz	s8,80002e54 <_quick_sort+0x2484>
80000e4c:	00000000 	nop
80000e50:	2442fffc 	addiu	v0,v0,-4
80000e54:	8c440000 	lw	a0,0(v0)
80000e58:	24c6ffff 	addiu	a2,a2,-1
80000e5c:	00405825 	move	t3,v0
80000e60:	0124402a 	slt	t0,t1,a0
80000e64:	110007fb 	beqz	t0,80002e54 <_quick_sort+0x2484>
80000e68:	00000000 	nop
80000e6c:	8f24fff8 	lw	a0,-8(t9)
80000e70:	2722fff8 	addiu	v0,t9,-8
80000e74:	27e6fffe 	addiu	a2,ra,-2
80000e78:	00405825 	move	t3,v0
80000e7c:	0124602a 	slt	t4,t1,a0
80000e80:	118007f4 	beqz	t4,80002e54 <_quick_sort+0x2484>
80000e84:	00000000 	nop
80000e88:	8f24fff4 	lw	a0,-12(t9)
80000e8c:	2722fff4 	addiu	v0,t9,-12
80000e90:	27e6fffd 	addiu	a2,ra,-3
80000e94:	00405825 	move	t3,v0
80000e98:	0124182a 	slt	v1,t1,a0
80000e9c:	106007ed 	beqz	v1,80002e54 <_quick_sort+0x2484>
80000ea0:	00000000 	nop
80000ea4:	8f24fff0 	lw	a0,-16(t9)
80000ea8:	2722fff0 	addiu	v0,t9,-16
80000eac:	27e6fffc 	addiu	a2,ra,-4
80000eb0:	00405825 	move	t3,v0
80000eb4:	0124502a 	slt	t2,t1,a0
80000eb8:	114007e6 	beqz	t2,80002e54 <_quick_sort+0x2484>
80000ebc:	00000000 	nop
80000ec0:	8f24ffec 	lw	a0,-20(t9)
80000ec4:	2722ffec 	addiu	v0,t9,-20
80000ec8:	27e6fffb 	addiu	a2,ra,-5
80000ecc:	00405825 	move	t3,v0
80000ed0:	0124682a 	slt	t5,t1,a0
80000ed4:	11a007df 	beqz	t5,80002e54 <_quick_sort+0x2484>
80000ed8:	00000000 	nop
80000edc:	8f24ffe8 	lw	a0,-24(t9)
80000ee0:	2722ffe8 	addiu	v0,t9,-24
80000ee4:	27e6fffa 	addiu	a2,ra,-6
80000ee8:	00405825 	move	t3,v0
80000eec:	0124702a 	slt	t6,t1,a0
80000ef0:	11c007d8 	beqz	t6,80002e54 <_quick_sort+0x2484>
80000ef4:	00000000 	nop
80000ef8:	27e6fff9 	addiu	a2,ra,-7
80000efc:	2722ffe4 	addiu	v0,t9,-28
80000f00:	0246502a 	slt	t2,s2,a2
80000f04:	1540ffc4 	bnez	t2,80000e18 <_quick_sort+0x448>
80000f08:	00000000 	nop
80000f0c:	00066880 	sll	t5,a2,0x2
80000f10:	00127080 	sll	t6,s2,0x2
80000f14:	02ed5821 	addu	t3,s7,t5
80000f18:	02ee1821 	addu	v1,s7,t6
80000f1c:	8d640000 	lw	a0,0(t3)
80000f20:	00000000 	nop
80000f24:	ac640000 	sw	a0,0(v1)
80000f28:	ad640000 	sw	a0,0(t3)
80000f2c:	264bffff 	addiu	t3,s2,-1
80000f30:	ac690000 	sw	t1,0(v1)
80000f34:	00ab482a 	slt	t1,a1,t3
80000f38:	afab0020 	sw	t3,32(sp)
80000f3c:	1120093a 	beqz	t1,80003428 <_quick_sort+0x2a58>
80000f40:	00000000 	nop
80000f44:	02f87821 	addu	t7,s7,t8
80000f48:	8fa60020 	lw	a2,32(sp)
80000f4c:	00a09825 	move	s3,a1
80000f50:	8df00000 	lw	s0,0(t7)
80000f54:	00063880 	sll	a3,a2,0x2
80000f58:	00132027 	nor	a0,zero,s3
80000f5c:	02e71021 	addu	v0,s7,a3
80000f60:	0086a021 	addu	s4,a0,a2
80000f64:	00406025 	move	t4,v0
80000f68:	8c440000 	lw	a0,0(v0)
80000f6c:	32950007 	andi	s5,s4,0x7
80000f70:	0204b02a 	slt	s6,s0,a0
80000f74:	12c0082e 	beqz	s6,80003030 <_quick_sort+0x2660>
80000f78:	00000000 	nop
80000f7c:	24c6ffff 	addiu	a2,a2,-1
80000f80:	2442fffc 	addiu	v0,v0,-4
80000f84:	0266c82a 	slt	t9,s3,a2
80000f88:	13200086 	beqz	t9,800011a4 <_quick_sort+0x7d4>
80000f8c:	00000000 	nop
80000f90:	12a00047 	beqz	s5,800010b0 <_quick_sort+0x6e0>
80000f94:	00000000 	nop
80000f98:	241e0001 	li	s8,1
80000f9c:	12be003a 	beq	s5,s8,80001088 <_quick_sort+0x6b8>
80000fa0:	00000000 	nop
80000fa4:	24030002 	li	v1,2
80000fa8:	12a30030 	beq	s5,v1,8000106c <_quick_sort+0x69c>
80000fac:	00000000 	nop
80000fb0:	241f0003 	li	ra,3
80000fb4:	12bf0026 	beq	s5,ra,80001050 <_quick_sort+0x680>
80000fb8:	00000000 	nop
80000fbc:	24080004 	li	t0,4
80000fc0:	12a8001c 	beq	s5,t0,80001034 <_quick_sort+0x664>
80000fc4:	00000000 	nop
80000fc8:	240c0005 	li	t4,5
80000fcc:	12ac0012 	beq	s5,t4,80001018 <_quick_sort+0x648>
80000fd0:	00000000 	nop
80000fd4:	240a0006 	li	t2,6
80000fd8:	12aa0008 	beq	s5,t2,80000ffc <_quick_sort+0x62c>
80000fdc:	00000000 	nop
80000fe0:	8c440000 	lw	a0,0(v0)
80000fe4:	00406025 	move	t4,v0
80000fe8:	0204682a 	slt	t5,s0,a0
80000fec:	11a00810 	beqz	t5,80003030 <_quick_sort+0x2660>
80000ff0:	00000000 	nop
80000ff4:	24c6ffff 	addiu	a2,a2,-1
80000ff8:	2442fffc 	addiu	v0,v0,-4
80000ffc:	8c440000 	lw	a0,0(v0)
80001000:	00406025 	move	t4,v0
80001004:	0204702a 	slt	t6,s0,a0
80001008:	11c00809 	beqz	t6,80003030 <_quick_sort+0x2660>
8000100c:	00000000 	nop
80001010:	24c6ffff 	addiu	a2,a2,-1
80001014:	2442fffc 	addiu	v0,v0,-4
80001018:	8c440000 	lw	a0,0(v0)
8000101c:	00406025 	move	t4,v0
80001020:	0204582a 	slt	t3,s0,a0
80001024:	11600802 	beqz	t3,80003030 <_quick_sort+0x2660>
80001028:	00000000 	nop
8000102c:	24c6ffff 	addiu	a2,a2,-1
80001030:	2442fffc 	addiu	v0,v0,-4
80001034:	8c440000 	lw	a0,0(v0)
80001038:	00406025 	move	t4,v0
8000103c:	0204482a 	slt	t1,s0,a0
80001040:	112007fb 	beqz	t1,80003030 <_quick_sort+0x2660>
80001044:	00000000 	nop
80001048:	24c6ffff 	addiu	a2,a2,-1
8000104c:	2442fffc 	addiu	v0,v0,-4
80001050:	8c440000 	lw	a0,0(v0)
80001054:	00406025 	move	t4,v0
80001058:	0204782a 	slt	t7,s0,a0
8000105c:	11e007f4 	beqz	t7,80003030 <_quick_sort+0x2660>
80001060:	00000000 	nop
80001064:	24c6ffff 	addiu	a2,a2,-1
80001068:	2442fffc 	addiu	v0,v0,-4
8000106c:	8c440000 	lw	a0,0(v0)
80001070:	00406025 	move	t4,v0
80001074:	0204382a 	slt	a3,s0,a0
80001078:	10e007ed 	beqz	a3,80003030 <_quick_sort+0x2660>
8000107c:	00000000 	nop
80001080:	24c6ffff 	addiu	a2,a2,-1
80001084:	2442fffc 	addiu	v0,v0,-4
80001088:	8c440000 	lw	a0,0(v0)
8000108c:	00406025 	move	t4,v0
80001090:	0204a02a 	slt	s4,s0,a0
80001094:	128007e6 	beqz	s4,80003030 <_quick_sort+0x2660>
80001098:	00000000 	nop
8000109c:	24c6ffff 	addiu	a2,a2,-1
800010a0:	2442fffc 	addiu	v0,v0,-4
800010a4:	0266202a 	slt	a0,s3,a2
800010a8:	1080003e 	beqz	a0,800011a4 <_quick_sort+0x7d4>
800010ac:	00000000 	nop
800010b0:	8c440000 	lw	a0,0(v0)
800010b4:	00406025 	move	t4,v0
800010b8:	0204a82a 	slt	s5,s0,a0
800010bc:	12a007dc 	beqz	s5,80003030 <_quick_sort+0x2660>
800010c0:	00000000 	nop
800010c4:	2442fffc 	addiu	v0,v0,-4
800010c8:	8c440000 	lw	a0,0(v0)
800010cc:	24c6ffff 	addiu	a2,a2,-1
800010d0:	0040b025 	move	s6,v0
800010d4:	0204c82a 	slt	t9,s0,a0
800010d8:	00c0f025 	move	s8,a2
800010dc:	00406025 	move	t4,v0
800010e0:	132007d3 	beqz	t9,80003030 <_quick_sort+0x2660>
800010e4:	00000000 	nop
800010e8:	2442fffc 	addiu	v0,v0,-4
800010ec:	8c440000 	lw	a0,0(v0)
800010f0:	24c6ffff 	addiu	a2,a2,-1
800010f4:	00406025 	move	t4,v0
800010f8:	0204182a 	slt	v1,s0,a0
800010fc:	106007cc 	beqz	v1,80003030 <_quick_sort+0x2660>
80001100:	00000000 	nop
80001104:	8ec4fff8 	lw	a0,-8(s6)
80001108:	26c2fff8 	addiu	v0,s6,-8
8000110c:	27c6fffe 	addiu	a2,s8,-2
80001110:	00406025 	move	t4,v0
80001114:	0204f82a 	slt	ra,s0,a0
80001118:	13e007c5 	beqz	ra,80003030 <_quick_sort+0x2660>
8000111c:	00000000 	nop
80001120:	8ec4fff4 	lw	a0,-12(s6)
80001124:	26c2fff4 	addiu	v0,s6,-12
80001128:	27c6fffd 	addiu	a2,s8,-3
8000112c:	00406025 	move	t4,v0
80001130:	0204402a 	slt	t0,s0,a0
80001134:	110007be 	beqz	t0,80003030 <_quick_sort+0x2660>
80001138:	00000000 	nop
8000113c:	8ec4fff0 	lw	a0,-16(s6)
80001140:	26c2fff0 	addiu	v0,s6,-16
80001144:	27c6fffc 	addiu	a2,s8,-4
80001148:	00406025 	move	t4,v0
8000114c:	0204502a 	slt	t2,s0,a0
80001150:	114007b7 	beqz	t2,80003030 <_quick_sort+0x2660>
80001154:	00000000 	nop
80001158:	8ec4ffec 	lw	a0,-20(s6)
8000115c:	26c2ffec 	addiu	v0,s6,-20
80001160:	27c6fffb 	addiu	a2,s8,-5
80001164:	00406025 	move	t4,v0
80001168:	0204682a 	slt	t5,s0,a0
8000116c:	11a007b0 	beqz	t5,80003030 <_quick_sort+0x2660>
80001170:	00000000 	nop
80001174:	8ec4ffe8 	lw	a0,-24(s6)
80001178:	26c2ffe8 	addiu	v0,s6,-24
8000117c:	27c6fffa 	addiu	a2,s8,-6
80001180:	00406025 	move	t4,v0
80001184:	0204702a 	slt	t6,s0,a0
80001188:	11c007a9 	beqz	t6,80003030 <_quick_sort+0x2660>
8000118c:	00000000 	nop
80001190:	27c6fff9 	addiu	a2,s8,-7
80001194:	26c2ffe4 	addiu	v0,s6,-28
80001198:	0266602a 	slt	t4,s3,a2
8000119c:	1580ffc4 	bnez	t4,800010b0 <_quick_sort+0x6e0>
800011a0:	00000000 	nop
800011a4:	00067080 	sll	t6,a2,0x2
800011a8:	00134880 	sll	t1,s3,0x2
800011ac:	02ee6021 	addu	t4,s7,t6
800011b0:	02e91821 	addu	v1,s7,t1
800011b4:	8d840000 	lw	a0,0(t4)
800011b8:	00000000 	nop
800011bc:	ac640000 	sw	a0,0(v1)
800011c0:	ad840000 	sw	a0,0(t4)
800011c4:	266bffff 	addiu	t3,s3,-1
800011c8:	ac700000 	sw	s0,0(v1)
800011cc:	00ab802a 	slt	s0,a1,t3
800011d0:	afab0024 	sw	t3,36(sp)
800011d4:	12000884 	beqz	s0,800033e8 <_quick_sort+0x2a18>
800011d8:	00000000 	nop
800011dc:	02f87821 	addu	t7,s7,t8
800011e0:	8fa60024 	lw	a2,36(sp)
800011e4:	00a0a025 	move	s4,a1
800011e8:	8de70000 	lw	a3,0(t7)
800011ec:	00062080 	sll	a0,a2,0x2
800011f0:	0014a827 	nor	s5,zero,s4
800011f4:	02e41021 	addu	v0,s7,a0
800011f8:	02a6b021 	addu	s6,s5,a2
800011fc:	00406025 	move	t4,v0
80001200:	8c440000 	lw	a0,0(v0)
80001204:	32d90007 	andi	t9,s6,0x7
80001208:	00e4f02a 	slt	s8,a3,a0
8000120c:	13c0069a 	beqz	s8,80002c78 <_quick_sort+0x22a8>
80001210:	00000000 	nop
80001214:	24c6ffff 	addiu	a2,a2,-1
80001218:	2442fffc 	addiu	v0,v0,-4
8000121c:	0286f82a 	slt	ra,s4,a2
80001220:	13e00086 	beqz	ra,8000143c <_quick_sort+0xa6c>
80001224:	00000000 	nop
80001228:	13200047 	beqz	t9,80001348 <_quick_sort+0x978>
8000122c:	00000000 	nop
80001230:	24030001 	li	v1,1
80001234:	1323003a 	beq	t9,v1,80001320 <_quick_sort+0x950>
80001238:	00000000 	nop
8000123c:	24080002 	li	t0,2
80001240:	13280030 	beq	t9,t0,80001304 <_quick_sort+0x934>
80001244:	00000000 	nop
80001248:	240a0003 	li	t2,3
8000124c:	132a0026 	beq	t9,t2,800012e8 <_quick_sort+0x918>
80001250:	00000000 	nop
80001254:	240d0004 	li	t5,4
80001258:	132d001c 	beq	t9,t5,800012cc <_quick_sort+0x8fc>
8000125c:	00000000 	nop
80001260:	240c0005 	li	t4,5
80001264:	132c0012 	beq	t9,t4,800012b0 <_quick_sort+0x8e0>
80001268:	00000000 	nop
8000126c:	240e0006 	li	t6,6
80001270:	132e0008 	beq	t9,t6,80001294 <_quick_sort+0x8c4>
80001274:	00000000 	nop
80001278:	8c440000 	lw	a0,0(v0)
8000127c:	00406025 	move	t4,v0
80001280:	00e4482a 	slt	t1,a3,a0
80001284:	1120067c 	beqz	t1,80002c78 <_quick_sort+0x22a8>
80001288:	00000000 	nop
8000128c:	24c6ffff 	addiu	a2,a2,-1
80001290:	2442fffc 	addiu	v0,v0,-4
80001294:	8c440000 	lw	a0,0(v0)
80001298:	00406025 	move	t4,v0
8000129c:	00e4582a 	slt	t3,a3,a0
800012a0:	11600675 	beqz	t3,80002c78 <_quick_sort+0x22a8>
800012a4:	00000000 	nop
800012a8:	24c6ffff 	addiu	a2,a2,-1
800012ac:	2442fffc 	addiu	v0,v0,-4
800012b0:	8c440000 	lw	a0,0(v0)
800012b4:	00406025 	move	t4,v0
800012b8:	00e4802a 	slt	s0,a3,a0
800012bc:	1200066e 	beqz	s0,80002c78 <_quick_sort+0x22a8>
800012c0:	00000000 	nop
800012c4:	24c6ffff 	addiu	a2,a2,-1
800012c8:	2442fffc 	addiu	v0,v0,-4
800012cc:	8c440000 	lw	a0,0(v0)
800012d0:	00406025 	move	t4,v0
800012d4:	00e4782a 	slt	t7,a3,a0
800012d8:	11e00667 	beqz	t7,80002c78 <_quick_sort+0x22a8>
800012dc:	00000000 	nop
800012e0:	24c6ffff 	addiu	a2,a2,-1
800012e4:	2442fffc 	addiu	v0,v0,-4
800012e8:	8c440000 	lw	a0,0(v0)
800012ec:	00406025 	move	t4,v0
800012f0:	00e4a82a 	slt	s5,a3,a0
800012f4:	12a00660 	beqz	s5,80002c78 <_quick_sort+0x22a8>
800012f8:	00000000 	nop
800012fc:	24c6ffff 	addiu	a2,a2,-1
80001300:	2442fffc 	addiu	v0,v0,-4
80001304:	8c440000 	lw	a0,0(v0)
80001308:	00406025 	move	t4,v0
8000130c:	00e4b02a 	slt	s6,a3,a0
80001310:	12c00659 	beqz	s6,80002c78 <_quick_sort+0x22a8>
80001314:	00000000 	nop
80001318:	24c6ffff 	addiu	a2,a2,-1
8000131c:	2442fffc 	addiu	v0,v0,-4
80001320:	8c440000 	lw	a0,0(v0)
80001324:	00406025 	move	t4,v0
80001328:	00e4c82a 	slt	t9,a3,a0
8000132c:	13200652 	beqz	t9,80002c78 <_quick_sort+0x22a8>
80001330:	00000000 	nop
80001334:	24c6ffff 	addiu	a2,a2,-1
80001338:	2442fffc 	addiu	v0,v0,-4
8000133c:	0286202a 	slt	a0,s4,a2
80001340:	1080003e 	beqz	a0,8000143c <_quick_sort+0xa6c>
80001344:	00000000 	nop
80001348:	8c440000 	lw	a0,0(v0)
8000134c:	00406025 	move	t4,v0
80001350:	00e4f02a 	slt	s8,a3,a0
80001354:	13c00648 	beqz	s8,80002c78 <_quick_sort+0x22a8>
80001358:	00000000 	nop
8000135c:	2442fffc 	addiu	v0,v0,-4
80001360:	8c440000 	lw	a0,0(v0)
80001364:	24c6ffff 	addiu	a2,a2,-1
80001368:	0040f825 	move	ra,v0
8000136c:	00e4182a 	slt	v1,a3,a0
80001370:	00c04025 	move	t0,a2
80001374:	00406025 	move	t4,v0
80001378:	1060063f 	beqz	v1,80002c78 <_quick_sort+0x22a8>
8000137c:	00000000 	nop
80001380:	2442fffc 	addiu	v0,v0,-4
80001384:	8c440000 	lw	a0,0(v0)
80001388:	24c6ffff 	addiu	a2,a2,-1
8000138c:	00406025 	move	t4,v0
80001390:	00e4502a 	slt	t2,a3,a0
80001394:	11400638 	beqz	t2,80002c78 <_quick_sort+0x22a8>
80001398:	00000000 	nop
8000139c:	8fe4fff8 	lw	a0,-8(ra)
800013a0:	27e2fff8 	addiu	v0,ra,-8
800013a4:	2506fffe 	addiu	a2,t0,-2
800013a8:	00406025 	move	t4,v0
800013ac:	00e4682a 	slt	t5,a3,a0
800013b0:	11a00631 	beqz	t5,80002c78 <_quick_sort+0x22a8>
800013b4:	00000000 	nop
800013b8:	8fe4fff4 	lw	a0,-12(ra)
800013bc:	27e2fff4 	addiu	v0,ra,-12
800013c0:	2506fffd 	addiu	a2,t0,-3
800013c4:	00406025 	move	t4,v0
800013c8:	00e4702a 	slt	t6,a3,a0
800013cc:	11c0062a 	beqz	t6,80002c78 <_quick_sort+0x22a8>
800013d0:	00000000 	nop
800013d4:	8fe4fff0 	lw	a0,-16(ra)
800013d8:	27e2fff0 	addiu	v0,ra,-16
800013dc:	2506fffc 	addiu	a2,t0,-4
800013e0:	00406025 	move	t4,v0
800013e4:	00e4482a 	slt	t1,a3,a0
800013e8:	11200623 	beqz	t1,80002c78 <_quick_sort+0x22a8>
800013ec:	00000000 	nop
800013f0:	8fe4ffec 	lw	a0,-20(ra)
800013f4:	27e2ffec 	addiu	v0,ra,-20
800013f8:	2506fffb 	addiu	a2,t0,-5
800013fc:	00406025 	move	t4,v0
80001400:	00e4582a 	slt	t3,a3,a0
80001404:	1160061c 	beqz	t3,80002c78 <_quick_sort+0x22a8>
80001408:	00000000 	nop
8000140c:	8fe4ffe8 	lw	a0,-24(ra)
80001410:	27e2ffe8 	addiu	v0,ra,-24
80001414:	2506fffa 	addiu	a2,t0,-6
80001418:	00406025 	move	t4,v0
8000141c:	00e4802a 	slt	s0,a3,a0
80001420:	12000615 	beqz	s0,80002c78 <_quick_sort+0x22a8>
80001424:	00000000 	nop
80001428:	2506fff9 	addiu	a2,t0,-7
8000142c:	27e2ffe4 	addiu	v0,ra,-28
80001430:	0286802a 	slt	s0,s4,a2
80001434:	1600ffc4 	bnez	s0,80001348 <_quick_sort+0x978>
80001438:	00000000 	nop
8000143c:	00067880 	sll	t7,a2,0x2
80001440:	0014a880 	sll	s5,s4,0x2
80001444:	02ef6021 	addu	t4,s7,t7
80001448:	02f51821 	addu	v1,s7,s5
8000144c:	8d840000 	lw	a0,0(t4)
80001450:	00000000 	nop
80001454:	ac640000 	sw	a0,0(v1)
80001458:	ad840000 	sw	a0,0(t4)
8000145c:	2696ffff 	addiu	s6,s4,-1
80001460:	ac670000 	sw	a3,0(v1)
80001464:	00b6382a 	slt	a3,a1,s6
80001468:	afb60028 	sw	s6,40(sp)
8000146c:	10e005f2 	beqz	a3,80002c38 <_quick_sort+0x2268>
80001470:	00000000 	nop
80001474:	02f8c821 	addu	t9,s7,t8
80001478:	8fa60028 	lw	a2,40(sp)
8000147c:	00a0a825 	move	s5,a1
80001480:	8f3e0000 	lw	s8,0(t9)
80001484:	0006f880 	sll	ra,a2,0x2
80001488:	00154027 	nor	t0,zero,s5
8000148c:	02ff1021 	addu	v0,s7,ra
80001490:	01065021 	addu	t2,t0,a2
80001494:	00406825 	move	t5,v0
80001498:	8c440000 	lw	a0,0(v0)
8000149c:	31490007 	andi	t1,t2,0x7
800014a0:	03c4702a 	slt	t6,s8,a0
800014a4:	11c0055d 	beqz	t6,80002a1c <_quick_sort+0x204c>
800014a8:	00000000 	nop
800014ac:	24c6ffff 	addiu	a2,a2,-1
800014b0:	2442fffc 	addiu	v0,v0,-4
800014b4:	02a6682a 	slt	t5,s5,a2
800014b8:	11a00086 	beqz	t5,800016d4 <_quick_sort+0xd04>
800014bc:	00000000 	nop
800014c0:	11200047 	beqz	t1,800015e0 <_quick_sort+0xc10>
800014c4:	00000000 	nop
800014c8:	24030001 	li	v1,1
800014cc:	1123003a 	beq	t1,v1,800015b8 <_quick_sort+0xbe8>
800014d0:	00000000 	nop
800014d4:	240b0002 	li	t3,2
800014d8:	112b0030 	beq	t1,t3,8000159c <_quick_sort+0xbcc>
800014dc:	00000000 	nop
800014e0:	24040003 	li	a0,3
800014e4:	11240026 	beq	t1,a0,80001580 <_quick_sort+0xbb0>
800014e8:	00000000 	nop
800014ec:	240c0004 	li	t4,4
800014f0:	112c001c 	beq	t1,t4,80001564 <_quick_sort+0xb94>
800014f4:	00000000 	nop
800014f8:	24100005 	li	s0,5
800014fc:	11300012 	beq	t1,s0,80001548 <_quick_sort+0xb78>
80001500:	00000000 	nop
80001504:	240f0006 	li	t7,6
80001508:	112f0008 	beq	t1,t7,8000152c <_quick_sort+0xb5c>
8000150c:	00000000 	nop
80001510:	8c440000 	lw	a0,0(v0)
80001514:	00406825 	move	t5,v0
80001518:	03c4b02a 	slt	s6,s8,a0
8000151c:	12c0053f 	beqz	s6,80002a1c <_quick_sort+0x204c>
80001520:	00000000 	nop
80001524:	24c6ffff 	addiu	a2,a2,-1
80001528:	2442fffc 	addiu	v0,v0,-4
8000152c:	8c440000 	lw	a0,0(v0)
80001530:	00406825 	move	t5,v0
80001534:	03c4382a 	slt	a3,s8,a0
80001538:	10e00538 	beqz	a3,80002a1c <_quick_sort+0x204c>
8000153c:	00000000 	nop
80001540:	24c6ffff 	addiu	a2,a2,-1
80001544:	2442fffc 	addiu	v0,v0,-4
80001548:	8c440000 	lw	a0,0(v0)
8000154c:	00406825 	move	t5,v0
80001550:	03c4c82a 	slt	t9,s8,a0
80001554:	13200531 	beqz	t9,80002a1c <_quick_sort+0x204c>
80001558:	00000000 	nop
8000155c:	24c6ffff 	addiu	a2,a2,-1
80001560:	2442fffc 	addiu	v0,v0,-4
80001564:	8c440000 	lw	a0,0(v0)
80001568:	00406825 	move	t5,v0
8000156c:	03c4f82a 	slt	ra,s8,a0
80001570:	13e0052a 	beqz	ra,80002a1c <_quick_sort+0x204c>
80001574:	00000000 	nop
80001578:	24c6ffff 	addiu	a2,a2,-1
8000157c:	2442fffc 	addiu	v0,v0,-4
80001580:	8c440000 	lw	a0,0(v0)
80001584:	00406825 	move	t5,v0
80001588:	03c4402a 	slt	t0,s8,a0
8000158c:	11000523 	beqz	t0,80002a1c <_quick_sort+0x204c>
80001590:	00000000 	nop
80001594:	24c6ffff 	addiu	a2,a2,-1
80001598:	2442fffc 	addiu	v0,v0,-4
8000159c:	8c440000 	lw	a0,0(v0)
800015a0:	00406825 	move	t5,v0
800015a4:	03c4502a 	slt	t2,s8,a0
800015a8:	1140051c 	beqz	t2,80002a1c <_quick_sort+0x204c>
800015ac:	00000000 	nop
800015b0:	24c6ffff 	addiu	a2,a2,-1
800015b4:	2442fffc 	addiu	v0,v0,-4
800015b8:	8c440000 	lw	a0,0(v0)
800015bc:	00406825 	move	t5,v0
800015c0:	03c4482a 	slt	t1,s8,a0
800015c4:	11200515 	beqz	t1,80002a1c <_quick_sort+0x204c>
800015c8:	00000000 	nop
800015cc:	24c6ffff 	addiu	a2,a2,-1
800015d0:	2442fffc 	addiu	v0,v0,-4
800015d4:	02a6702a 	slt	t6,s5,a2
800015d8:	11c0003e 	beqz	t6,800016d4 <_quick_sort+0xd04>
800015dc:	00000000 	nop
800015e0:	8c440000 	lw	a0,0(v0)
800015e4:	00406825 	move	t5,v0
800015e8:	03c4182a 	slt	v1,s8,a0
800015ec:	1060050b 	beqz	v1,80002a1c <_quick_sort+0x204c>
800015f0:	00000000 	nop
800015f4:	2442fffc 	addiu	v0,v0,-4
800015f8:	8c440000 	lw	a0,0(v0)
800015fc:	24c6ffff 	addiu	a2,a2,-1
80001600:	00405825 	move	t3,v0
80001604:	03c4602a 	slt	t4,s8,a0
80001608:	00c08025 	move	s0,a2
8000160c:	00406825 	move	t5,v0
80001610:	11800502 	beqz	t4,80002a1c <_quick_sort+0x204c>
80001614:	00000000 	nop
80001618:	2442fffc 	addiu	v0,v0,-4
8000161c:	8c440000 	lw	a0,0(v0)
80001620:	24c6ffff 	addiu	a2,a2,-1
80001624:	00406825 	move	t5,v0
80001628:	03c4782a 	slt	t7,s8,a0
8000162c:	11e004fb 	beqz	t7,80002a1c <_quick_sort+0x204c>
80001630:	00000000 	nop
80001634:	8d64fff8 	lw	a0,-8(t3)
80001638:	2562fff8 	addiu	v0,t3,-8
8000163c:	2606fffe 	addiu	a2,s0,-2
80001640:	00406825 	move	t5,v0
80001644:	03c4b02a 	slt	s6,s8,a0
80001648:	12c004f4 	beqz	s6,80002a1c <_quick_sort+0x204c>
8000164c:	00000000 	nop
80001650:	8d64fff4 	lw	a0,-12(t3)
80001654:	2562fff4 	addiu	v0,t3,-12
80001658:	2606fffd 	addiu	a2,s0,-3
8000165c:	00406825 	move	t5,v0
80001660:	03c4382a 	slt	a3,s8,a0
80001664:	10e004ed 	beqz	a3,80002a1c <_quick_sort+0x204c>
80001668:	00000000 	nop
8000166c:	8d64fff0 	lw	a0,-16(t3)
80001670:	2562fff0 	addiu	v0,t3,-16
80001674:	2606fffc 	addiu	a2,s0,-4
80001678:	00406825 	move	t5,v0
8000167c:	03c4c82a 	slt	t9,s8,a0
80001680:	132004e6 	beqz	t9,80002a1c <_quick_sort+0x204c>
80001684:	00000000 	nop
80001688:	8d64ffec 	lw	a0,-20(t3)
8000168c:	2562ffec 	addiu	v0,t3,-20
80001690:	2606fffb 	addiu	a2,s0,-5
80001694:	00406825 	move	t5,v0
80001698:	03c4f82a 	slt	ra,s8,a0
8000169c:	13e004df 	beqz	ra,80002a1c <_quick_sort+0x204c>
800016a0:	00000000 	nop
800016a4:	8d64ffe8 	lw	a0,-24(t3)
800016a8:	2562ffe8 	addiu	v0,t3,-24
800016ac:	2606fffa 	addiu	a2,s0,-6
800016b0:	00406825 	move	t5,v0
800016b4:	03c4402a 	slt	t0,s8,a0
800016b8:	110004d8 	beqz	t0,80002a1c <_quick_sort+0x204c>
800016bc:	00000000 	nop
800016c0:	2606fff9 	addiu	a2,s0,-7
800016c4:	2562ffe4 	addiu	v0,t3,-28
800016c8:	02a6482a 	slt	t1,s5,a2
800016cc:	1520ffc4 	bnez	t1,800015e0 <_quick_sort+0xc10>
800016d0:	00000000 	nop
800016d4:	00067080 	sll	t6,a2,0x2
800016d8:	00155880 	sll	t3,s5,0x2
800016dc:	02ee6821 	addu	t5,s7,t6
800016e0:	02eb1821 	addu	v1,s7,t3
800016e4:	8da40000 	lw	a0,0(t5)
800016e8:	00000000 	nop
800016ec:	ac640000 	sw	a0,0(v1)
800016f0:	ada40000 	sw	a0,0(t5)
800016f4:	26acffff 	addiu	t4,s5,-1
800016f8:	ac7e0000 	sw	s8,0(v1)
800016fc:	00acf02a 	slt	s8,a1,t4
80001700:	afac002c 	sw	t4,44(sp)
80001704:	13c0053c 	beqz	s8,80002bf8 <_quick_sort+0x2228>
80001708:	00000000 	nop
8000170c:	02f88021 	addu	s0,s7,t8
80001710:	8fa7002c 	lw	a3,44(sp)
80001714:	00a0b025 	move	s6,a1
80001718:	8e1f0000 	lw	ra,0(s0)
8000171c:	00077880 	sll	t7,a3,0x2
80001720:	0016c827 	nor	t9,zero,s6
80001724:	02ef1021 	addu	v0,s7,t7
80001728:	03276821 	addu	t5,t9,a3
8000172c:	00402025 	move	a0,v0
80001730:	8c4f0000 	lw	t7,0(v0)
80001734:	31a30007 	andi	v1,t5,0x7
80001738:	03ef402a 	slt	t0,ra,t7
8000173c:	1100008d 	beqz	t0,80001974 <_quick_sort+0xfa4>
80001740:	00000000 	nop
80001744:	24e7ffff 	addiu	a3,a3,-1
80001748:	2442fffc 	addiu	v0,v0,-4
8000174c:	02c7202a 	slt	a0,s6,a3
80001750:	108000ff 	beqz	a0,80001b50 <_quick_sort+0x1180>
80001754:	00000000 	nop
80001758:	10600081 	beqz	v1,80001960 <_quick_sort+0xf90>
8000175c:	00000000 	nop
80001760:	240a0001 	li	t2,1
80001764:	106a003a 	beq	v1,t2,80001850 <_quick_sort+0xe80>
80001768:	00000000 	nop
8000176c:	24060002 	li	a2,2
80001770:	10660030 	beq	v1,a2,80001834 <_quick_sort+0xe64>
80001774:	00000000 	nop
80001778:	24090003 	li	t1,3
8000177c:	10690026 	beq	v1,t1,80001818 <_quick_sort+0xe48>
80001780:	00000000 	nop
80001784:	240e0004 	li	t6,4
80001788:	106e001c 	beq	v1,t6,800017fc <_quick_sort+0xe2c>
8000178c:	00000000 	nop
80001790:	240b0005 	li	t3,5
80001794:	106b0012 	beq	v1,t3,800017e0 <_quick_sort+0xe10>
80001798:	00000000 	nop
8000179c:	240c0006 	li	t4,6
800017a0:	106c0008 	beq	v1,t4,800017c4 <_quick_sort+0xdf4>
800017a4:	00000000 	nop
800017a8:	8c4f0000 	lw	t7,0(v0)
800017ac:	00402025 	move	a0,v0
800017b0:	03eff02a 	slt	s8,ra,t7
800017b4:	13c0006f 	beqz	s8,80001974 <_quick_sort+0xfa4>
800017b8:	00000000 	nop
800017bc:	24e7ffff 	addiu	a3,a3,-1
800017c0:	2442fffc 	addiu	v0,v0,-4
800017c4:	8c4f0000 	lw	t7,0(v0)
800017c8:	00402025 	move	a0,v0
800017cc:	03ef802a 	slt	s0,ra,t7
800017d0:	12000068 	beqz	s0,80001974 <_quick_sort+0xfa4>
800017d4:	00000000 	nop
800017d8:	24e7ffff 	addiu	a3,a3,-1
800017dc:	2442fffc 	addiu	v0,v0,-4
800017e0:	8c4f0000 	lw	t7,0(v0)
800017e4:	00402025 	move	a0,v0
800017e8:	03efc82a 	slt	t9,ra,t7
800017ec:	13200061 	beqz	t9,80001974 <_quick_sort+0xfa4>
800017f0:	00000000 	nop
800017f4:	24e7ffff 	addiu	a3,a3,-1
800017f8:	2442fffc 	addiu	v0,v0,-4
800017fc:	8c4f0000 	lw	t7,0(v0)
80001800:	00402025 	move	a0,v0
80001804:	03ef682a 	slt	t5,ra,t7
80001808:	11a0005a 	beqz	t5,80001974 <_quick_sort+0xfa4>
8000180c:	00000000 	nop
80001810:	24e7ffff 	addiu	a3,a3,-1
80001814:	2442fffc 	addiu	v0,v0,-4
80001818:	8c4f0000 	lw	t7,0(v0)
8000181c:	00402025 	move	a0,v0
80001820:	03ef182a 	slt	v1,ra,t7
80001824:	10600053 	beqz	v1,80001974 <_quick_sort+0xfa4>
80001828:	00000000 	nop
8000182c:	24e7ffff 	addiu	a3,a3,-1
80001830:	2442fffc 	addiu	v0,v0,-4
80001834:	8c4f0000 	lw	t7,0(v0)
80001838:	00402025 	move	a0,v0
8000183c:	03ef402a 	slt	t0,ra,t7
80001840:	1100004c 	beqz	t0,80001974 <_quick_sort+0xfa4>
80001844:	00000000 	nop
80001848:	24e7ffff 	addiu	a3,a3,-1
8000184c:	2442fffc 	addiu	v0,v0,-4
80001850:	8c4f0000 	lw	t7,0(v0)
80001854:	00402025 	move	a0,v0
80001858:	03ef502a 	slt	t2,ra,t7
8000185c:	11400045 	beqz	t2,80001974 <_quick_sort+0xfa4>
80001860:	00000000 	nop
80001864:	24e7ffff 	addiu	a3,a3,-1
80001868:	2442fffc 	addiu	v0,v0,-4
8000186c:	02c7782a 	slt	t7,s6,a3
80001870:	15e0003b 	bnez	t7,80001960 <_quick_sort+0xf90>
80001874:	00000000 	nop
80001878:	100000b5 	b	80001b50 <_quick_sort+0x1180>
8000187c:	00000000 	nop
80001880:	2442fffc 	addiu	v0,v0,-4
80001884:	8c4f0000 	lw	t7,0(v0)
80001888:	24e7ffff 	addiu	a3,a3,-1
8000188c:	00404825 	move	t1,v0
80001890:	03ef582a 	slt	t3,ra,t7
80001894:	00e07025 	move	t6,a3
80001898:	00402025 	move	a0,v0
8000189c:	11600035 	beqz	t3,80001974 <_quick_sort+0xfa4>
800018a0:	00000000 	nop
800018a4:	2442fffc 	addiu	v0,v0,-4
800018a8:	8c4f0000 	lw	t7,0(v0)
800018ac:	24e7ffff 	addiu	a3,a3,-1
800018b0:	00402025 	move	a0,v0
800018b4:	03ef602a 	slt	t4,ra,t7
800018b8:	1180002e 	beqz	t4,80001974 <_quick_sort+0xfa4>
800018bc:	00000000 	nop
800018c0:	8d2ffff8 	lw	t7,-8(t1)
800018c4:	2522fff8 	addiu	v0,t1,-8
800018c8:	25c7fffe 	addiu	a3,t6,-2
800018cc:	00402025 	move	a0,v0
800018d0:	03eff02a 	slt	s8,ra,t7
800018d4:	13c00027 	beqz	s8,80001974 <_quick_sort+0xfa4>
800018d8:	00000000 	nop
800018dc:	8d2ffff4 	lw	t7,-12(t1)
800018e0:	2522fff4 	addiu	v0,t1,-12
800018e4:	25c7fffd 	addiu	a3,t6,-3
800018e8:	00402025 	move	a0,v0
800018ec:	03ef802a 	slt	s0,ra,t7
800018f0:	12000020 	beqz	s0,80001974 <_quick_sort+0xfa4>
800018f4:	00000000 	nop
800018f8:	8d2ffff0 	lw	t7,-16(t1)
800018fc:	2522fff0 	addiu	v0,t1,-16
80001900:	25c7fffc 	addiu	a3,t6,-4
80001904:	00402025 	move	a0,v0
80001908:	03efc82a 	slt	t9,ra,t7
8000190c:	13200019 	beqz	t9,80001974 <_quick_sort+0xfa4>
80001910:	00000000 	nop
80001914:	8d2fffec 	lw	t7,-20(t1)
80001918:	2522ffec 	addiu	v0,t1,-20
8000191c:	25c7fffb 	addiu	a3,t6,-5
80001920:	00402025 	move	a0,v0
80001924:	03ef682a 	slt	t5,ra,t7
80001928:	11a00012 	beqz	t5,80001974 <_quick_sort+0xfa4>
8000192c:	00000000 	nop
80001930:	8d2fffe8 	lw	t7,-24(t1)
80001934:	2522ffe8 	addiu	v0,t1,-24
80001938:	25c7fffa 	addiu	a3,t6,-6
8000193c:	00402025 	move	a0,v0
80001940:	03ef182a 	slt	v1,ra,t7
80001944:	1060000b 	beqz	v1,80001974 <_quick_sort+0xfa4>
80001948:	00000000 	nop
8000194c:	25c7fff9 	addiu	a3,t6,-7
80001950:	2522ffe4 	addiu	v0,t1,-28
80001954:	02c7482a 	slt	t1,s6,a3
80001958:	1120007d 	beqz	t1,80001b50 <_quick_sort+0x1180>
8000195c:	00000000 	nop
80001960:	8c4f0000 	lw	t7,0(v0)
80001964:	00402025 	move	a0,v0
80001968:	03ef302a 	slt	a2,ra,t7
8000196c:	14c0ffc4 	bnez	a2,80001880 <_quick_sort+0xeb0>
80001970:	00000000 	nop
80001974:	00164080 	sll	t0,s6,0x2
80001978:	02c7502a 	slt	t2,s6,a3
8000197c:	02e81821 	addu	v1,s7,t0
80001980:	ac6f0000 	sw	t7,0(v1)
80001984:	11400079 	beqz	t2,80001b6c <_quick_sort+0x119c>
80001988:	00000000 	nop
8000198c:	00163027 	nor	a2,zero,s6
80001990:	00c74821 	addu	t1,a2,a3
80001994:	312b0007 	andi	t3,t1,0x7
80001998:	1160003d 	beqz	t3,80001a90 <_quick_sort+0x10c0>
8000199c:	00000000 	nop
800019a0:	24630004 	addiu	v1,v1,4
800019a4:	8c640000 	lw	a0,0(v1)
800019a8:	26d60001 	addiu	s6,s6,1
800019ac:	03e4702a 	slt	t6,ra,a0
800019b0:	15c00064 	bnez	t6,80001b44 <_quick_sort+0x1174>
800019b4:	00000000 	nop
800019b8:	240c0001 	li	t4,1
800019bc:	116c0034 	beq	t3,t4,80001a90 <_quick_sort+0x10c0>
800019c0:	00000000 	nop
800019c4:	241e0002 	li	s8,2
800019c8:	117e002b 	beq	t3,s8,80001a78 <_quick_sort+0x10a8>
800019cc:	00000000 	nop
800019d0:	24100003 	li	s0,3
800019d4:	11700022 	beq	t3,s0,80001a60 <_quick_sort+0x1090>
800019d8:	00000000 	nop
800019dc:	24190004 	li	t9,4
800019e0:	11790019 	beq	t3,t9,80001a48 <_quick_sort+0x1078>
800019e4:	00000000 	nop
800019e8:	240d0005 	li	t5,5
800019ec:	116d0010 	beq	t3,t5,80001a30 <_quick_sort+0x1060>
800019f0:	00000000 	nop
800019f4:	240f0006 	li	t7,6
800019f8:	116f0007 	beq	t3,t7,80001a18 <_quick_sort+0x1048>
800019fc:	00000000 	nop
80001a00:	8c640004 	lw	a0,4(v1)
80001a04:	26d60001 	addiu	s6,s6,1
80001a08:	24630004 	addiu	v1,v1,4
80001a0c:	03e4402a 	slt	t0,ra,a0
80001a10:	1500004c 	bnez	t0,80001b44 <_quick_sort+0x1174>
80001a14:	00000000 	nop
80001a18:	8c640004 	lw	a0,4(v1)
80001a1c:	26d60001 	addiu	s6,s6,1
80001a20:	24630004 	addiu	v1,v1,4
80001a24:	03e4502a 	slt	t2,ra,a0
80001a28:	15400046 	bnez	t2,80001b44 <_quick_sort+0x1174>
80001a2c:	00000000 	nop
80001a30:	8c640004 	lw	a0,4(v1)
80001a34:	26d60001 	addiu	s6,s6,1
80001a38:	24630004 	addiu	v1,v1,4
80001a3c:	03e4302a 	slt	a2,ra,a0
80001a40:	14c00040 	bnez	a2,80001b44 <_quick_sort+0x1174>
80001a44:	00000000 	nop
80001a48:	8c640004 	lw	a0,4(v1)
80001a4c:	26d60001 	addiu	s6,s6,1
80001a50:	24630004 	addiu	v1,v1,4
80001a54:	03e4482a 	slt	t1,ra,a0
80001a58:	1520003a 	bnez	t1,80001b44 <_quick_sort+0x1174>
80001a5c:	00000000 	nop
80001a60:	8c640004 	lw	a0,4(v1)
80001a64:	26d60001 	addiu	s6,s6,1
80001a68:	24630004 	addiu	v1,v1,4
80001a6c:	03e4582a 	slt	t3,ra,a0
80001a70:	15600034 	bnez	t3,80001b44 <_quick_sort+0x1174>
80001a74:	00000000 	nop
80001a78:	24630004 	addiu	v1,v1,4
80001a7c:	8c640000 	lw	a0,0(v1)
80001a80:	26d60001 	addiu	s6,s6,1
80001a84:	03e4702a 	slt	t6,ra,a0
80001a88:	15c0002e 	bnez	t6,80001b44 <_quick_sort+0x1174>
80001a8c:	00000000 	nop
80001a90:	26d60001 	addiu	s6,s6,1
80001a94:	02c06025 	move	t4,s6
80001a98:	12c70460 	beq	s6,a3,80002c1c <_quick_sort+0x224c>
80001a9c:	00000000 	nop
80001aa0:	8c640004 	lw	a0,4(v1)
80001aa4:	00000000 	nop
80001aa8:	03e4f02a 	slt	s8,ra,a0
80001aac:	17c00025 	bnez	s8,80001b44 <_quick_sort+0x1174>
80001ab0:	00000000 	nop
80001ab4:	8c640008 	lw	a0,8(v1)
80001ab8:	26d60001 	addiu	s6,s6,1
80001abc:	03e4802a 	slt	s0,ra,a0
80001ac0:	16000020 	bnez	s0,80001b44 <_quick_sort+0x1174>
80001ac4:	00000000 	nop
80001ac8:	8c64000c 	lw	a0,12(v1)
80001acc:	25960002 	addiu	s6,t4,2
80001ad0:	03e4c82a 	slt	t9,ra,a0
80001ad4:	1720001b 	bnez	t9,80001b44 <_quick_sort+0x1174>
80001ad8:	00000000 	nop
80001adc:	8c640010 	lw	a0,16(v1)
80001ae0:	25960003 	addiu	s6,t4,3
80001ae4:	03e4682a 	slt	t5,ra,a0
80001ae8:	15a00016 	bnez	t5,80001b44 <_quick_sort+0x1174>
80001aec:	00000000 	nop
80001af0:	8c640014 	lw	a0,20(v1)
80001af4:	25960004 	addiu	s6,t4,4
80001af8:	03e4782a 	slt	t7,ra,a0
80001afc:	15e00011 	bnez	t7,80001b44 <_quick_sort+0x1174>
80001b00:	00000000 	nop
80001b04:	8c640018 	lw	a0,24(v1)
80001b08:	25960005 	addiu	s6,t4,5
80001b0c:	03e4402a 	slt	t0,ra,a0
80001b10:	1500000c 	bnez	t0,80001b44 <_quick_sort+0x1174>
80001b14:	00000000 	nop
80001b18:	24630020 	addiu	v1,v1,32
80001b1c:	8c64fffc 	lw	a0,-4(v1)
80001b20:	25960006 	addiu	s6,t4,6
80001b24:	03e4502a 	slt	t2,ra,a0
80001b28:	15400006 	bnez	t2,80001b44 <_quick_sort+0x1174>
80001b2c:	00000000 	nop
80001b30:	8c640000 	lw	a0,0(v1)
80001b34:	25960007 	addiu	s6,t4,7
80001b38:	03e4302a 	slt	a2,ra,a0
80001b3c:	10c0ffd4 	beqz	a2,80001a90 <_quick_sort+0x10c0>
80001b40:	00000000 	nop
80001b44:	ac440000 	sw	a0,0(v0)
80001b48:	1000fef4 	b	8000171c <_quick_sort+0xd4c>
80001b4c:	00000000 	nop
80001b50:	00075880 	sll	t3,a3,0x2
80001b54:	00167080 	sll	t6,s6,0x2
80001b58:	02eb2021 	addu	a0,s7,t3
80001b5c:	02ee1821 	addu	v1,s7,t6
80001b60:	8c8f0000 	lw	t7,0(a0)
80001b64:	00000000 	nop
80001b68:	ac6f0000 	sw	t7,0(v1)
80001b6c:	ac8f0000 	sw	t7,0(a0)
80001b70:	26ccffff 	addiu	t4,s6,-1
80001b74:	ac7f0000 	sw	ra,0(v1)
80001b78:	00acf82a 	slt	ra,a1,t4
80001b7c:	afac0030 	sw	t4,48(sp)
80001b80:	13e0039d 	beqz	ra,800029f8 <_quick_sort+0x2028>
80001b84:	00000000 	nop
80001b88:	02f8f021 	addu	s8,s7,t8
80001b8c:	8fa70030 	lw	a3,48(sp)
80001b90:	00a07025 	move	t6,a1
80001b94:	8fcd0000 	lw	t5,0(s8)
80001b98:	00078080 	sll	s0,a3,0x2
80001b9c:	000ec827 	nor	t9,zero,t6
80001ba0:	02f01021 	addu	v0,s7,s0
80001ba4:	03274021 	addu	t0,t9,a3
80001ba8:	00402025 	move	a0,v0
80001bac:	8c4f0000 	lw	t7,0(v0)
80001bb0:	31030007 	andi	v1,t0,0x7
80001bb4:	01af502a 	slt	t2,t5,t7
80001bb8:	11400304 	beqz	t2,800027cc <_quick_sort+0x1dfc>
80001bbc:	00000000 	nop
80001bc0:	24e7ffff 	addiu	a3,a3,-1
80001bc4:	2442fffc 	addiu	v0,v0,-4
80001bc8:	01c7782a 	slt	t7,t6,a3
80001bcc:	11e00086 	beqz	t7,80001de8 <_quick_sort+0x1418>
80001bd0:	00000000 	nop
80001bd4:	10600047 	beqz	v1,80001cf4 <_quick_sort+0x1324>
80001bd8:	00000000 	nop
80001bdc:	24040001 	li	a0,1
80001be0:	1064003a 	beq	v1,a0,80001ccc <_quick_sort+0x12fc>
80001be4:	00000000 	nop
80001be8:	24060002 	li	a2,2
80001bec:	10660030 	beq	v1,a2,80001cb0 <_quick_sort+0x12e0>
80001bf0:	00000000 	nop
80001bf4:	24090003 	li	t1,3
80001bf8:	10690026 	beq	v1,t1,80001c94 <_quick_sort+0x12c4>
80001bfc:	00000000 	nop
80001c00:	240b0004 	li	t3,4
80001c04:	106b001c 	beq	v1,t3,80001c78 <_quick_sort+0x12a8>
80001c08:	00000000 	nop
80001c0c:	240c0005 	li	t4,5
80001c10:	106c0012 	beq	v1,t4,80001c5c <_quick_sort+0x128c>
80001c14:	00000000 	nop
80001c18:	241f0006 	li	ra,6
80001c1c:	107f0008 	beq	v1,ra,80001c40 <_quick_sort+0x1270>
80001c20:	00000000 	nop
80001c24:	8c4f0000 	lw	t7,0(v0)
80001c28:	00402025 	move	a0,v0
80001c2c:	01aff02a 	slt	s8,t5,t7
80001c30:	13c002e6 	beqz	s8,800027cc <_quick_sort+0x1dfc>
80001c34:	00000000 	nop
80001c38:	24e7ffff 	addiu	a3,a3,-1
80001c3c:	2442fffc 	addiu	v0,v0,-4
80001c40:	8c4f0000 	lw	t7,0(v0)
80001c44:	00402025 	move	a0,v0
80001c48:	01af802a 	slt	s0,t5,t7
80001c4c:	120002df 	beqz	s0,800027cc <_quick_sort+0x1dfc>
80001c50:	00000000 	nop
80001c54:	24e7ffff 	addiu	a3,a3,-1
80001c58:	2442fffc 	addiu	v0,v0,-4
80001c5c:	8c4f0000 	lw	t7,0(v0)
80001c60:	00402025 	move	a0,v0
80001c64:	01afc82a 	slt	t9,t5,t7
80001c68:	132002d8 	beqz	t9,800027cc <_quick_sort+0x1dfc>
80001c6c:	00000000 	nop
80001c70:	24e7ffff 	addiu	a3,a3,-1
80001c74:	2442fffc 	addiu	v0,v0,-4
80001c78:	8c4f0000 	lw	t7,0(v0)
80001c7c:	00402025 	move	a0,v0
80001c80:	01af402a 	slt	t0,t5,t7
80001c84:	110002d1 	beqz	t0,800027cc <_quick_sort+0x1dfc>
80001c88:	00000000 	nop
80001c8c:	24e7ffff 	addiu	a3,a3,-1
80001c90:	2442fffc 	addiu	v0,v0,-4
80001c94:	8c4f0000 	lw	t7,0(v0)
80001c98:	00402025 	move	a0,v0
80001c9c:	01af182a 	slt	v1,t5,t7
80001ca0:	106002ca 	beqz	v1,800027cc <_quick_sort+0x1dfc>
80001ca4:	00000000 	nop
80001ca8:	24e7ffff 	addiu	a3,a3,-1
80001cac:	2442fffc 	addiu	v0,v0,-4
80001cb0:	8c4f0000 	lw	t7,0(v0)
80001cb4:	00402025 	move	a0,v0
80001cb8:	01af502a 	slt	t2,t5,t7
80001cbc:	114002c3 	beqz	t2,800027cc <_quick_sort+0x1dfc>
80001cc0:	00000000 	nop
80001cc4:	24e7ffff 	addiu	a3,a3,-1
80001cc8:	2442fffc 	addiu	v0,v0,-4
80001ccc:	8c4f0000 	lw	t7,0(v0)
80001cd0:	00402025 	move	a0,v0
80001cd4:	01af302a 	slt	a2,t5,t7
80001cd8:	10c002bc 	beqz	a2,800027cc <_quick_sort+0x1dfc>
80001cdc:	00000000 	nop
80001ce0:	24e7ffff 	addiu	a3,a3,-1
80001ce4:	2442fffc 	addiu	v0,v0,-4
80001ce8:	01c7782a 	slt	t7,t6,a3
80001cec:	11e0003e 	beqz	t7,80001de8 <_quick_sort+0x1418>
80001cf0:	00000000 	nop
80001cf4:	8c4f0000 	lw	t7,0(v0)
80001cf8:	00402025 	move	a0,v0
80001cfc:	01af482a 	slt	t1,t5,t7
80001d00:	112002b2 	beqz	t1,800027cc <_quick_sort+0x1dfc>
80001d04:	00000000 	nop
80001d08:	2442fffc 	addiu	v0,v0,-4
80001d0c:	8c4f0000 	lw	t7,0(v0)
80001d10:	24e7ffff 	addiu	a3,a3,-1
80001d14:	00405825 	move	t3,v0
80001d18:	01af602a 	slt	t4,t5,t7
80001d1c:	00e0f825 	move	ra,a3
80001d20:	00402025 	move	a0,v0
80001d24:	118002a9 	beqz	t4,800027cc <_quick_sort+0x1dfc>
80001d28:	00000000 	nop
80001d2c:	2442fffc 	addiu	v0,v0,-4
80001d30:	8c4f0000 	lw	t7,0(v0)
80001d34:	24e7ffff 	addiu	a3,a3,-1
80001d38:	00402025 	move	a0,v0
80001d3c:	01aff02a 	slt	s8,t5,t7
80001d40:	13c002a2 	beqz	s8,800027cc <_quick_sort+0x1dfc>
80001d44:	00000000 	nop
80001d48:	8d6ffff8 	lw	t7,-8(t3)
80001d4c:	2562fff8 	addiu	v0,t3,-8
80001d50:	27e7fffe 	addiu	a3,ra,-2
80001d54:	00402025 	move	a0,v0
80001d58:	01af802a 	slt	s0,t5,t7
80001d5c:	1200029b 	beqz	s0,800027cc <_quick_sort+0x1dfc>
80001d60:	00000000 	nop
80001d64:	8d6ffff4 	lw	t7,-12(t3)
80001d68:	2562fff4 	addiu	v0,t3,-12
80001d6c:	27e7fffd 	addiu	a3,ra,-3
80001d70:	00402025 	move	a0,v0
80001d74:	01afc82a 	slt	t9,t5,t7
80001d78:	13200294 	beqz	t9,800027cc <_quick_sort+0x1dfc>
80001d7c:	00000000 	nop
80001d80:	8d6ffff0 	lw	t7,-16(t3)
80001d84:	2562fff0 	addiu	v0,t3,-16
80001d88:	27e7fffc 	addiu	a3,ra,-4
80001d8c:	00402025 	move	a0,v0
80001d90:	01af402a 	slt	t0,t5,t7
80001d94:	1100028d 	beqz	t0,800027cc <_quick_sort+0x1dfc>
80001d98:	00000000 	nop
80001d9c:	8d6fffec 	lw	t7,-20(t3)
80001da0:	2562ffec 	addiu	v0,t3,-20
80001da4:	27e7fffb 	addiu	a3,ra,-5
80001da8:	00402025 	move	a0,v0
80001dac:	01af182a 	slt	v1,t5,t7
80001db0:	10600286 	beqz	v1,800027cc <_quick_sort+0x1dfc>
80001db4:	00000000 	nop
80001db8:	8d6fffe8 	lw	t7,-24(t3)
80001dbc:	2562ffe8 	addiu	v0,t3,-24
80001dc0:	27e7fffa 	addiu	a3,ra,-6
80001dc4:	00402025 	move	a0,v0
80001dc8:	01af502a 	slt	t2,t5,t7
80001dcc:	1140027f 	beqz	t2,800027cc <_quick_sort+0x1dfc>
80001dd0:	00000000 	nop
80001dd4:	27e7fff9 	addiu	a3,ra,-7
80001dd8:	2562ffe4 	addiu	v0,t3,-28
80001ddc:	01c7f02a 	slt	s8,t6,a3
80001de0:	17c0ffc4 	bnez	s8,80001cf4 <_quick_sort+0x1324>
80001de4:	00000000 	nop
80001de8:	00078080 	sll	s0,a3,0x2
80001dec:	000ec880 	sll	t9,t6,0x2
80001df0:	02f02021 	addu	a0,s7,s0
80001df4:	02f91821 	addu	v1,s7,t9
80001df8:	8c8f0000 	lw	t7,0(a0)
80001dfc:	00000000 	nop
80001e00:	ac6f0000 	sw	t7,0(v1)
80001e04:	25c8ffff 	addiu	t0,t6,-1
80001e08:	ac8f0000 	sw	t7,0(a0)
80001e0c:	ac6d0000 	sw	t5,0(v1)
80001e10:	00a8682a 	slt	t5,a1,t0
80001e14:	afa80034 	sw	t0,52(sp)
80001e18:	11a002ee 	beqz	t5,800029d4 <_quick_sort+0x2004>
80001e1c:	00000000 	nop
80001e20:	02f87821 	addu	t7,s7,t8
80001e24:	8fa30034 	lw	v1,52(sp)
80001e28:	00a0f025 	move	s8,a1
80001e2c:	8dea0000 	lw	t2,0(t7)
80001e30:	00033080 	sll	a2,v1,0x2
80001e34:	001e4827 	nor	t1,zero,s8
80001e38:	02e61021 	addu	v0,s7,a2
80001e3c:	01235821 	addu	t3,t1,v1
80001e40:	00403825 	move	a3,v0
80001e44:	8c440000 	lw	a0,0(v0)
80001e48:	316c0007 	andi	t4,t3,0x7
80001e4c:	0144f82a 	slt	ra,t2,a0
80001e50:	13e001df 	beqz	ra,800025d0 <_quick_sort+0x1c00>
80001e54:	00000000 	nop
80001e58:	2463ffff 	addiu	v1,v1,-1
80001e5c:	2442fffc 	addiu	v0,v0,-4
80001e60:	03c3202a 	slt	a0,s8,v1
80001e64:	10800086 	beqz	a0,80002080 <_quick_sort+0x16b0>
80001e68:	00000000 	nop
80001e6c:	11800047 	beqz	t4,80001f8c <_quick_sort+0x15bc>
80001e70:	00000000 	nop
80001e74:	24070001 	li	a3,1
80001e78:	1187003a 	beq	t4,a3,80001f64 <_quick_sort+0x1594>
80001e7c:	00000000 	nop
80001e80:	24100002 	li	s0,2
80001e84:	11900030 	beq	t4,s0,80001f48 <_quick_sort+0x1578>
80001e88:	00000000 	nop
80001e8c:	24190003 	li	t9,3
80001e90:	11990026 	beq	t4,t9,80001f2c <_quick_sort+0x155c>
80001e94:	00000000 	nop
80001e98:	24080004 	li	t0,4
80001e9c:	1188001c 	beq	t4,t0,80001f10 <_quick_sort+0x1540>
80001ea0:	00000000 	nop
80001ea4:	240d0005 	li	t5,5
80001ea8:	118d0012 	beq	t4,t5,80001ef4 <_quick_sort+0x1524>
80001eac:	00000000 	nop
80001eb0:	240f0006 	li	t7,6
80001eb4:	118f0008 	beq	t4,t7,80001ed8 <_quick_sort+0x1508>
80001eb8:	00000000 	nop
80001ebc:	8c440000 	lw	a0,0(v0)
80001ec0:	00403825 	move	a3,v0
80001ec4:	0144302a 	slt	a2,t2,a0
80001ec8:	10c001c1 	beqz	a2,800025d0 <_quick_sort+0x1c00>
80001ecc:	00000000 	nop
80001ed0:	2463ffff 	addiu	v1,v1,-1
80001ed4:	2442fffc 	addiu	v0,v0,-4
80001ed8:	8c440000 	lw	a0,0(v0)
80001edc:	00403825 	move	a3,v0
80001ee0:	0144482a 	slt	t1,t2,a0
80001ee4:	112001ba 	beqz	t1,800025d0 <_quick_sort+0x1c00>
80001ee8:	00000000 	nop
80001eec:	2463ffff 	addiu	v1,v1,-1
80001ef0:	2442fffc 	addiu	v0,v0,-4
80001ef4:	8c440000 	lw	a0,0(v0)
80001ef8:	00403825 	move	a3,v0
80001efc:	0144582a 	slt	t3,t2,a0
80001f00:	116001b3 	beqz	t3,800025d0 <_quick_sort+0x1c00>
80001f04:	00000000 	nop
80001f08:	2463ffff 	addiu	v1,v1,-1
80001f0c:	2442fffc 	addiu	v0,v0,-4
80001f10:	8c440000 	lw	a0,0(v0)
80001f14:	00403825 	move	a3,v0
80001f18:	0144602a 	slt	t4,t2,a0
80001f1c:	118001ac 	beqz	t4,800025d0 <_quick_sort+0x1c00>
80001f20:	00000000 	nop
80001f24:	2463ffff 	addiu	v1,v1,-1
80001f28:	2442fffc 	addiu	v0,v0,-4
80001f2c:	8c440000 	lw	a0,0(v0)
80001f30:	00403825 	move	a3,v0
80001f34:	0144f82a 	slt	ra,t2,a0
80001f38:	13e001a5 	beqz	ra,800025d0 <_quick_sort+0x1c00>
80001f3c:	00000000 	nop
80001f40:	2463ffff 	addiu	v1,v1,-1
80001f44:	2442fffc 	addiu	v0,v0,-4
80001f48:	8c440000 	lw	a0,0(v0)
80001f4c:	00403825 	move	a3,v0
80001f50:	0144802a 	slt	s0,t2,a0
80001f54:	1200019e 	beqz	s0,800025d0 <_quick_sort+0x1c00>
80001f58:	00000000 	nop
80001f5c:	2463ffff 	addiu	v1,v1,-1
80001f60:	2442fffc 	addiu	v0,v0,-4
80001f64:	8c440000 	lw	a0,0(v0)
80001f68:	00403825 	move	a3,v0
80001f6c:	0144c82a 	slt	t9,t2,a0
80001f70:	13200197 	beqz	t9,800025d0 <_quick_sort+0x1c00>
80001f74:	00000000 	nop
80001f78:	2463ffff 	addiu	v1,v1,-1
80001f7c:	2442fffc 	addiu	v0,v0,-4
80001f80:	03c3202a 	slt	a0,s8,v1
80001f84:	1080003e 	beqz	a0,80002080 <_quick_sort+0x16b0>
80001f88:	00000000 	nop
80001f8c:	8c440000 	lw	a0,0(v0)
80001f90:	00403825 	move	a3,v0
80001f94:	0144402a 	slt	t0,t2,a0
80001f98:	1100018d 	beqz	t0,800025d0 <_quick_sort+0x1c00>
80001f9c:	00000000 	nop
80001fa0:	2442fffc 	addiu	v0,v0,-4
80001fa4:	8c440000 	lw	a0,0(v0)
80001fa8:	2463ffff 	addiu	v1,v1,-1
80001fac:	00406825 	move	t5,v0
80001fb0:	0144782a 	slt	t7,t2,a0
80001fb4:	00603025 	move	a2,v1
80001fb8:	00403825 	move	a3,v0
80001fbc:	11e00184 	beqz	t7,800025d0 <_quick_sort+0x1c00>
80001fc0:	00000000 	nop
80001fc4:	2442fffc 	addiu	v0,v0,-4
80001fc8:	8c440000 	lw	a0,0(v0)
80001fcc:	2463ffff 	addiu	v1,v1,-1
80001fd0:	00403825 	move	a3,v0
80001fd4:	0144482a 	slt	t1,t2,a0
80001fd8:	1120017d 	beqz	t1,800025d0 <_quick_sort+0x1c00>
80001fdc:	00000000 	nop
80001fe0:	8da4fff8 	lw	a0,-8(t5)
80001fe4:	25a2fff8 	addiu	v0,t5,-8
80001fe8:	24c3fffe 	addiu	v1,a2,-2
80001fec:	00403825 	move	a3,v0
80001ff0:	0144582a 	slt	t3,t2,a0
80001ff4:	11600176 	beqz	t3,800025d0 <_quick_sort+0x1c00>
80001ff8:	00000000 	nop
80001ffc:	8da4fff4 	lw	a0,-12(t5)
80002000:	25a2fff4 	addiu	v0,t5,-12
80002004:	24c3fffd 	addiu	v1,a2,-3
80002008:	00403825 	move	a3,v0
8000200c:	0144602a 	slt	t4,t2,a0
80002010:	1180016f 	beqz	t4,800025d0 <_quick_sort+0x1c00>
80002014:	00000000 	nop
80002018:	8da4fff0 	lw	a0,-16(t5)
8000201c:	25a2fff0 	addiu	v0,t5,-16
80002020:	24c3fffc 	addiu	v1,a2,-4
80002024:	00403825 	move	a3,v0
80002028:	0144f82a 	slt	ra,t2,a0
8000202c:	13e00168 	beqz	ra,800025d0 <_quick_sort+0x1c00>
80002030:	00000000 	nop
80002034:	8da4ffec 	lw	a0,-20(t5)
80002038:	25a2ffec 	addiu	v0,t5,-20
8000203c:	24c3fffb 	addiu	v1,a2,-5
80002040:	00403825 	move	a3,v0
80002044:	0144802a 	slt	s0,t2,a0
80002048:	12000161 	beqz	s0,800025d0 <_quick_sort+0x1c00>
8000204c:	00000000 	nop
80002050:	8da4ffe8 	lw	a0,-24(t5)
80002054:	25a2ffe8 	addiu	v0,t5,-24
80002058:	24c3fffa 	addiu	v1,a2,-6
8000205c:	00403825 	move	a3,v0
80002060:	0144c82a 	slt	t9,t2,a0
80002064:	1320015a 	beqz	t9,800025d0 <_quick_sort+0x1c00>
80002068:	00000000 	nop
8000206c:	24c3fff9 	addiu	v1,a2,-7
80002070:	25a2ffe4 	addiu	v0,t5,-28
80002074:	03c3f82a 	slt	ra,s8,v1
80002078:	17e0ffc4 	bnez	ra,80001f8c <_quick_sort+0x15bc>
8000207c:	00000000 	nop
80002080:	00038080 	sll	s0,v1,0x2
80002084:	001ec880 	sll	t9,s8,0x2
80002088:	02f03821 	addu	a3,s7,s0
8000208c:	02f93021 	addu	a2,s7,t9
80002090:	8ce40000 	lw	a0,0(a3)
80002094:	00000000 	nop
80002098:	acc40000 	sw	a0,0(a2)
8000209c:	ace40000 	sw	a0,0(a3)
800020a0:	27cfffff 	addiu	t7,s8,-1
800020a4:	acca0000 	sw	t2,0(a2)
800020a8:	00af502a 	slt	t2,a1,t7
800020ac:	1140013e 	beqz	t2,800025a8 <_quick_sort+0x1bd8>
800020b0:	00000000 	nop
800020b4:	02f8c021 	addu	t8,s7,t8
800020b8:	01e01825 	move	v1,t7
800020bc:	00a08025 	move	s0,a1
800020c0:	8f080000 	lw	t0,0(t8)
800020c4:	00036880 	sll	t5,v1,0x2
800020c8:	00103027 	nor	a2,zero,s0
800020cc:	02ed1021 	addu	v0,s7,t5
800020d0:	00c34821 	addu	t1,a2,v1
800020d4:	00403025 	move	a2,v0
800020d8:	8c440000 	lw	a0,0(v0)
800020dc:	312b0007 	andi	t3,t1,0x7
800020e0:	0104382a 	slt	a3,t0,a0
800020e4:	10e000a6 	beqz	a3,80002380 <_quick_sort+0x19b0>
800020e8:	00000000 	nop
800020ec:	2463ffff 	addiu	v1,v1,-1
800020f0:	2442fffc 	addiu	v0,v0,-4
800020f4:	0203202a 	slt	a0,s0,v1
800020f8:	10800086 	beqz	a0,80002314 <_quick_sort+0x1944>
800020fc:	00000000 	nop
80002100:	11600047 	beqz	t3,80002220 <_quick_sort+0x1850>
80002104:	00000000 	nop
80002108:	240c0001 	li	t4,1
8000210c:	116c003a 	beq	t3,t4,800021f8 <_quick_sort+0x1828>
80002110:	00000000 	nop
80002114:	241f0002 	li	ra,2
80002118:	117f0030 	beq	t3,ra,800021dc <_quick_sort+0x180c>
8000211c:	00000000 	nop
80002120:	24190003 	li	t9,3
80002124:	11790026 	beq	t3,t9,800021c0 <_quick_sort+0x17f0>
80002128:	00000000 	nop
8000212c:	240a0004 	li	t2,4
80002130:	116a001c 	beq	t3,t2,800021a4 <_quick_sort+0x17d4>
80002134:	00000000 	nop
80002138:	24180005 	li	t8,5
8000213c:	11780012 	beq	t3,t8,80002188 <_quick_sort+0x17b8>
80002140:	00000000 	nop
80002144:	240d0006 	li	t5,6
80002148:	116d0008 	beq	t3,t5,8000216c <_quick_sort+0x179c>
8000214c:	00000000 	nop
80002150:	8c440000 	lw	a0,0(v0)
80002154:	00403025 	move	a2,v0
80002158:	0104482a 	slt	t1,t0,a0
8000215c:	11200088 	beqz	t1,80002380 <_quick_sort+0x19b0>
80002160:	00000000 	nop
80002164:	2463ffff 	addiu	v1,v1,-1
80002168:	2442fffc 	addiu	v0,v0,-4
8000216c:	8c440000 	lw	a0,0(v0)
80002170:	00403025 	move	a2,v0
80002174:	0104582a 	slt	t3,t0,a0
80002178:	11600081 	beqz	t3,80002380 <_quick_sort+0x19b0>
8000217c:	00000000 	nop
80002180:	2463ffff 	addiu	v1,v1,-1
80002184:	2442fffc 	addiu	v0,v0,-4
80002188:	8c440000 	lw	a0,0(v0)
8000218c:	00403025 	move	a2,v0
80002190:	0104382a 	slt	a3,t0,a0
80002194:	10e0007a 	beqz	a3,80002380 <_quick_sort+0x19b0>
80002198:	00000000 	nop
8000219c:	2463ffff 	addiu	v1,v1,-1
800021a0:	2442fffc 	addiu	v0,v0,-4
800021a4:	8c440000 	lw	a0,0(v0)
800021a8:	00403025 	move	a2,v0
800021ac:	0104602a 	slt	t4,t0,a0
800021b0:	11800073 	beqz	t4,80002380 <_quick_sort+0x19b0>
800021b4:	00000000 	nop
800021b8:	2463ffff 	addiu	v1,v1,-1
800021bc:	2442fffc 	addiu	v0,v0,-4
800021c0:	8c440000 	lw	a0,0(v0)
800021c4:	00403025 	move	a2,v0
800021c8:	0104f82a 	slt	ra,t0,a0
800021cc:	13e0006c 	beqz	ra,80002380 <_quick_sort+0x19b0>
800021d0:	00000000 	nop
800021d4:	2463ffff 	addiu	v1,v1,-1
800021d8:	2442fffc 	addiu	v0,v0,-4
800021dc:	8c440000 	lw	a0,0(v0)
800021e0:	00403025 	move	a2,v0
800021e4:	0104c82a 	slt	t9,t0,a0
800021e8:	13200065 	beqz	t9,80002380 <_quick_sort+0x19b0>
800021ec:	00000000 	nop
800021f0:	2463ffff 	addiu	v1,v1,-1
800021f4:	2442fffc 	addiu	v0,v0,-4
800021f8:	8c440000 	lw	a0,0(v0)
800021fc:	00403025 	move	a2,v0
80002200:	0104502a 	slt	t2,t0,a0
80002204:	1140005e 	beqz	t2,80002380 <_quick_sort+0x19b0>
80002208:	00000000 	nop
8000220c:	2463ffff 	addiu	v1,v1,-1
80002210:	2442fffc 	addiu	v0,v0,-4
80002214:	0203302a 	slt	a2,s0,v1
80002218:	10c0003e 	beqz	a2,80002314 <_quick_sort+0x1944>
8000221c:	00000000 	nop
80002220:	8c440000 	lw	a0,0(v0)
80002224:	00403025 	move	a2,v0
80002228:	0104c02a 	slt	t8,t0,a0
8000222c:	13000054 	beqz	t8,80002380 <_quick_sort+0x19b0>
80002230:	00000000 	nop
80002234:	2442fffc 	addiu	v0,v0,-4
80002238:	8c440000 	lw	a0,0(v0)
8000223c:	2463ffff 	addiu	v1,v1,-1
80002240:	00406825 	move	t5,v0
80002244:	0104482a 	slt	t1,t0,a0
80002248:	00605825 	move	t3,v1
8000224c:	00403025 	move	a2,v0
80002250:	1120004b 	beqz	t1,80002380 <_quick_sort+0x19b0>
80002254:	00000000 	nop
80002258:	2442fffc 	addiu	v0,v0,-4
8000225c:	8c440000 	lw	a0,0(v0)
80002260:	2463ffff 	addiu	v1,v1,-1
80002264:	00403025 	move	a2,v0
80002268:	0104382a 	slt	a3,t0,a0
8000226c:	10e00044 	beqz	a3,80002380 <_quick_sort+0x19b0>
80002270:	00000000 	nop
80002274:	8da4fff8 	lw	a0,-8(t5)
80002278:	25a2fff8 	addiu	v0,t5,-8
8000227c:	2563fffe 	addiu	v1,t3,-2
80002280:	00403025 	move	a2,v0
80002284:	0104602a 	slt	t4,t0,a0
80002288:	1180003d 	beqz	t4,80002380 <_quick_sort+0x19b0>
8000228c:	00000000 	nop
80002290:	8da4fff4 	lw	a0,-12(t5)
80002294:	25a2fff4 	addiu	v0,t5,-12
80002298:	2563fffd 	addiu	v1,t3,-3
8000229c:	00403025 	move	a2,v0
800022a0:	0104f82a 	slt	ra,t0,a0
800022a4:	13e00036 	beqz	ra,80002380 <_quick_sort+0x19b0>
800022a8:	00000000 	nop
800022ac:	8da4fff0 	lw	a0,-16(t5)
800022b0:	25a2fff0 	addiu	v0,t5,-16
800022b4:	2563fffc 	addiu	v1,t3,-4
800022b8:	00403025 	move	a2,v0
800022bc:	0104c82a 	slt	t9,t0,a0
800022c0:	1320002f 	beqz	t9,80002380 <_quick_sort+0x19b0>
800022c4:	00000000 	nop
800022c8:	8da4ffec 	lw	a0,-20(t5)
800022cc:	25a2ffec 	addiu	v0,t5,-20
800022d0:	2563fffb 	addiu	v1,t3,-5
800022d4:	00403025 	move	a2,v0
800022d8:	0104502a 	slt	t2,t0,a0
800022dc:	11400028 	beqz	t2,80002380 <_quick_sort+0x19b0>
800022e0:	00000000 	nop
800022e4:	8da4ffe8 	lw	a0,-24(t5)
800022e8:	25a2ffe8 	addiu	v0,t5,-24
800022ec:	2563fffa 	addiu	v1,t3,-6
800022f0:	00403025 	move	a2,v0
800022f4:	0104c02a 	slt	t8,t0,a0
800022f8:	13000021 	beqz	t8,80002380 <_quick_sort+0x19b0>
800022fc:	00000000 	nop
80002300:	2563fff9 	addiu	v1,t3,-7
80002304:	25a2ffe4 	addiu	v0,t5,-28
80002308:	0203682a 	slt	t5,s0,v1
8000230c:	15a0ffc4 	bnez	t5,80002220 <_quick_sort+0x1850>
80002310:	00000000 	nop
80002314:	00034880 	sll	t1,v1,0x2
80002318:	00105880 	sll	t3,s0,0x2
8000231c:	02e93021 	addu	a2,s7,t1
80002320:	02eb5821 	addu	t3,s7,t3
80002324:	8cc40000 	lw	a0,0(a2)
80002328:	00000000 	nop
8000232c:	ad640000 	sw	a0,0(t3)
80002330:	acc40000 	sw	a0,0(a2)
80002334:	2606ffff 	addiu	a2,s0,-1
80002338:	ad680000 	sw	t0,0(t3)
8000233c:	02e02025 	move	a0,s7
80002340:	afae0018 	sw	t6,24(sp)
80002344:	afaf0014 	sw	t7,20(sp)
80002348:	0c000274 	jal	800009d0 <_quick_sort>
8000234c:	00000000 	nop
80002350:	26050001 	addiu	a1,s0,1
80002354:	8faf0014 	lw	t7,20(sp)
80002358:	8fae0018 	lw	t6,24(sp)
8000235c:	00af402a 	slt	t0,a1,t7
80002360:	11000091 	beqz	t0,800025a8 <_quick_sort+0x1bd8>
80002364:	00000000 	nop
80002368:	0005c080 	sll	t8,a1,0x2
8000236c:	1000ff51 	b	800020b4 <_quick_sort+0x16e4>
80002370:	00000000 	nop
	...
80002380:	00106880 	sll	t5,s0,0x2
80002384:	0203482a 	slt	t1,s0,v1
80002388:	02ed5821 	addu	t3,s7,t5
8000238c:	ad640000 	sw	a0,0(t3)
80002390:	1120ffe7 	beqz	t1,80002330 <_quick_sort+0x1960>
80002394:	00000000 	nop
80002398:	00103827 	nor	a3,zero,s0
8000239c:	00e36021 	addu	t4,a3,v1
800023a0:	01602025 	move	a0,t3
800023a4:	319f0007 	andi	ra,t4,0x7
800023a8:	13e0003d 	beqz	ra,800024a0 <_quick_sort+0x1ad0>
800023ac:	00000000 	nop
800023b0:	25640004 	addiu	a0,t3,4
800023b4:	8c860000 	lw	a2,0(a0)
800023b8:	26100001 	addiu	s0,s0,1
800023bc:	0106c82a 	slt	t9,t0,a2
800023c0:	17200064 	bnez	t9,80002554 <_quick_sort+0x1b84>
800023c4:	00000000 	nop
800023c8:	240a0001 	li	t2,1
800023cc:	13ea0034 	beq	ra,t2,800024a0 <_quick_sort+0x1ad0>
800023d0:	00000000 	nop
800023d4:	24060002 	li	a2,2
800023d8:	13e6002b 	beq	ra,a2,80002488 <_quick_sort+0x1ab8>
800023dc:	00000000 	nop
800023e0:	24180003 	li	t8,3
800023e4:	13f80022 	beq	ra,t8,80002470 <_quick_sort+0x1aa0>
800023e8:	00000000 	nop
800023ec:	240d0004 	li	t5,4
800023f0:	13ed0019 	beq	ra,t5,80002458 <_quick_sort+0x1a88>
800023f4:	00000000 	nop
800023f8:	24090005 	li	t1,5
800023fc:	13e90010 	beq	ra,t1,80002440 <_quick_sort+0x1a70>
80002400:	00000000 	nop
80002404:	240b0006 	li	t3,6
80002408:	13eb0007 	beq	ra,t3,80002428 <_quick_sort+0x1a58>
8000240c:	00000000 	nop
80002410:	8c860004 	lw	a2,4(a0)
80002414:	26100001 	addiu	s0,s0,1
80002418:	24840004 	addiu	a0,a0,4
8000241c:	0106382a 	slt	a3,t0,a2
80002420:	14e0004c 	bnez	a3,80002554 <_quick_sort+0x1b84>
80002424:	00000000 	nop
80002428:	8c860004 	lw	a2,4(a0)
8000242c:	26100001 	addiu	s0,s0,1
80002430:	24840004 	addiu	a0,a0,4
80002434:	0106602a 	slt	t4,t0,a2
80002438:	15800046 	bnez	t4,80002554 <_quick_sort+0x1b84>
8000243c:	00000000 	nop
80002440:	8c860004 	lw	a2,4(a0)
80002444:	26100001 	addiu	s0,s0,1
80002448:	24840004 	addiu	a0,a0,4
8000244c:	0106f82a 	slt	ra,t0,a2
80002450:	17e00040 	bnez	ra,80002554 <_quick_sort+0x1b84>
80002454:	00000000 	nop
80002458:	8c860004 	lw	a2,4(a0)
8000245c:	26100001 	addiu	s0,s0,1
80002460:	24840004 	addiu	a0,a0,4
80002464:	0106c82a 	slt	t9,t0,a2
80002468:	1720003a 	bnez	t9,80002554 <_quick_sort+0x1b84>
8000246c:	00000000 	nop
80002470:	8c860004 	lw	a2,4(a0)
80002474:	26100001 	addiu	s0,s0,1
80002478:	24840004 	addiu	a0,a0,4
8000247c:	0106502a 	slt	t2,t0,a2
80002480:	15400034 	bnez	t2,80002554 <_quick_sort+0x1b84>
80002484:	00000000 	nop
80002488:	24840004 	addiu	a0,a0,4
8000248c:	8c860000 	lw	a2,0(a0)
80002490:	26100001 	addiu	s0,s0,1
80002494:	0106c02a 	slt	t8,t0,a2
80002498:	1700002e 	bnez	t8,80002554 <_quick_sort+0x1b84>
8000249c:	00000000 	nop
800024a0:	26100001 	addiu	s0,s0,1
800024a4:	02006825 	move	t5,s0
800024a8:	1203002d 	beq	s0,v1,80002560 <_quick_sort+0x1b90>
800024ac:	00000000 	nop
800024b0:	8c860004 	lw	a2,4(a0)
800024b4:	00000000 	nop
800024b8:	0106482a 	slt	t1,t0,a2
800024bc:	15200025 	bnez	t1,80002554 <_quick_sort+0x1b84>
800024c0:	00000000 	nop
800024c4:	8c860008 	lw	a2,8(a0)
800024c8:	26100001 	addiu	s0,s0,1
800024cc:	0106582a 	slt	t3,t0,a2
800024d0:	15600020 	bnez	t3,80002554 <_quick_sort+0x1b84>
800024d4:	00000000 	nop
800024d8:	8c86000c 	lw	a2,12(a0)
800024dc:	25b00002 	addiu	s0,t5,2
800024e0:	0106382a 	slt	a3,t0,a2
800024e4:	14e0001b 	bnez	a3,80002554 <_quick_sort+0x1b84>
800024e8:	00000000 	nop
800024ec:	8c860010 	lw	a2,16(a0)
800024f0:	25b00003 	addiu	s0,t5,3
800024f4:	0106602a 	slt	t4,t0,a2
800024f8:	15800016 	bnez	t4,80002554 <_quick_sort+0x1b84>
800024fc:	00000000 	nop
80002500:	8c860014 	lw	a2,20(a0)
80002504:	25b00004 	addiu	s0,t5,4
80002508:	0106f82a 	slt	ra,t0,a2
8000250c:	17e00011 	bnez	ra,80002554 <_quick_sort+0x1b84>
80002510:	00000000 	nop
80002514:	8c860018 	lw	a2,24(a0)
80002518:	25b00005 	addiu	s0,t5,5
8000251c:	0106c82a 	slt	t9,t0,a2
80002520:	1720000c 	bnez	t9,80002554 <_quick_sort+0x1b84>
80002524:	00000000 	nop
80002528:	24840020 	addiu	a0,a0,32
8000252c:	8c86fffc 	lw	a2,-4(a0)
80002530:	25b00006 	addiu	s0,t5,6
80002534:	0106502a 	slt	t2,t0,a2
80002538:	15400006 	bnez	t2,80002554 <_quick_sort+0x1b84>
8000253c:	00000000 	nop
80002540:	8c860000 	lw	a2,0(a0)
80002544:	25b00007 	addiu	s0,t5,7
80002548:	0106c02a 	slt	t8,t0,a2
8000254c:	1300ffd4 	beqz	t8,800024a0 <_quick_sort+0x1ad0>
80002550:	00000000 	nop
80002554:	ac460000 	sw	a2,0(v0)
80002558:	1000feda 	b	800020c4 <_quick_sort+0x16f4>
8000255c:	00000000 	nop
80002560:	00101880 	sll	v1,s0,0x2
80002564:	afae0018 	sw	t6,24(sp)
80002568:	2606ffff 	addiu	a2,s0,-1
8000256c:	afaf0014 	sw	t7,20(sp)
80002570:	02e35821 	addu	t3,s7,v1
80002574:	8d640000 	lw	a0,0(t3)
80002578:	00000000 	nop
8000257c:	ac440000 	sw	a0,0(v0)
80002580:	02e02025 	move	a0,s7
80002584:	ad680000 	sw	t0,0(t3)
80002588:	0c000274 	jal	800009d0 <_quick_sort>
8000258c:	00000000 	nop
80002590:	26050001 	addiu	a1,s0,1
80002594:	8faf0014 	lw	t7,20(sp)
80002598:	8fae0018 	lw	t6,24(sp)
8000259c:	00af402a 	slt	t0,a1,t7
800025a0:	1500ff71 	bnez	t0,80002368 <_quick_sort+0x1998>
800025a4:	00000000 	nop
800025a8:	27c50001 	addiu	a1,s8,1
800025ac:	8fbe0034 	lw	s8,52(sp)
800025b0:	00000000 	nop
800025b4:	00be382a 	slt	a3,a1,s8
800025b8:	10e00106 	beqz	a3,800029d4 <_quick_sort+0x2004>
800025bc:	00000000 	nop
800025c0:	0005c080 	sll	t8,a1,0x2
800025c4:	1000fe16 	b	80001e20 <_quick_sort+0x1450>
800025c8:	00000000 	nop
800025cc:	00000000 	nop
800025d0:	001e4080 	sll	t0,s8,0x2
800025d4:	03c3682a 	slt	t5,s8,v1
800025d8:	02e83021 	addu	a2,s7,t0
800025dc:	acc40000 	sw	a0,0(a2)
800025e0:	11a0feae 	beqz	t5,8000209c <_quick_sort+0x16cc>
800025e4:	00000000 	nop
800025e8:	001e7827 	nor	t7,zero,s8
800025ec:	01e34821 	addu	t1,t7,v1
800025f0:	00c02025 	move	a0,a2
800025f4:	312b0007 	andi	t3,t1,0x7
800025f8:	1160003d 	beqz	t3,800026f0 <_quick_sort+0x1d20>
800025fc:	00000000 	nop
80002600:	24c40004 	addiu	a0,a2,4
80002604:	8c870000 	lw	a3,0(a0)
80002608:	27de0001 	addiu	s8,s8,1
8000260c:	0147602a 	slt	t4,t2,a3
80002610:	15800064 	bnez	t4,800027a4 <_quick_sort+0x1dd4>
80002614:	00000000 	nop
80002618:	241f0001 	li	ra,1
8000261c:	117f0034 	beq	t3,ra,800026f0 <_quick_sort+0x1d20>
80002620:	00000000 	nop
80002624:	24100002 	li	s0,2
80002628:	1170002b 	beq	t3,s0,800026d8 <_quick_sort+0x1d08>
8000262c:	00000000 	nop
80002630:	24070003 	li	a3,3
80002634:	11670022 	beq	t3,a3,800026c0 <_quick_sort+0x1cf0>
80002638:	00000000 	nop
8000263c:	24190004 	li	t9,4
80002640:	11790019 	beq	t3,t9,800026a8 <_quick_sort+0x1cd8>
80002644:	00000000 	nop
80002648:	24080005 	li	t0,5
8000264c:	11680010 	beq	t3,t0,80002690 <_quick_sort+0x1cc0>
80002650:	00000000 	nop
80002654:	240d0006 	li	t5,6
80002658:	116d0007 	beq	t3,t5,80002678 <_quick_sort+0x1ca8>
8000265c:	00000000 	nop
80002660:	8c870004 	lw	a3,4(a0)
80002664:	27de0001 	addiu	s8,s8,1
80002668:	24840004 	addiu	a0,a0,4
8000266c:	0147302a 	slt	a2,t2,a3
80002670:	14c0004c 	bnez	a2,800027a4 <_quick_sort+0x1dd4>
80002674:	00000000 	nop
80002678:	8c870004 	lw	a3,4(a0)
8000267c:	27de0001 	addiu	s8,s8,1
80002680:	24840004 	addiu	a0,a0,4
80002684:	0147782a 	slt	t7,t2,a3
80002688:	15e00046 	bnez	t7,800027a4 <_quick_sort+0x1dd4>
8000268c:	00000000 	nop
80002690:	8c870004 	lw	a3,4(a0)
80002694:	27de0001 	addiu	s8,s8,1
80002698:	24840004 	addiu	a0,a0,4
8000269c:	0147482a 	slt	t1,t2,a3
800026a0:	15200040 	bnez	t1,800027a4 <_quick_sort+0x1dd4>
800026a4:	00000000 	nop
800026a8:	8c870004 	lw	a3,4(a0)
800026ac:	27de0001 	addiu	s8,s8,1
800026b0:	24840004 	addiu	a0,a0,4
800026b4:	0147582a 	slt	t3,t2,a3
800026b8:	1560003a 	bnez	t3,800027a4 <_quick_sort+0x1dd4>
800026bc:	00000000 	nop
800026c0:	8c870004 	lw	a3,4(a0)
800026c4:	27de0001 	addiu	s8,s8,1
800026c8:	24840004 	addiu	a0,a0,4
800026cc:	0147602a 	slt	t4,t2,a3
800026d0:	15800034 	bnez	t4,800027a4 <_quick_sort+0x1dd4>
800026d4:	00000000 	nop
800026d8:	24840004 	addiu	a0,a0,4
800026dc:	8c870000 	lw	a3,0(a0)
800026e0:	27de0001 	addiu	s8,s8,1
800026e4:	0147f82a 	slt	ra,t2,a3
800026e8:	17e0002e 	bnez	ra,800027a4 <_quick_sort+0x1dd4>
800026ec:	00000000 	nop
800026f0:	27de0001 	addiu	s8,s8,1
800026f4:	03c08025 	move	s0,s8
800026f8:	13c3002d 	beq	s8,v1,800027b0 <_quick_sort+0x1de0>
800026fc:	00000000 	nop
80002700:	8c870004 	lw	a3,4(a0)
80002704:	00000000 	nop
80002708:	0147c82a 	slt	t9,t2,a3
8000270c:	17200025 	bnez	t9,800027a4 <_quick_sort+0x1dd4>
80002710:	00000000 	nop
80002714:	8c870008 	lw	a3,8(a0)
80002718:	27de0001 	addiu	s8,s8,1
8000271c:	0147402a 	slt	t0,t2,a3
80002720:	15000020 	bnez	t0,800027a4 <_quick_sort+0x1dd4>
80002724:	00000000 	nop
80002728:	8c87000c 	lw	a3,12(a0)
8000272c:	261e0002 	addiu	s8,s0,2
80002730:	0147682a 	slt	t5,t2,a3
80002734:	15a0001b 	bnez	t5,800027a4 <_quick_sort+0x1dd4>
80002738:	00000000 	nop
8000273c:	8c870010 	lw	a3,16(a0)
80002740:	261e0003 	addiu	s8,s0,3
80002744:	0147302a 	slt	a2,t2,a3
80002748:	14c00016 	bnez	a2,800027a4 <_quick_sort+0x1dd4>
8000274c:	00000000 	nop
80002750:	8c870014 	lw	a3,20(a0)
80002754:	261e0004 	addiu	s8,s0,4
80002758:	0147782a 	slt	t7,t2,a3
8000275c:	15e00011 	bnez	t7,800027a4 <_quick_sort+0x1dd4>
80002760:	00000000 	nop
80002764:	8c870018 	lw	a3,24(a0)
80002768:	261e0005 	addiu	s8,s0,5
8000276c:	0147482a 	slt	t1,t2,a3
80002770:	1520000c 	bnez	t1,800027a4 <_quick_sort+0x1dd4>
80002774:	00000000 	nop
80002778:	24840020 	addiu	a0,a0,32
8000277c:	8c87fffc 	lw	a3,-4(a0)
80002780:	261e0006 	addiu	s8,s0,6
80002784:	0147582a 	slt	t3,t2,a3
80002788:	15600006 	bnez	t3,800027a4 <_quick_sort+0x1dd4>
8000278c:	00000000 	nop
80002790:	8c870000 	lw	a3,0(a0)
80002794:	261e0007 	addiu	s8,s0,7
80002798:	0147602a 	slt	t4,t2,a3
8000279c:	1180ffd4 	beqz	t4,800026f0 <_quick_sort+0x1d20>
800027a0:	00000000 	nop
800027a4:	ac470000 	sw	a3,0(v0)
800027a8:	1000fda1 	b	80001e30 <_quick_sort+0x1460>
800027ac:	00000000 	nop
800027b0:	001e1880 	sll	v1,s8,0x2
800027b4:	02e33021 	addu	a2,s7,v1
800027b8:	8cc40000 	lw	a0,0(a2)
800027bc:	00000000 	nop
800027c0:	ac440000 	sw	a0,0(v0)
800027c4:	1000fe36 	b	800020a0 <_quick_sort+0x16d0>
800027c8:	00000000 	nop
800027cc:	000e3080 	sll	a2,t6,0x2
800027d0:	01c7482a 	slt	t1,t6,a3
800027d4:	02e61821 	addu	v1,s7,a2
800027d8:	ac6f0000 	sw	t7,0(v1)
800027dc:	1120fd89 	beqz	t1,80001e04 <_quick_sort+0x1434>
800027e0:	00000000 	nop
800027e4:	000e5827 	nor	t3,zero,t6
800027e8:	01676021 	addu	t4,t3,a3
800027ec:	319f0007 	andi	ra,t4,0x7
800027f0:	13e0003d 	beqz	ra,800028e8 <_quick_sort+0x1f18>
800027f4:	00000000 	nop
800027f8:	24630004 	addiu	v1,v1,4
800027fc:	8c640000 	lw	a0,0(v1)
80002800:	25ce0001 	addiu	t6,t6,1
80002804:	01a4f02a 	slt	s8,t5,a0
80002808:	17c00064 	bnez	s8,8000299c <_quick_sort+0x1fcc>
8000280c:	00000000 	nop
80002810:	24100001 	li	s0,1
80002814:	13f00034 	beq	ra,s0,800028e8 <_quick_sort+0x1f18>
80002818:	00000000 	nop
8000281c:	24190002 	li	t9,2
80002820:	13f9002b 	beq	ra,t9,800028d0 <_quick_sort+0x1f00>
80002824:	00000000 	nop
80002828:	24080003 	li	t0,3
8000282c:	13e80022 	beq	ra,t0,800028b8 <_quick_sort+0x1ee8>
80002830:	00000000 	nop
80002834:	240f0004 	li	t7,4
80002838:	13ef0019 	beq	ra,t7,800028a0 <_quick_sort+0x1ed0>
8000283c:	00000000 	nop
80002840:	24040005 	li	a0,5
80002844:	13e40010 	beq	ra,a0,80002888 <_quick_sort+0x1eb8>
80002848:	00000000 	nop
8000284c:	240a0006 	li	t2,6
80002850:	13ea0007 	beq	ra,t2,80002870 <_quick_sort+0x1ea0>
80002854:	00000000 	nop
80002858:	8c640004 	lw	a0,4(v1)
8000285c:	25ce0001 	addiu	t6,t6,1
80002860:	24630004 	addiu	v1,v1,4
80002864:	01a4302a 	slt	a2,t5,a0
80002868:	14c0004c 	bnez	a2,8000299c <_quick_sort+0x1fcc>
8000286c:	00000000 	nop
80002870:	8c640004 	lw	a0,4(v1)
80002874:	25ce0001 	addiu	t6,t6,1
80002878:	24630004 	addiu	v1,v1,4
8000287c:	01a4482a 	slt	t1,t5,a0
80002880:	15200046 	bnez	t1,8000299c <_quick_sort+0x1fcc>
80002884:	00000000 	nop
80002888:	8c640004 	lw	a0,4(v1)
8000288c:	25ce0001 	addiu	t6,t6,1
80002890:	24630004 	addiu	v1,v1,4
80002894:	01a4582a 	slt	t3,t5,a0
80002898:	15600040 	bnez	t3,8000299c <_quick_sort+0x1fcc>
8000289c:	00000000 	nop
800028a0:	8c640004 	lw	a0,4(v1)
800028a4:	25ce0001 	addiu	t6,t6,1
800028a8:	24630004 	addiu	v1,v1,4
800028ac:	01a4602a 	slt	t4,t5,a0
800028b0:	1580003a 	bnez	t4,8000299c <_quick_sort+0x1fcc>
800028b4:	00000000 	nop
800028b8:	8c640004 	lw	a0,4(v1)
800028bc:	25ce0001 	addiu	t6,t6,1
800028c0:	24630004 	addiu	v1,v1,4
800028c4:	01a4f82a 	slt	ra,t5,a0
800028c8:	17e00034 	bnez	ra,8000299c <_quick_sort+0x1fcc>
800028cc:	00000000 	nop
800028d0:	24630004 	addiu	v1,v1,4
800028d4:	8c640000 	lw	a0,0(v1)
800028d8:	25ce0001 	addiu	t6,t6,1
800028dc:	01a4f02a 	slt	s8,t5,a0
800028e0:	17c0002e 	bnez	s8,8000299c <_quick_sort+0x1fcc>
800028e4:	00000000 	nop
800028e8:	25ce0001 	addiu	t6,t6,1
800028ec:	01c08025 	move	s0,t6
800028f0:	11c7002d 	beq	t6,a3,800029a8 <_quick_sort+0x1fd8>
800028f4:	00000000 	nop
800028f8:	8c640004 	lw	a0,4(v1)
800028fc:	00000000 	nop
80002900:	01a4402a 	slt	t0,t5,a0
80002904:	15000025 	bnez	t0,8000299c <_quick_sort+0x1fcc>
80002908:	00000000 	nop
8000290c:	8c640008 	lw	a0,8(v1)
80002910:	25ce0001 	addiu	t6,t6,1
80002914:	01a4782a 	slt	t7,t5,a0
80002918:	15e00020 	bnez	t7,8000299c <_quick_sort+0x1fcc>
8000291c:	00000000 	nop
80002920:	8c64000c 	lw	a0,12(v1)
80002924:	260e0002 	addiu	t6,s0,2
80002928:	01a4502a 	slt	t2,t5,a0
8000292c:	1540001b 	bnez	t2,8000299c <_quick_sort+0x1fcc>
80002930:	00000000 	nop
80002934:	8c640010 	lw	a0,16(v1)
80002938:	260e0003 	addiu	t6,s0,3
8000293c:	01a4302a 	slt	a2,t5,a0
80002940:	14c00016 	bnez	a2,8000299c <_quick_sort+0x1fcc>
80002944:	00000000 	nop
80002948:	8c640014 	lw	a0,20(v1)
8000294c:	260e0004 	addiu	t6,s0,4
80002950:	01a4482a 	slt	t1,t5,a0
80002954:	15200011 	bnez	t1,8000299c <_quick_sort+0x1fcc>
80002958:	00000000 	nop
8000295c:	8c640018 	lw	a0,24(v1)
80002960:	260e0005 	addiu	t6,s0,5
80002964:	01a4582a 	slt	t3,t5,a0
80002968:	1560000c 	bnez	t3,8000299c <_quick_sort+0x1fcc>
8000296c:	00000000 	nop
80002970:	24630020 	addiu	v1,v1,32
80002974:	8c64fffc 	lw	a0,-4(v1)
80002978:	260e0006 	addiu	t6,s0,6
8000297c:	01a4602a 	slt	t4,t5,a0
80002980:	15800006 	bnez	t4,8000299c <_quick_sort+0x1fcc>
80002984:	00000000 	nop
80002988:	8c640000 	lw	a0,0(v1)
8000298c:	260e0007 	addiu	t6,s0,7
80002990:	01a4f82a 	slt	ra,t5,a0
80002994:	13e0ffd4 	beqz	ra,800028e8 <_quick_sort+0x1f18>
80002998:	00000000 	nop
8000299c:	ac440000 	sw	a0,0(v0)
800029a0:	1000fc7d 	b	80001b98 <_quick_sort+0x11c8>
800029a4:	00000000 	nop
800029a8:	000e3880 	sll	a3,t6,0x2
800029ac:	25c8ffff 	addiu	t0,t6,-1
800029b0:	02e71821 	addu	v1,s7,a3
800029b4:	afa80034 	sw	t0,52(sp)
800029b8:	8c790000 	lw	t9,0(v1)
800029bc:	00000000 	nop
800029c0:	ac590000 	sw	t9,0(v0)
800029c4:	ac6d0000 	sw	t5,0(v1)
800029c8:	00a8682a 	slt	t5,a1,t0
800029cc:	15a0fd14 	bnez	t5,80001e20 <_quick_sort+0x1450>
800029d0:	00000000 	nop
800029d4:	25c50001 	addiu	a1,t6,1
800029d8:	8fae0030 	lw	t6,48(sp)
800029dc:	00000000 	nop
800029e0:	00ae602a 	slt	t4,a1,t6
800029e4:	11800004 	beqz	t4,800029f8 <_quick_sort+0x2028>
800029e8:	00000000 	nop
800029ec:	0005c080 	sll	t8,a1,0x2
800029f0:	1000fc65 	b	80001b88 <_quick_sort+0x11b8>
800029f4:	00000000 	nop
800029f8:	26c50001 	addiu	a1,s6,1
800029fc:	8fb6002c 	lw	s6,44(sp)
80002a00:	00000000 	nop
80002a04:	00b6f82a 	slt	ra,a1,s6
80002a08:	13e0007b 	beqz	ra,80002bf8 <_quick_sort+0x2228>
80002a0c:	00000000 	nop
80002a10:	0005c080 	sll	t8,a1,0x2
80002a14:	1000fb3d 	b	8000170c <_quick_sort+0xd3c>
80002a18:	00000000 	nop
80002a1c:	00155080 	sll	t2,s5,0x2
80002a20:	02a6482a 	slt	t1,s5,a2
80002a24:	02ea1821 	addu	v1,s7,t2
80002a28:	ac640000 	sw	a0,0(v1)
80002a2c:	1120fb30 	beqz	t1,800016f0 <_quick_sort+0xd20>
80002a30:	00000000 	nop
80002a34:	00157027 	nor	t6,zero,s5
80002a38:	01c65821 	addu	t3,t6,a2
80002a3c:	316c0007 	andi	t4,t3,0x7
80002a40:	1180003d 	beqz	t4,80002b38 <_quick_sort+0x2168>
80002a44:	00000000 	nop
80002a48:	24630004 	addiu	v1,v1,4
80002a4c:	8c640000 	lw	a0,0(v1)
80002a50:	26b50001 	addiu	s5,s5,1
80002a54:	03c4802a 	slt	s0,s8,a0
80002a58:	16000064 	bnez	s0,80002bec <_quick_sort+0x221c>
80002a5c:	00000000 	nop
80002a60:	240f0001 	li	t7,1
80002a64:	118f0034 	beq	t4,t7,80002b38 <_quick_sort+0x2168>
80002a68:	00000000 	nop
80002a6c:	24160002 	li	s6,2
80002a70:	1196002b 	beq	t4,s6,80002b20 <_quick_sort+0x2150>
80002a74:	00000000 	nop
80002a78:	24070003 	li	a3,3
80002a7c:	11870022 	beq	t4,a3,80002b08 <_quick_sort+0x2138>
80002a80:	00000000 	nop
80002a84:	24190004 	li	t9,4
80002a88:	11990019 	beq	t4,t9,80002af0 <_quick_sort+0x2120>
80002a8c:	00000000 	nop
80002a90:	241f0005 	li	ra,5
80002a94:	119f0010 	beq	t4,ra,80002ad8 <_quick_sort+0x2108>
80002a98:	00000000 	nop
80002a9c:	24040006 	li	a0,6
80002aa0:	11840007 	beq	t4,a0,80002ac0 <_quick_sort+0x20f0>
80002aa4:	00000000 	nop
80002aa8:	8c640004 	lw	a0,4(v1)
80002aac:	26b50001 	addiu	s5,s5,1
80002ab0:	24630004 	addiu	v1,v1,4
80002ab4:	03c4682a 	slt	t5,s8,a0
80002ab8:	15a0004c 	bnez	t5,80002bec <_quick_sort+0x221c>
80002abc:	00000000 	nop
80002ac0:	8c640004 	lw	a0,4(v1)
80002ac4:	26b50001 	addiu	s5,s5,1
80002ac8:	24630004 	addiu	v1,v1,4
80002acc:	03c4402a 	slt	t0,s8,a0
80002ad0:	15000046 	bnez	t0,80002bec <_quick_sort+0x221c>
80002ad4:	00000000 	nop
80002ad8:	8c640004 	lw	a0,4(v1)
80002adc:	26b50001 	addiu	s5,s5,1
80002ae0:	24630004 	addiu	v1,v1,4
80002ae4:	03c4502a 	slt	t2,s8,a0
80002ae8:	15400040 	bnez	t2,80002bec <_quick_sort+0x221c>
80002aec:	00000000 	nop
80002af0:	8c640004 	lw	a0,4(v1)
80002af4:	26b50001 	addiu	s5,s5,1
80002af8:	24630004 	addiu	v1,v1,4
80002afc:	03c4482a 	slt	t1,s8,a0
80002b00:	1520003a 	bnez	t1,80002bec <_quick_sort+0x221c>
80002b04:	00000000 	nop
80002b08:	8c640004 	lw	a0,4(v1)
80002b0c:	26b50001 	addiu	s5,s5,1
80002b10:	24630004 	addiu	v1,v1,4
80002b14:	03c4702a 	slt	t6,s8,a0
80002b18:	15c00034 	bnez	t6,80002bec <_quick_sort+0x221c>
80002b1c:	00000000 	nop
80002b20:	24630004 	addiu	v1,v1,4
80002b24:	8c640000 	lw	a0,0(v1)
80002b28:	26b50001 	addiu	s5,s5,1
80002b2c:	03c4582a 	slt	t3,s8,a0
80002b30:	1560002e 	bnez	t3,80002bec <_quick_sort+0x221c>
80002b34:	00000000 	nop
80002b38:	26b50001 	addiu	s5,s5,1
80002b3c:	02a06025 	move	t4,s5
80002b40:	12a60046 	beq	s5,a2,80002c5c <_quick_sort+0x228c>
80002b44:	00000000 	nop
80002b48:	8c640004 	lw	a0,4(v1)
80002b4c:	00000000 	nop
80002b50:	03c4782a 	slt	t7,s8,a0
80002b54:	15e00025 	bnez	t7,80002bec <_quick_sort+0x221c>
80002b58:	00000000 	nop
80002b5c:	8c640008 	lw	a0,8(v1)
80002b60:	26b50001 	addiu	s5,s5,1
80002b64:	03c4b02a 	slt	s6,s8,a0
80002b68:	16c00020 	bnez	s6,80002bec <_quick_sort+0x221c>
80002b6c:	00000000 	nop
80002b70:	8c64000c 	lw	a0,12(v1)
80002b74:	25950002 	addiu	s5,t4,2
80002b78:	03c4382a 	slt	a3,s8,a0
80002b7c:	14e0001b 	bnez	a3,80002bec <_quick_sort+0x221c>
80002b80:	00000000 	nop
80002b84:	8c640010 	lw	a0,16(v1)
80002b88:	25950003 	addiu	s5,t4,3
80002b8c:	03c4c82a 	slt	t9,s8,a0
80002b90:	17200016 	bnez	t9,80002bec <_quick_sort+0x221c>
80002b94:	00000000 	nop
80002b98:	8c640014 	lw	a0,20(v1)
80002b9c:	25950004 	addiu	s5,t4,4
80002ba0:	03c4f82a 	slt	ra,s8,a0
80002ba4:	17e00011 	bnez	ra,80002bec <_quick_sort+0x221c>
80002ba8:	00000000 	nop
80002bac:	8c640018 	lw	a0,24(v1)
80002bb0:	25950005 	addiu	s5,t4,5
80002bb4:	03c4682a 	slt	t5,s8,a0
80002bb8:	15a0000c 	bnez	t5,80002bec <_quick_sort+0x221c>
80002bbc:	00000000 	nop
80002bc0:	24630020 	addiu	v1,v1,32
80002bc4:	8c64fffc 	lw	a0,-4(v1)
80002bc8:	25950006 	addiu	s5,t4,6
80002bcc:	03c4402a 	slt	t0,s8,a0
80002bd0:	15000006 	bnez	t0,80002bec <_quick_sort+0x221c>
80002bd4:	00000000 	nop
80002bd8:	8c640000 	lw	a0,0(v1)
80002bdc:	25950007 	addiu	s5,t4,7
80002be0:	03c4502a 	slt	t2,s8,a0
80002be4:	1140ffd4 	beqz	t2,80002b38 <_quick_sort+0x2168>
80002be8:	00000000 	nop
80002bec:	ac440000 	sw	a0,0(v0)
80002bf0:	1000fa24 	b	80001484 <_quick_sort+0xab4>
80002bf4:	00000000 	nop
80002bf8:	26a50001 	addiu	a1,s5,1
80002bfc:	8fb50028 	lw	s5,40(sp)
80002c00:	00000000 	nop
80002c04:	00b5c82a 	slt	t9,a1,s5
80002c08:	1320000b 	beqz	t9,80002c38 <_quick_sort+0x2268>
80002c0c:	00000000 	nop
80002c10:	0005c080 	sll	t8,a1,0x2
80002c14:	1000fa17 	b	80001474 <_quick_sort+0xaa4>
80002c18:	00000000 	nop
80002c1c:	00163880 	sll	a3,s6,0x2
80002c20:	02e71821 	addu	v1,s7,a3
80002c24:	8c640000 	lw	a0,0(v1)
80002c28:	00000000 	nop
80002c2c:	ac440000 	sw	a0,0(v0)
80002c30:	1000fbcf 	b	80001b70 <_quick_sort+0x11a0>
80002c34:	00000000 	nop
80002c38:	26850001 	addiu	a1,s4,1
80002c3c:	8fb40024 	lw	s4,36(sp)
80002c40:	00000000 	nop
80002c44:	00b4202a 	slt	a0,a1,s4
80002c48:	108001e7 	beqz	a0,800033e8 <_quick_sort+0x2a18>
80002c4c:	00000000 	nop
80002c50:	0005c080 	sll	t8,a1,0x2
80002c54:	1000f961 	b	800011dc <_quick_sort+0x80c>
80002c58:	00000000 	nop
80002c5c:	00153080 	sll	a2,s5,0x2
80002c60:	02e61821 	addu	v1,s7,a2
80002c64:	8c700000 	lw	s0,0(v1)
80002c68:	00000000 	nop
80002c6c:	ac500000 	sw	s0,0(v0)
80002c70:	1000faa0 	b	800016f4 <_quick_sort+0xd24>
80002c74:	00000000 	nop
80002c78:	00147880 	sll	t7,s4,0x2
80002c7c:	0286a82a 	slt	s5,s4,a2
80002c80:	02ef1821 	addu	v1,s7,t7
80002c84:	ac640000 	sw	a0,0(v1)
80002c88:	12a0f9f3 	beqz	s5,80001458 <_quick_sort+0xa88>
80002c8c:	00000000 	nop
80002c90:	0014b027 	nor	s6,zero,s4
80002c94:	02c6c821 	addu	t9,s6,a2
80002c98:	333e0007 	andi	s8,t9,0x7
80002c9c:	13c0003d 	beqz	s8,80002d94 <_quick_sort+0x23c4>
80002ca0:	00000000 	nop
80002ca4:	24630004 	addiu	v1,v1,4
80002ca8:	8c640000 	lw	a0,0(v1)
80002cac:	26940001 	addiu	s4,s4,1
80002cb0:	00e4f82a 	slt	ra,a3,a0
80002cb4:	17e00064 	bnez	ra,80002e48 <_quick_sort+0x2478>
80002cb8:	00000000 	nop
80002cbc:	24080001 	li	t0,1
80002cc0:	13c80034 	beq	s8,t0,80002d94 <_quick_sort+0x23c4>
80002cc4:	00000000 	nop
80002cc8:	240a0002 	li	t2,2
80002ccc:	13ca002b 	beq	s8,t2,80002d7c <_quick_sort+0x23ac>
80002cd0:	00000000 	nop
80002cd4:	240d0003 	li	t5,3
80002cd8:	13cd0022 	beq	s8,t5,80002d64 <_quick_sort+0x2394>
80002cdc:	00000000 	nop
80002ce0:	240e0004 	li	t6,4
80002ce4:	13ce0019 	beq	s8,t6,80002d4c <_quick_sort+0x237c>
80002ce8:	00000000 	nop
80002cec:	24090005 	li	t1,5
80002cf0:	13c90010 	beq	s8,t1,80002d34 <_quick_sort+0x2364>
80002cf4:	00000000 	nop
80002cf8:	240b0006 	li	t3,6
80002cfc:	13cb0007 	beq	s8,t3,80002d1c <_quick_sort+0x234c>
80002d00:	00000000 	nop
80002d04:	8c640004 	lw	a0,4(v1)
80002d08:	26940001 	addiu	s4,s4,1
80002d0c:	24630004 	addiu	v1,v1,4
80002d10:	00e4602a 	slt	t4,a3,a0
80002d14:	1580004c 	bnez	t4,80002e48 <_quick_sort+0x2478>
80002d18:	00000000 	nop
80002d1c:	8c640004 	lw	a0,4(v1)
80002d20:	26940001 	addiu	s4,s4,1
80002d24:	24630004 	addiu	v1,v1,4
80002d28:	00e4802a 	slt	s0,a3,a0
80002d2c:	16000046 	bnez	s0,80002e48 <_quick_sort+0x2478>
80002d30:	00000000 	nop
80002d34:	8c640004 	lw	a0,4(v1)
80002d38:	26940001 	addiu	s4,s4,1
80002d3c:	24630004 	addiu	v1,v1,4
80002d40:	00e4782a 	slt	t7,a3,a0
80002d44:	15e00040 	bnez	t7,80002e48 <_quick_sort+0x2478>
80002d48:	00000000 	nop
80002d4c:	8c640004 	lw	a0,4(v1)
80002d50:	26940001 	addiu	s4,s4,1
80002d54:	24630004 	addiu	v1,v1,4
80002d58:	00e4a82a 	slt	s5,a3,a0
80002d5c:	16a0003a 	bnez	s5,80002e48 <_quick_sort+0x2478>
80002d60:	00000000 	nop
80002d64:	8c640004 	lw	a0,4(v1)
80002d68:	26940001 	addiu	s4,s4,1
80002d6c:	24630004 	addiu	v1,v1,4
80002d70:	00e4b02a 	slt	s6,a3,a0
80002d74:	16c00034 	bnez	s6,80002e48 <_quick_sort+0x2478>
80002d78:	00000000 	nop
80002d7c:	24630004 	addiu	v1,v1,4
80002d80:	8c640000 	lw	a0,0(v1)
80002d84:	26940001 	addiu	s4,s4,1
80002d88:	00e4c82a 	slt	t9,a3,a0
80002d8c:	1720002e 	bnez	t9,80002e48 <_quick_sort+0x2478>
80002d90:	00000000 	nop
80002d94:	26940001 	addiu	s4,s4,1
80002d98:	0280f025 	move	s8,s4
80002d9c:	1286019b 	beq	s4,a2,8000340c <_quick_sort+0x2a3c>
80002da0:	00000000 	nop
80002da4:	8c640004 	lw	a0,4(v1)
80002da8:	00000000 	nop
80002dac:	00e4f82a 	slt	ra,a3,a0
80002db0:	17e00025 	bnez	ra,80002e48 <_quick_sort+0x2478>
80002db4:	00000000 	nop
80002db8:	8c640008 	lw	a0,8(v1)
80002dbc:	26940001 	addiu	s4,s4,1
80002dc0:	00e4402a 	slt	t0,a3,a0
80002dc4:	15000020 	bnez	t0,80002e48 <_quick_sort+0x2478>
80002dc8:	00000000 	nop
80002dcc:	8c64000c 	lw	a0,12(v1)
80002dd0:	27d40002 	addiu	s4,s8,2
80002dd4:	00e4502a 	slt	t2,a3,a0
80002dd8:	1540001b 	bnez	t2,80002e48 <_quick_sort+0x2478>
80002ddc:	00000000 	nop
80002de0:	8c640010 	lw	a0,16(v1)
80002de4:	27d40003 	addiu	s4,s8,3
80002de8:	00e4682a 	slt	t5,a3,a0
80002dec:	15a00016 	bnez	t5,80002e48 <_quick_sort+0x2478>
80002df0:	00000000 	nop
80002df4:	8c640014 	lw	a0,20(v1)
80002df8:	27d40004 	addiu	s4,s8,4
80002dfc:	00e4702a 	slt	t6,a3,a0
80002e00:	15c00011 	bnez	t6,80002e48 <_quick_sort+0x2478>
80002e04:	00000000 	nop
80002e08:	8c640018 	lw	a0,24(v1)
80002e0c:	27d40005 	addiu	s4,s8,5
80002e10:	00e4482a 	slt	t1,a3,a0
80002e14:	1520000c 	bnez	t1,80002e48 <_quick_sort+0x2478>
80002e18:	00000000 	nop
80002e1c:	24630020 	addiu	v1,v1,32
80002e20:	8c64fffc 	lw	a0,-4(v1)
80002e24:	27d40006 	addiu	s4,s8,6
80002e28:	00e4582a 	slt	t3,a3,a0
80002e2c:	15600006 	bnez	t3,80002e48 <_quick_sort+0x2478>
80002e30:	00000000 	nop
80002e34:	8c640000 	lw	a0,0(v1)
80002e38:	27d40007 	addiu	s4,s8,7
80002e3c:	00e4602a 	slt	t4,a3,a0
80002e40:	1180ffd4 	beqz	t4,80002d94 <_quick_sort+0x23c4>
80002e44:	00000000 	nop
80002e48:	ac440000 	sw	a0,0(v0)
80002e4c:	1000f8e7 	b	800011ec <_quick_sort+0x81c>
80002e50:	00000000 	nop
80002e54:	00127880 	sll	t7,s2,0x2
80002e58:	0246802a 	slt	s0,s2,a2
80002e5c:	02ef1821 	addu	v1,s7,t7
80002e60:	ac640000 	sw	a0,0(v1)
80002e64:	1200f830 	beqz	s0,80000f28 <_quick_sort+0x558>
80002e68:	00000000 	nop
80002e6c:	02463823 	subu	a3,s2,a2
80002e70:	00079827 	nor	s3,zero,a3
80002e74:	32740007 	andi	s4,s3,0x7
80002e78:	1280003d 	beqz	s4,80002f70 <_quick_sort+0x25a0>
80002e7c:	00000000 	nop
80002e80:	24630004 	addiu	v1,v1,4
80002e84:	8c680000 	lw	t0,0(v1)
80002e88:	26520001 	addiu	s2,s2,1
80002e8c:	0128a82a 	slt	s5,t1,t0
80002e90:	16a00064 	bnez	s5,80003024 <_quick_sort+0x2654>
80002e94:	00000000 	nop
80002e98:	24160001 	li	s6,1
80002e9c:	12960034 	beq	s4,s6,80002f70 <_quick_sort+0x25a0>
80002ea0:	00000000 	nop
80002ea4:	24190002 	li	t9,2
80002ea8:	1299002b 	beq	s4,t9,80002f58 <_quick_sort+0x2588>
80002eac:	00000000 	nop
80002eb0:	241e0003 	li	s8,3
80002eb4:	129e0022 	beq	s4,s8,80002f40 <_quick_sort+0x2570>
80002eb8:	00000000 	nop
80002ebc:	241f0004 	li	ra,4
80002ec0:	129f0019 	beq	s4,ra,80002f28 <_quick_sort+0x2558>
80002ec4:	00000000 	nop
80002ec8:	24080005 	li	t0,5
80002ecc:	12880010 	beq	s4,t0,80002f10 <_quick_sort+0x2540>
80002ed0:	00000000 	nop
80002ed4:	240c0006 	li	t4,6
80002ed8:	128c0007 	beq	s4,t4,80002ef8 <_quick_sort+0x2528>
80002edc:	00000000 	nop
80002ee0:	8c680004 	lw	t0,4(v1)
80002ee4:	26520001 	addiu	s2,s2,1
80002ee8:	24630004 	addiu	v1,v1,4
80002eec:	0128502a 	slt	t2,t1,t0
80002ef0:	1540004c 	bnez	t2,80003024 <_quick_sort+0x2654>
80002ef4:	00000000 	nop
80002ef8:	8c680004 	lw	t0,4(v1)
80002efc:	26520001 	addiu	s2,s2,1
80002f00:	24630004 	addiu	v1,v1,4
80002f04:	0128682a 	slt	t5,t1,t0
80002f08:	15a00046 	bnez	t5,80003024 <_quick_sort+0x2654>
80002f0c:	00000000 	nop
80002f10:	8c680004 	lw	t0,4(v1)
80002f14:	26520001 	addiu	s2,s2,1
80002f18:	24630004 	addiu	v1,v1,4
80002f1c:	0128582a 	slt	t3,t1,t0
80002f20:	15600040 	bnez	t3,80003024 <_quick_sort+0x2654>
80002f24:	00000000 	nop
80002f28:	8c680004 	lw	t0,4(v1)
80002f2c:	26520001 	addiu	s2,s2,1
80002f30:	24630004 	addiu	v1,v1,4
80002f34:	0128702a 	slt	t6,t1,t0
80002f38:	15c0003a 	bnez	t6,80003024 <_quick_sort+0x2654>
80002f3c:	00000000 	nop
80002f40:	8c680004 	lw	t0,4(v1)
80002f44:	26520001 	addiu	s2,s2,1
80002f48:	24630004 	addiu	v1,v1,4
80002f4c:	0128782a 	slt	t7,t1,t0
80002f50:	15e00034 	bnez	t7,80003024 <_quick_sort+0x2654>
80002f54:	00000000 	nop
80002f58:	24630004 	addiu	v1,v1,4
80002f5c:	8c680000 	lw	t0,0(v1)
80002f60:	26520001 	addiu	s2,s2,1
80002f64:	0128802a 	slt	s0,t1,t0
80002f68:	1600002e 	bnez	s0,80003024 <_quick_sort+0x2654>
80002f6c:	00000000 	nop
80002f70:	26520001 	addiu	s2,s2,1
80002f74:	02403825 	move	a3,s2
80002f78:	10d2014e 	beq	a2,s2,800034b4 <_quick_sort+0x2ae4>
80002f7c:	00000000 	nop
80002f80:	8c680004 	lw	t0,4(v1)
80002f84:	00000000 	nop
80002f88:	0128982a 	slt	s3,t1,t0
80002f8c:	16600025 	bnez	s3,80003024 <_quick_sort+0x2654>
80002f90:	00000000 	nop
80002f94:	8c680008 	lw	t0,8(v1)
80002f98:	26520001 	addiu	s2,s2,1
80002f9c:	0128a02a 	slt	s4,t1,t0
80002fa0:	16800020 	bnez	s4,80003024 <_quick_sort+0x2654>
80002fa4:	00000000 	nop
80002fa8:	8c68000c 	lw	t0,12(v1)
80002fac:	24f20002 	addiu	s2,a3,2
80002fb0:	0128a82a 	slt	s5,t1,t0
80002fb4:	16a0001b 	bnez	s5,80003024 <_quick_sort+0x2654>
80002fb8:	00000000 	nop
80002fbc:	8c680010 	lw	t0,16(v1)
80002fc0:	24f20003 	addiu	s2,a3,3
80002fc4:	0128b02a 	slt	s6,t1,t0
80002fc8:	16c00016 	bnez	s6,80003024 <_quick_sort+0x2654>
80002fcc:	00000000 	nop
80002fd0:	8c680014 	lw	t0,20(v1)
80002fd4:	24f20004 	addiu	s2,a3,4
80002fd8:	0128c82a 	slt	t9,t1,t0
80002fdc:	17200011 	bnez	t9,80003024 <_quick_sort+0x2654>
80002fe0:	00000000 	nop
80002fe4:	8c680018 	lw	t0,24(v1)
80002fe8:	24f20005 	addiu	s2,a3,5
80002fec:	0128f02a 	slt	s8,t1,t0
80002ff0:	17c0000c 	bnez	s8,80003024 <_quick_sort+0x2654>
80002ff4:	00000000 	nop
80002ff8:	24630020 	addiu	v1,v1,32
80002ffc:	8c68fffc 	lw	t0,-4(v1)
80003000:	24f20006 	addiu	s2,a3,6
80003004:	0128f82a 	slt	ra,t1,t0
80003008:	17e00006 	bnez	ra,80003024 <_quick_sort+0x2654>
8000300c:	00000000 	nop
80003010:	8c680000 	lw	t0,0(v1)
80003014:	24f20007 	addiu	s2,a3,7
80003018:	0128602a 	slt	t4,t1,t0
8000301c:	1180ffd4 	beqz	t4,80002f70 <_quick_sort+0x25a0>
80003020:	00000000 	nop
80003024:	ac480000 	sw	t0,0(v0)
80003028:	1000f724 	b	80000cbc <_quick_sort+0x2ec>
8000302c:	00000000 	nop
80003030:	00134880 	sll	t1,s3,0x2
80003034:	0266582a 	slt	t3,s3,a2
80003038:	02e91821 	addu	v1,s7,t1
8000303c:	ac640000 	sw	a0,0(v1)
80003040:	1160f85f 	beqz	t3,800011c0 <_quick_sort+0x7f0>
80003044:	00000000 	nop
80003048:	02667823 	subu	t7,s3,a2
8000304c:	000f3827 	nor	a3,zero,t7
80003050:	30f40007 	andi	s4,a3,0x7
80003054:	1280003d 	beqz	s4,8000314c <_quick_sort+0x277c>
80003058:	00000000 	nop
8000305c:	24630004 	addiu	v1,v1,4
80003060:	8c6a0000 	lw	t2,0(v1)
80003064:	26730001 	addiu	s3,s3,1
80003068:	020aa82a 	slt	s5,s0,t2
8000306c:	16a00064 	bnez	s5,80003200 <_quick_sort+0x2830>
80003070:	00000000 	nop
80003074:	24160001 	li	s6,1
80003078:	12960034 	beq	s4,s6,8000314c <_quick_sort+0x277c>
8000307c:	00000000 	nop
80003080:	24190002 	li	t9,2
80003084:	1299002b 	beq	s4,t9,80003134 <_quick_sort+0x2764>
80003088:	00000000 	nop
8000308c:	241e0003 	li	s8,3
80003090:	129e0022 	beq	s4,s8,8000311c <_quick_sort+0x274c>
80003094:	00000000 	nop
80003098:	241f0004 	li	ra,4
8000309c:	129f0019 	beq	s4,ra,80003104 <_quick_sort+0x2734>
800030a0:	00000000 	nop
800030a4:	24080005 	li	t0,5
800030a8:	12880010 	beq	s4,t0,800030ec <_quick_sort+0x271c>
800030ac:	00000000 	nop
800030b0:	240a0006 	li	t2,6
800030b4:	128a0007 	beq	s4,t2,800030d4 <_quick_sort+0x2704>
800030b8:	00000000 	nop
800030bc:	8c6a0004 	lw	t2,4(v1)
800030c0:	26730001 	addiu	s3,s3,1
800030c4:	24630004 	addiu	v1,v1,4
800030c8:	020a682a 	slt	t5,s0,t2
800030cc:	15a0004c 	bnez	t5,80003200 <_quick_sort+0x2830>
800030d0:	00000000 	nop
800030d4:	8c6a0004 	lw	t2,4(v1)
800030d8:	26730001 	addiu	s3,s3,1
800030dc:	24630004 	addiu	v1,v1,4
800030e0:	020a602a 	slt	t4,s0,t2
800030e4:	15800046 	bnez	t4,80003200 <_quick_sort+0x2830>
800030e8:	00000000 	nop
800030ec:	8c6a0004 	lw	t2,4(v1)
800030f0:	26730001 	addiu	s3,s3,1
800030f4:	24630004 	addiu	v1,v1,4
800030f8:	020a702a 	slt	t6,s0,t2
800030fc:	15c00040 	bnez	t6,80003200 <_quick_sort+0x2830>
80003100:	00000000 	nop
80003104:	8c6a0004 	lw	t2,4(v1)
80003108:	26730001 	addiu	s3,s3,1
8000310c:	24630004 	addiu	v1,v1,4
80003110:	020a482a 	slt	t1,s0,t2
80003114:	1520003a 	bnez	t1,80003200 <_quick_sort+0x2830>
80003118:	00000000 	nop
8000311c:	8c6a0004 	lw	t2,4(v1)
80003120:	26730001 	addiu	s3,s3,1
80003124:	24630004 	addiu	v1,v1,4
80003128:	020a582a 	slt	t3,s0,t2
8000312c:	15600034 	bnez	t3,80003200 <_quick_sort+0x2830>
80003130:	00000000 	nop
80003134:	24630004 	addiu	v1,v1,4
80003138:	8c6a0000 	lw	t2,0(v1)
8000313c:	26730001 	addiu	s3,s3,1
80003140:	020a782a 	slt	t7,s0,t2
80003144:	15e0002e 	bnez	t7,80003200 <_quick_sort+0x2830>
80003148:	00000000 	nop
8000314c:	26730001 	addiu	s3,s3,1
80003150:	02603825 	move	a3,s3
80003154:	10d300bd 	beq	a2,s3,8000344c <_quick_sort+0x2a7c>
80003158:	00000000 	nop
8000315c:	8c6a0004 	lw	t2,4(v1)
80003160:	00000000 	nop
80003164:	020aa02a 	slt	s4,s0,t2
80003168:	16800025 	bnez	s4,80003200 <_quick_sort+0x2830>
8000316c:	00000000 	nop
80003170:	8c6a0008 	lw	t2,8(v1)
80003174:	26730001 	addiu	s3,s3,1
80003178:	020aa82a 	slt	s5,s0,t2
8000317c:	16a00020 	bnez	s5,80003200 <_quick_sort+0x2830>
80003180:	00000000 	nop
80003184:	8c6a000c 	lw	t2,12(v1)
80003188:	24f30002 	addiu	s3,a3,2
8000318c:	020ab02a 	slt	s6,s0,t2
80003190:	16c0001b 	bnez	s6,80003200 <_quick_sort+0x2830>
80003194:	00000000 	nop
80003198:	8c6a0010 	lw	t2,16(v1)
8000319c:	24f30003 	addiu	s3,a3,3
800031a0:	020ac82a 	slt	t9,s0,t2
800031a4:	17200016 	bnez	t9,80003200 <_quick_sort+0x2830>
800031a8:	00000000 	nop
800031ac:	8c6a0014 	lw	t2,20(v1)
800031b0:	24f30004 	addiu	s3,a3,4
800031b4:	020af02a 	slt	s8,s0,t2
800031b8:	17c00011 	bnez	s8,80003200 <_quick_sort+0x2830>
800031bc:	00000000 	nop
800031c0:	8c6a0018 	lw	t2,24(v1)
800031c4:	24f30005 	addiu	s3,a3,5
800031c8:	020af82a 	slt	ra,s0,t2
800031cc:	17e0000c 	bnez	ra,80003200 <_quick_sort+0x2830>
800031d0:	00000000 	nop
800031d4:	24630020 	addiu	v1,v1,32
800031d8:	8c6afffc 	lw	t2,-4(v1)
800031dc:	24f30006 	addiu	s3,a3,6
800031e0:	020a402a 	slt	t0,s0,t2
800031e4:	15000006 	bnez	t0,80003200 <_quick_sort+0x2830>
800031e8:	00000000 	nop
800031ec:	8c6a0000 	lw	t2,0(v1)
800031f0:	24f30007 	addiu	s3,a3,7
800031f4:	020a682a 	slt	t5,s0,t2
800031f8:	11a0ffd4 	beqz	t5,8000314c <_quick_sort+0x277c>
800031fc:	00000000 	nop
80003200:	ac4a0000 	sw	t2,0(v0)
80003204:	1000f753 	b	80000f54 <_quick_sort+0x584>
80003208:	00000000 	nop
8000320c:	0011a880 	sll	s5,s1,0x2
80003210:	0226b02a 	slt	s6,s1,a2
80003214:	02f51821 	addu	v1,s7,s5
80003218:	ac730000 	sw	s3,0(v1)
8000321c:	12c0f69c 	beqz	s6,80000c90 <_quick_sort+0x2c0>
80003220:	00000000 	nop
80003224:	0226c823 	subu	t9,s1,a2
80003228:	0019f027 	nor	s8,zero,t9
8000322c:	33df0007 	andi	ra,s8,0x7
80003230:	13e0003d 	beqz	ra,80003328 <_quick_sort+0x2958>
80003234:	00000000 	nop
80003238:	24630004 	addiu	v1,v1,4
8000323c:	8c640000 	lw	a0,0(v1)
80003240:	26310001 	addiu	s1,s1,1
80003244:	00e4402a 	slt	t0,a3,a0
80003248:	15000064 	bnez	t0,800033dc <_quick_sort+0x2a0c>
8000324c:	00000000 	nop
80003250:	24040001 	li	a0,1
80003254:	13e40034 	beq	ra,a0,80003328 <_quick_sort+0x2958>
80003258:	00000000 	nop
8000325c:	240c0002 	li	t4,2
80003260:	13ec002b 	beq	ra,t4,80003310 <_quick_sort+0x2940>
80003264:	00000000 	nop
80003268:	240b0003 	li	t3,3
8000326c:	13eb0022 	beq	ra,t3,800032f8 <_quick_sort+0x2928>
80003270:	00000000 	nop
80003274:	240a0004 	li	t2,4
80003278:	13ea0019 	beq	ra,t2,800032e0 <_quick_sort+0x2910>
8000327c:	00000000 	nop
80003280:	240d0005 	li	t5,5
80003284:	13ed0010 	beq	ra,t5,800032c8 <_quick_sort+0x28f8>
80003288:	00000000 	nop
8000328c:	240e0006 	li	t6,6
80003290:	13ee0007 	beq	ra,t6,800032b0 <_quick_sort+0x28e0>
80003294:	00000000 	nop
80003298:	8c640004 	lw	a0,4(v1)
8000329c:	26310001 	addiu	s1,s1,1
800032a0:	24630004 	addiu	v1,v1,4
800032a4:	00e4782a 	slt	t7,a3,a0
800032a8:	15e0004c 	bnez	t7,800033dc <_quick_sort+0x2a0c>
800032ac:	00000000 	nop
800032b0:	8c640004 	lw	a0,4(v1)
800032b4:	26310001 	addiu	s1,s1,1
800032b8:	24630004 	addiu	v1,v1,4
800032bc:	00e4802a 	slt	s0,a3,a0
800032c0:	16000046 	bnez	s0,800033dc <_quick_sort+0x2a0c>
800032c4:	00000000 	nop
800032c8:	8c640004 	lw	a0,4(v1)
800032cc:	26310001 	addiu	s1,s1,1
800032d0:	24630004 	addiu	v1,v1,4
800032d4:	00e4902a 	slt	s2,a3,a0
800032d8:	16400040 	bnez	s2,800033dc <_quick_sort+0x2a0c>
800032dc:	00000000 	nop
800032e0:	8c640004 	lw	a0,4(v1)
800032e4:	26310001 	addiu	s1,s1,1
800032e8:	24630004 	addiu	v1,v1,4
800032ec:	00e4982a 	slt	s3,a3,a0
800032f0:	1660003a 	bnez	s3,800033dc <_quick_sort+0x2a0c>
800032f4:	00000000 	nop
800032f8:	8c640004 	lw	a0,4(v1)
800032fc:	26310001 	addiu	s1,s1,1
80003300:	24630004 	addiu	v1,v1,4
80003304:	00e4482a 	slt	t1,a3,a0
80003308:	15200034 	bnez	t1,800033dc <_quick_sort+0x2a0c>
8000330c:	00000000 	nop
80003310:	24630004 	addiu	v1,v1,4
80003314:	8c640000 	lw	a0,0(v1)
80003318:	26310001 	addiu	s1,s1,1
8000331c:	00e4a02a 	slt	s4,a3,a0
80003320:	1680002e 	bnez	s4,800033dc <_quick_sort+0x2a0c>
80003324:	00000000 	nop
80003328:	26310001 	addiu	s1,s1,1
8000332c:	0220a825 	move	s5,s1
80003330:	10d10067 	beq	a2,s1,800034d0 <_quick_sort+0x2b00>
80003334:	00000000 	nop
80003338:	8c640004 	lw	a0,4(v1)
8000333c:	00000000 	nop
80003340:	00e4c82a 	slt	t9,a3,a0
80003344:	17200025 	bnez	t9,800033dc <_quick_sort+0x2a0c>
80003348:	00000000 	nop
8000334c:	8c640008 	lw	a0,8(v1)
80003350:	26310001 	addiu	s1,s1,1
80003354:	00e4f02a 	slt	s8,a3,a0
80003358:	17c00020 	bnez	s8,800033dc <_quick_sort+0x2a0c>
8000335c:	00000000 	nop
80003360:	8c64000c 	lw	a0,12(v1)
80003364:	26b10002 	addiu	s1,s5,2
80003368:	00e4f82a 	slt	ra,a3,a0
8000336c:	17e0001b 	bnez	ra,800033dc <_quick_sort+0x2a0c>
80003370:	00000000 	nop
80003374:	8c640010 	lw	a0,16(v1)
80003378:	26b10003 	addiu	s1,s5,3
8000337c:	00e4402a 	slt	t0,a3,a0
80003380:	15000016 	bnez	t0,800033dc <_quick_sort+0x2a0c>
80003384:	00000000 	nop
80003388:	8c640014 	lw	a0,20(v1)
8000338c:	26b10004 	addiu	s1,s5,4
80003390:	00e4602a 	slt	t4,a3,a0
80003394:	15800011 	bnez	t4,800033dc <_quick_sort+0x2a0c>
80003398:	00000000 	nop
8000339c:	8c640018 	lw	a0,24(v1)
800033a0:	26b10005 	addiu	s1,s5,5
800033a4:	00e4582a 	slt	t3,a3,a0
800033a8:	1560000c 	bnez	t3,800033dc <_quick_sort+0x2a0c>
800033ac:	00000000 	nop
800033b0:	24630020 	addiu	v1,v1,32
800033b4:	8c64fffc 	lw	a0,-4(v1)
800033b8:	26b10006 	addiu	s1,s5,6
800033bc:	00e4502a 	slt	t2,a3,a0
800033c0:	15400006 	bnez	t2,800033dc <_quick_sort+0x2a0c>
800033c4:	00000000 	nop
800033c8:	8c640000 	lw	a0,0(v1)
800033cc:	26b10007 	addiu	s1,s5,7
800033d0:	00e4682a 	slt	t5,a3,a0
800033d4:	11a0ffd4 	beqz	t5,80003328 <_quick_sort+0x2958>
800033d8:	00000000 	nop
800033dc:	ac440000 	sw	a0,0(v0)
800033e0:	1000f590 	b	80000a24 <_quick_sort+0x54>
800033e4:	00000000 	nop
800033e8:	26650001 	addiu	a1,s3,1
800033ec:	8fb30020 	lw	s3,32(sp)
800033f0:	00000000 	nop
800033f4:	00b3502a 	slt	t2,a1,s3
800033f8:	1140000b 	beqz	t2,80003428 <_quick_sort+0x2a58>
800033fc:	00000000 	nop
80003400:	0005c080 	sll	t8,a1,0x2
80003404:	1000f6cf 	b	80000f44 <_quick_sort+0x574>
80003408:	00000000 	nop
8000340c:	00143080 	sll	a2,s4,0x2
80003410:	02e61821 	addu	v1,s7,a2
80003414:	8c640000 	lw	a0,0(v1)
80003418:	00000000 	nop
8000341c:	ac440000 	sw	a0,0(v0)
80003420:	1000f80e 	b	8000145c <_quick_sort+0xa8c>
80003424:	00000000 	nop
80003428:	26450001 	addiu	a1,s2,1
8000342c:	8fb2001c 	lw	s2,28(sp)
80003430:	00000000 	nop
80003434:	00b2302a 	slt	a2,a1,s2
80003438:	10c0000b 	beqz	a2,80003468 <_quick_sort+0x2a98>
8000343c:	00000000 	nop
80003440:	0005c080 	sll	t8,a1,0x2
80003444:	1000f619 	b	80000cac <_quick_sort+0x2dc>
80003448:	00000000 	nop
8000344c:	00133080 	sll	a2,s3,0x2
80003450:	02e61821 	addu	v1,s7,a2
80003454:	8c640000 	lw	a0,0(v1)
80003458:	00000000 	nop
8000345c:	ac440000 	sw	a0,0(v0)
80003460:	1000f758 	b	800011c4 <_quick_sort+0x7f4>
80003464:	00000000 	nop
80003468:	26250001 	addiu	a1,s1,1
8000346c:	8fb10068 	lw	s1,104(sp)
80003470:	00000000 	nop
80003474:	00b1802a 	slt	s0,a1,s1
80003478:	1600f565 	bnez	s0,80000a10 <_quick_sort+0x40>
8000347c:	00000000 	nop
80003480:	8fbf005c 	lw	ra,92(sp)
80003484:	8fbe0058 	lw	s8,88(sp)
80003488:	8fb70054 	lw	s7,84(sp)
8000348c:	8fb60050 	lw	s6,80(sp)
80003490:	8fb5004c 	lw	s5,76(sp)
80003494:	8fb40048 	lw	s4,72(sp)
80003498:	8fb30044 	lw	s3,68(sp)
8000349c:	8fb20040 	lw	s2,64(sp)
800034a0:	8fb1003c 	lw	s1,60(sp)
800034a4:	8fb00038 	lw	s0,56(sp)
800034a8:	27bd0060 	addiu	sp,sp,96
800034ac:	03e00008 	jr	ra
800034b0:	00000000 	nop
800034b4:	00123080 	sll	a2,s2,0x2
800034b8:	02e61821 	addu	v1,s7,a2
800034bc:	8c640000 	lw	a0,0(v1)
800034c0:	00000000 	nop
800034c4:	ac440000 	sw	a0,0(v0)
800034c8:	1000f698 	b	80000f2c <_quick_sort+0x55c>
800034cc:	00000000 	nop
800034d0:	00113080 	sll	a2,s1,0x2
800034d4:	02e61821 	addu	v1,s7,a2
800034d8:	8c760000 	lw	s6,0(v1)
800034dc:	00000000 	nop
800034e0:	ac560000 	sw	s6,0(v0)
800034e4:	1000f5eb 	b	80000c94 <_quick_sort+0x2c4>
800034e8:	00000000 	nop
800034ec:	00000000 	nop

800034f0 <quick_sort>:
quick_sort():
800034f0:	27bdffd8 	addiu	sp,sp,-40
800034f4:	afbf0024 	sw	ra,36(sp)
800034f8:	afb40020 	sw	s4,32(sp)
800034fc:	afb3001c 	sw	s3,28(sp)
80003500:	afb20018 	sw	s2,24(sp)
80003504:	afb10014 	sw	s1,20(sp)
80003508:	afb00010 	sw	s0,16(sp)
8000350c:	18a00198 	blez	a1,80003b70 <quick_sort+0x680>
80003510:	00000000 	nop
80003514:	00053080 	sll	a2,a1,0x2
80003518:	8c820000 	lw	v0,0(a0)
8000351c:	3c118000 	lui	s1,0x8000
80003520:	24c7fffc 	addiu	a3,a2,-4
80003524:	26336f40 	addiu	s3,s1,28480
80003528:	00071882 	srl	v1,a3,0x2
8000352c:	00864821 	addu	t1,a0,a2
80003530:	ae620000 	sw	v0,0(s3)
80003534:	24860004 	addiu	a2,a0,4
80003538:	306a0007 	andi	t2,v1,0x7
8000353c:	26620004 	addiu	v0,s3,4
80003540:	10c9004e 	beq	a2,t1,8000367c <quick_sort+0x18c>
80003544:	00000000 	nop
80003548:	11400031 	beqz	t2,80003610 <quick_sort+0x120>
8000354c:	00000000 	nop
80003550:	24080001 	li	t0,1
80003554:	11480028 	beq	t2,t0,800035f8 <quick_sort+0x108>
80003558:	00000000 	nop
8000355c:	240b0002 	li	t3,2
80003560:	114b0021 	beq	t2,t3,800035e8 <quick_sort+0xf8>
80003564:	00000000 	nop
80003568:	240c0003 	li	t4,3
8000356c:	114c001a 	beq	t2,t4,800035d8 <quick_sort+0xe8>
80003570:	00000000 	nop
80003574:	240d0004 	li	t5,4
80003578:	114d0013 	beq	t2,t5,800035c8 <quick_sort+0xd8>
8000357c:	00000000 	nop
80003580:	240e0005 	li	t6,5
80003584:	114e000c 	beq	t2,t6,800035b8 <quick_sort+0xc8>
80003588:	00000000 	nop
8000358c:	240f0006 	li	t7,6
80003590:	114f0005 	beq	t2,t7,800035a8 <quick_sort+0xb8>
80003594:	00000000 	nop
80003598:	8cd00000 	lw	s0,0(a2)
8000359c:	24860008 	addiu	a2,a0,8
800035a0:	ac500000 	sw	s0,0(v0)
800035a4:	26620008 	addiu	v0,s3,8
800035a8:	8cc40000 	lw	a0,0(a2)
800035ac:	24420004 	addiu	v0,v0,4
800035b0:	24c60004 	addiu	a2,a2,4
800035b4:	ac44fffc 	sw	a0,-4(v0)
800035b8:	8cd20000 	lw	s2,0(a2)
800035bc:	24420004 	addiu	v0,v0,4
800035c0:	24c60004 	addiu	a2,a2,4
800035c4:	ac52fffc 	sw	s2,-4(v0)
800035c8:	8cd40000 	lw	s4,0(a2)
800035cc:	24420004 	addiu	v0,v0,4
800035d0:	24c60004 	addiu	a2,a2,4
800035d4:	ac54fffc 	sw	s4,-4(v0)
800035d8:	8cd80000 	lw	t8,0(a2)
800035dc:	24420004 	addiu	v0,v0,4
800035e0:	24c60004 	addiu	a2,a2,4
800035e4:	ac58fffc 	sw	t8,-4(v0)
800035e8:	8cd90000 	lw	t9,0(a2)
800035ec:	24420004 	addiu	v0,v0,4
800035f0:	24c60004 	addiu	a2,a2,4
800035f4:	ac59fffc 	sw	t9,-4(v0)
800035f8:	8cdf0000 	lw	ra,0(a2)
800035fc:	24420004 	addiu	v0,v0,4
80003600:	24c60004 	addiu	a2,a2,4
80003604:	ac5ffffc 	sw	ra,-4(v0)
80003608:	10c9001c 	beq	a2,t1,8000367c <quick_sort+0x18c>
8000360c:	00000000 	nop
80003610:	8cc70000 	lw	a3,0(a2)
80003614:	24420020 	addiu	v0,v0,32
80003618:	24c60020 	addiu	a2,a2,32
8000361c:	ac47ffe0 	sw	a3,-32(v0)
80003620:	8cc3ffe4 	lw	v1,-28(a2)
80003624:	00000000 	nop
80003628:	ac43ffe4 	sw	v1,-28(v0)
8000362c:	8ccaffe8 	lw	t2,-24(a2)
80003630:	00000000 	nop
80003634:	ac4affe8 	sw	t2,-24(v0)
80003638:	8cc8ffec 	lw	t0,-20(a2)
8000363c:	00000000 	nop
80003640:	ac48ffec 	sw	t0,-20(v0)
80003644:	8ccbfff0 	lw	t3,-16(a2)
80003648:	00000000 	nop
8000364c:	ac4bfff0 	sw	t3,-16(v0)
80003650:	8cccfff4 	lw	t4,-12(a2)
80003654:	00000000 	nop
80003658:	ac4cfff4 	sw	t4,-12(v0)
8000365c:	8ccdfff8 	lw	t5,-8(a2)
80003660:	00000000 	nop
80003664:	ac4dfff8 	sw	t5,-8(v0)
80003668:	8ccefffc 	lw	t6,-4(a2)
8000366c:	00000000 	nop
80003670:	ac4efffc 	sw	t6,-4(v0)
80003674:	14c9ffe6 	bne	a2,t1,80003610 <quick_sort+0x120>
80003678:	00000000 	nop
8000367c:	24b4ffff 	addiu	s4,a1,-1
80003680:	1a800126 	blez	s4,80003b1c <quick_sort+0x62c>
80003684:	00000000 	nop
80003688:	00144880 	sll	t1,s4,0x2
8000368c:	00002825 	move	a1,zero
80003690:	02699021 	addu	s2,s3,t1
80003694:	24180001 	li	t8,1
80003698:	26316f40 	addiu	s1,s1,28480
8000369c:	00057880 	sll	t7,a1,0x2
800036a0:	00a08025 	move	s0,a1
800036a4:	026f6821 	addu	t5,s3,t7
800036a8:	8da70000 	lw	a3,0(t5)
800036ac:	13000112 	beqz	t8,80003af8 <quick_sort+0x608>
800036b0:	00000000 	nop
800036b4:	8e430000 	lw	v1,0(s2)
800036b8:	00a08025 	move	s0,a1
800036bc:	02804025 	move	t0,s4
800036c0:	00e3302a 	slt	a2,a3,v1
800036c4:	10c00106 	beqz	a2,80003ae0 <quick_sort+0x5f0>
800036c8:	00000000 	nop
800036cc:	250fffff 	addiu	t7,t0,-1
800036d0:	01f0c823 	subu	t9,t7,s0
800036d4:	000ff880 	sll	ra,t7,0x2
800036d8:	33260007 	andi	a2,t9,0x7
800036dc:	027f2021 	addu	a0,s3,ra
800036e0:	10c0004b 	beqz	a2,80003810 <quick_sort+0x320>
800036e4:	00000000 	nop
800036e8:	0080c025 	move	t8,a0
800036ec:	2484fffc 	addiu	a0,a0,-4
800036f0:	8c830004 	lw	v1,4(a0)
800036f4:	01e04025 	move	t0,t7
800036f8:	00e3102a 	slt	v0,a3,v1
800036fc:	1040007f 	beqz	v0,800038fc <quick_sort+0x40c>
80003700:	00000000 	nop
80003704:	24030001 	li	v1,1
80003708:	25efffff 	addiu	t7,t7,-1
8000370c:	10c30040 	beq	a2,v1,80003810 <quick_sort+0x320>
80003710:	00000000 	nop
80003714:	240a0002 	li	t2,2
80003718:	10ca0035 	beq	a2,t2,800037f0 <quick_sort+0x300>
8000371c:	00000000 	nop
80003720:	24080003 	li	t0,3
80003724:	10c8002a 	beq	a2,t0,800037d0 <quick_sort+0x2e0>
80003728:	00000000 	nop
8000372c:	240b0004 	li	t3,4
80003730:	10cb001f 	beq	a2,t3,800037b0 <quick_sort+0x2c0>
80003734:	00000000 	nop
80003738:	240c0005 	li	t4,5
8000373c:	10cc0014 	beq	a2,t4,80003790 <quick_sort+0x2a0>
80003740:	00000000 	nop
80003744:	240d0006 	li	t5,6
80003748:	10cd0009 	beq	a2,t5,80003770 <quick_sort+0x280>
8000374c:	00000000 	nop
80003750:	8c830000 	lw	v1,0(a0)
80003754:	0080c025 	move	t8,a0
80003758:	01e04025 	move	t0,t7
8000375c:	2484fffc 	addiu	a0,a0,-4
80003760:	00e3702a 	slt	t6,a3,v1
80003764:	25efffff 	addiu	t7,t7,-1
80003768:	11c00064 	beqz	t6,800038fc <quick_sort+0x40c>
8000376c:	00000000 	nop
80003770:	8c830000 	lw	v1,0(a0)
80003774:	0080c025 	move	t8,a0
80003778:	01e04025 	move	t0,t7
8000377c:	2484fffc 	addiu	a0,a0,-4
80003780:	00e3482a 	slt	t1,a3,v1
80003784:	25efffff 	addiu	t7,t7,-1
80003788:	1120005c 	beqz	t1,800038fc <quick_sort+0x40c>
8000378c:	00000000 	nop
80003790:	8c830000 	lw	v1,0(a0)
80003794:	0080c025 	move	t8,a0
80003798:	01e04025 	move	t0,t7
8000379c:	2484fffc 	addiu	a0,a0,-4
800037a0:	00e3c82a 	slt	t9,a3,v1
800037a4:	25efffff 	addiu	t7,t7,-1
800037a8:	13200054 	beqz	t9,800038fc <quick_sort+0x40c>
800037ac:	00000000 	nop
800037b0:	8c830000 	lw	v1,0(a0)
800037b4:	0080c025 	move	t8,a0
800037b8:	01e04025 	move	t0,t7
800037bc:	2484fffc 	addiu	a0,a0,-4
800037c0:	00e3f82a 	slt	ra,a3,v1
800037c4:	25efffff 	addiu	t7,t7,-1
800037c8:	13e0004c 	beqz	ra,800038fc <quick_sort+0x40c>
800037cc:	00000000 	nop
800037d0:	8c830000 	lw	v1,0(a0)
800037d4:	0080c025 	move	t8,a0
800037d8:	01e04025 	move	t0,t7
800037dc:	2484fffc 	addiu	a0,a0,-4
800037e0:	00e3302a 	slt	a2,a3,v1
800037e4:	25efffff 	addiu	t7,t7,-1
800037e8:	10c00044 	beqz	a2,800038fc <quick_sort+0x40c>
800037ec:	00000000 	nop
800037f0:	0080c025 	move	t8,a0
800037f4:	2484fffc 	addiu	a0,a0,-4
800037f8:	8c830004 	lw	v1,4(a0)
800037fc:	01e04025 	move	t0,t7
80003800:	25efffff 	addiu	t7,t7,-1
80003804:	00e3102a 	slt	v0,a3,v1
80003808:	1040003c 	beqz	v0,800038fc <quick_sort+0x40c>
8000380c:	00000000 	nop
80003810:	2499fffc 	addiu	t9,a0,-4
80003814:	2489fff8 	addiu	t1,a0,-8
80003818:	248afff4 	addiu	t2,a0,-12
8000381c:	249ffff0 	addiu	ra,a0,-16
80003820:	248bffec 	addiu	t3,a0,-20
80003824:	248cffe8 	addiu	t4,a0,-24
80003828:	248dffe4 	addiu	t5,a0,-28
8000382c:	01e04025 	move	t0,t7
80003830:	11f000af 	beq	t7,s0,80003af0 <quick_sort+0x600>
80003834:	00000000 	nop
80003838:	8c830000 	lw	v1,0(a0)
8000383c:	0080c025 	move	t8,a0
80003840:	2484ffe0 	addiu	a0,a0,-32
80003844:	00e3702a 	slt	t6,a3,v1
80003848:	11c0002c 	beqz	t6,800038fc <quick_sort+0x40c>
8000384c:	00000000 	nop
80003850:	8d230004 	lw	v1,4(t1)
80003854:	25e8ffff 	addiu	t0,t7,-1
80003858:	0320c025 	move	t8,t9
8000385c:	00e3302a 	slt	a2,a3,v1
80003860:	10c00026 	beqz	a2,800038fc <quick_sort+0x40c>
80003864:	00000000 	nop
80003868:	8d430004 	lw	v1,4(t2)
8000386c:	25e8fffe 	addiu	t0,t7,-2
80003870:	0120c025 	move	t8,t1
80003874:	00e3102a 	slt	v0,a3,v1
80003878:	10400020 	beqz	v0,800038fc <quick_sort+0x40c>
8000387c:	00000000 	nop
80003880:	8fe30004 	lw	v1,4(ra)
80003884:	25e8fffd 	addiu	t0,t7,-3
80003888:	0140c025 	move	t8,t2
8000388c:	00e3c82a 	slt	t9,a3,v1
80003890:	1320001a 	beqz	t9,800038fc <quick_sort+0x40c>
80003894:	00000000 	nop
80003898:	8d630004 	lw	v1,4(t3)
8000389c:	25e8fffc 	addiu	t0,t7,-4
800038a0:	03e0c025 	move	t8,ra
800038a4:	00e3482a 	slt	t1,a3,v1
800038a8:	11200014 	beqz	t1,800038fc <quick_sort+0x40c>
800038ac:	00000000 	nop
800038b0:	8d830004 	lw	v1,4(t4)
800038b4:	25e8fffb 	addiu	t0,t7,-5
800038b8:	0160c025 	move	t8,t3
800038bc:	00e3502a 	slt	t2,a3,v1
800038c0:	1140000e 	beqz	t2,800038fc <quick_sort+0x40c>
800038c4:	00000000 	nop
800038c8:	8da30004 	lw	v1,4(t5)
800038cc:	25e8fffa 	addiu	t0,t7,-6
800038d0:	0180c025 	move	t8,t4
800038d4:	00e3f82a 	slt	ra,a3,v1
800038d8:	13e00008 	beqz	ra,800038fc <quick_sort+0x40c>
800038dc:	00000000 	nop
800038e0:	8c830004 	lw	v1,4(a0)
800038e4:	25e8fff9 	addiu	t0,t7,-7
800038e8:	01a0c025 	move	t8,t5
800038ec:	25effff8 	addiu	t7,t7,-8
800038f0:	00e3582a 	slt	t3,a3,v1
800038f4:	1560ffc6 	bnez	t3,80003810 <quick_sort+0x320>
800038f8:	00000000 	nop
800038fc:	00106080 	sll	t4,s0,0x2
80003900:	00106827 	nor	t5,zero,s0
80003904:	01a87021 	addu	t6,t5,t0
80003908:	026c2021 	addu	a0,s3,t4
8000390c:	31d90007 	andi	t9,t6,0x7
80003910:	ac830000 	sw	v1,0(a0)
80003914:	13200041 	beqz	t9,80003a1c <quick_sort+0x52c>
80003918:	00000000 	nop
8000391c:	26100001 	addiu	s0,s0,1
80003920:	0208302a 	slt	a2,s0,t0
80003924:	10c0008a 	beqz	a2,80003b50 <quick_sort+0x660>
80003928:	00000000 	nop
8000392c:	24840004 	addiu	a0,a0,4
80003930:	8c830000 	lw	v1,0(a0)
80003934:	00000000 	nop
80003938:	00e3302a 	slt	a2,a3,v1
8000393c:	14c00065 	bnez	a2,80003ad4 <quick_sort+0x5e4>
80003940:	00000000 	nop
80003944:	24020001 	li	v0,1
80003948:	13220034 	beq	t9,v0,80003a1c <quick_sort+0x52c>
8000394c:	00000000 	nop
80003950:	24090002 	li	t1,2
80003954:	1329002b 	beq	t9,t1,80003a04 <quick_sort+0x514>
80003958:	00000000 	nop
8000395c:	240a0003 	li	t2,3
80003960:	132a0022 	beq	t9,t2,800039ec <quick_sort+0x4fc>
80003964:	00000000 	nop
80003968:	241f0004 	li	ra,4
8000396c:	133f0019 	beq	t9,ra,800039d4 <quick_sort+0x4e4>
80003970:	00000000 	nop
80003974:	24030005 	li	v1,5
80003978:	13230010 	beq	t9,v1,800039bc <quick_sort+0x4cc>
8000397c:	00000000 	nop
80003980:	240f0006 	li	t7,6
80003984:	132f0007 	beq	t9,t7,800039a4 <quick_sort+0x4b4>
80003988:	00000000 	nop
8000398c:	8c830004 	lw	v1,4(a0)
80003990:	26100001 	addiu	s0,s0,1
80003994:	24840004 	addiu	a0,a0,4
80003998:	00e3302a 	slt	a2,a3,v1
8000399c:	14c0004d 	bnez	a2,80003ad4 <quick_sort+0x5e4>
800039a0:	00000000 	nop
800039a4:	8c830004 	lw	v1,4(a0)
800039a8:	26100001 	addiu	s0,s0,1
800039ac:	24840004 	addiu	a0,a0,4
800039b0:	00e3302a 	slt	a2,a3,v1
800039b4:	14c00047 	bnez	a2,80003ad4 <quick_sort+0x5e4>
800039b8:	00000000 	nop
800039bc:	8c830004 	lw	v1,4(a0)
800039c0:	26100001 	addiu	s0,s0,1
800039c4:	24840004 	addiu	a0,a0,4
800039c8:	00e3302a 	slt	a2,a3,v1
800039cc:	14c00041 	bnez	a2,80003ad4 <quick_sort+0x5e4>
800039d0:	00000000 	nop
800039d4:	8c830004 	lw	v1,4(a0)
800039d8:	26100001 	addiu	s0,s0,1
800039dc:	24840004 	addiu	a0,a0,4
800039e0:	00e3302a 	slt	a2,a3,v1
800039e4:	14c0003b 	bnez	a2,80003ad4 <quick_sort+0x5e4>
800039e8:	00000000 	nop
800039ec:	8c830004 	lw	v1,4(a0)
800039f0:	26100001 	addiu	s0,s0,1
800039f4:	24840004 	addiu	a0,a0,4
800039f8:	00e3302a 	slt	a2,a3,v1
800039fc:	14c00035 	bnez	a2,80003ad4 <quick_sort+0x5e4>
80003a00:	00000000 	nop
80003a04:	24840004 	addiu	a0,a0,4
80003a08:	8c830000 	lw	v1,0(a0)
80003a0c:	26100001 	addiu	s0,s0,1
80003a10:	00e3302a 	slt	a2,a3,v1
80003a14:	14c0002f 	bnez	a2,80003ad4 <quick_sort+0x5e4>
80003a18:	00000000 	nop
80003a1c:	26100001 	addiu	s0,s0,1
80003a20:	0208582a 	slt	t3,s0,t0
80003a24:	02006025 	move	t4,s0
80003a28:	11600049 	beqz	t3,80003b50 <quick_sort+0x660>
80003a2c:	00000000 	nop
80003a30:	8c830004 	lw	v1,4(a0)
80003a34:	00000000 	nop
80003a38:	00e3302a 	slt	a2,a3,v1
80003a3c:	14c00025 	bnez	a2,80003ad4 <quick_sort+0x5e4>
80003a40:	00000000 	nop
80003a44:	8c830008 	lw	v1,8(a0)
80003a48:	26100001 	addiu	s0,s0,1
80003a4c:	00e3302a 	slt	a2,a3,v1
80003a50:	14c00020 	bnez	a2,80003ad4 <quick_sort+0x5e4>
80003a54:	00000000 	nop
80003a58:	8c83000c 	lw	v1,12(a0)
80003a5c:	25900002 	addiu	s0,t4,2
80003a60:	00e3302a 	slt	a2,a3,v1
80003a64:	14c0001b 	bnez	a2,80003ad4 <quick_sort+0x5e4>
80003a68:	00000000 	nop
80003a6c:	8c830010 	lw	v1,16(a0)
80003a70:	25900003 	addiu	s0,t4,3
80003a74:	00e3302a 	slt	a2,a3,v1
80003a78:	14c00016 	bnez	a2,80003ad4 <quick_sort+0x5e4>
80003a7c:	00000000 	nop
80003a80:	8c830014 	lw	v1,20(a0)
80003a84:	25900004 	addiu	s0,t4,4
80003a88:	00e3302a 	slt	a2,a3,v1
80003a8c:	14c00011 	bnez	a2,80003ad4 <quick_sort+0x5e4>
80003a90:	00000000 	nop
80003a94:	8c830018 	lw	v1,24(a0)
80003a98:	25900005 	addiu	s0,t4,5
80003a9c:	00e3302a 	slt	a2,a3,v1
80003aa0:	14c0000c 	bnez	a2,80003ad4 <quick_sort+0x5e4>
80003aa4:	00000000 	nop
80003aa8:	24840020 	addiu	a0,a0,32
80003aac:	8c83fffc 	lw	v1,-4(a0)
80003ab0:	25900006 	addiu	s0,t4,6
80003ab4:	00e3302a 	slt	a2,a3,v1
80003ab8:	14c00006 	bnez	a2,80003ad4 <quick_sort+0x5e4>
80003abc:	00000000 	nop
80003ac0:	8c830000 	lw	v1,0(a0)
80003ac4:	25900007 	addiu	s0,t4,7
80003ac8:	00e3302a 	slt	a2,a3,v1
80003acc:	10c0ffd3 	beqz	a2,80003a1c <quick_sort+0x52c>
80003ad0:	00000000 	nop
80003ad4:	af030000 	sw	v1,0(t8)
80003ad8:	14c0fefc 	bnez	a2,800036cc <quick_sort+0x1dc>
80003adc:	00000000 	nop
80003ae0:	00082080 	sll	a0,t0,0x2
80003ae4:	0264c021 	addu	t8,s3,a0
80003ae8:	1000ff84 	b	800038fc <quick_sort+0x40c>
80003aec:	00000000 	nop
80003af0:	00107880 	sll	t7,s0,0x2
80003af4:	026f6821 	addu	t5,s3,t7
80003af8:	2606ffff 	addiu	a2,s0,-1
80003afc:	ada70000 	sw	a3,0(t5)
80003b00:	02202025 	move	a0,s1
80003b04:	0c000274 	jal	800009d0 <_quick_sort>
80003b08:	00000000 	nop
80003b0c:	26050001 	addiu	a1,s0,1
80003b10:	00b4c02a 	slt	t8,a1,s4
80003b14:	1700fee1 	bnez	t8,8000369c <quick_sort+0x1ac>
80003b18:	00000000 	nop
80003b1c:	8fbf0024 	lw	ra,36(sp)
80003b20:	02601025 	move	v0,s3
80003b24:	8fb40020 	lw	s4,32(sp)
80003b28:	8fb3001c 	lw	s3,28(sp)
80003b2c:	8fb20018 	lw	s2,24(sp)
80003b30:	8fb10014 	lw	s1,20(sp)
80003b34:	8fb00010 	lw	s0,16(sp)
80003b38:	27bd0028 	addiu	sp,sp,40
80003b3c:	03e00008 	jr	ra
80003b40:	00000000 	nop
	...
80003b50:	00102080 	sll	a0,s0,0x2
80003b54:	02644021 	addu	t0,s3,a0
80003b58:	01006825 	move	t5,t0
80003b5c:	8d0e0000 	lw	t6,0(t0)
80003b60:	00000000 	nop
80003b64:	af0e0000 	sw	t6,0(t8)
80003b68:	1000ffe3 	b	80003af8 <quick_sort+0x608>
80003b6c:	00000000 	nop
80003b70:	3c118000 	lui	s1,0x8000
80003b74:	26336f40 	addiu	s3,s1,28480
80003b78:	1000fec0 	b	8000367c <quick_sort+0x18c>
80003b7c:	00000000 	nop

80003b80 <__divu10>:
__divu10():
80003b80:	00041082 	srl	v0,a0,0x2
80003b84:	00041842 	srl	v1,a0,0x1
80003b88:	24840006 	addiu	a0,a0,6
80003b8c:	00621821 	addu	v1,v1,v0
80003b90:	00031102 	srl	v0,v1,0x4
80003b94:	00621821 	addu	v1,v1,v0
80003b98:	00031202 	srl	v0,v1,0x8
80003b9c:	00621821 	addu	v1,v1,v0
80003ba0:	00031402 	srl	v0,v1,0x10
80003ba4:	00621821 	addu	v1,v1,v0
80003ba8:	000318c2 	srl	v1,v1,0x3
80003bac:	00031040 	sll	v0,v1,0x1
80003bb0:	000328c0 	sll	a1,v1,0x3
80003bb4:	00451021 	addu	v0,v0,a1
80003bb8:	00821023 	subu	v0,a0,v0
80003bbc:	00021102 	srl	v0,v0,0x4
80003bc0:	00431021 	addu	v0,v0,v1
80003bc4:	03e00008 	jr	ra
80003bc8:	00000000 	nop

80003bcc <printnum2>:
printnum2():
80003bcc:	27bdff90 	addiu	sp,sp,-112
80003bd0:	afb0005c 	sw	s0,92(sp)
80003bd4:	00808025 	move	s0,a0
80003bd8:	afbf006c 	sw	ra,108(sp)
80003bdc:	afb30068 	sw	s3,104(sp)
80003be0:	afb20064 	sw	s2,100(sp)
80003be4:	afb10060 	sw	s1,96(sp)
80003be8:	10e00003 	beqz	a3,80003bf8 <printnum2+0x2c>
80003bec:	00000000 	nop
80003bf0:	04800060 	bltz	a0,80003d74 <printnum2+0x1a8>
80003bf4:	00000000 	nop
80003bf8:	12000068 	beqz	s0,80003d9c <printnum2+0x1d0>
80003bfc:	00000000 	nop
80003c00:	27a40010 	addiu	a0,sp,16
80003c04:	00008825 	move	s1,zero
80003c08:	24080002 	li	t0,2
80003c0c:	24090008 	li	t1,8
80003c10:	240a0010 	li	t2,16
80003c14:	10c80040 	beq	a2,t0,80003d18 <printnum2+0x14c>
80003c18:	00000000 	nop
80003c1c:	00101842 	srl	v1,s0,0x1
80003c20:	10c90042 	beq	a2,t1,80003d2c <printnum2+0x160>
80003c24:	00000000 	nop
80003c28:	00101082 	srl	v0,s0,0x2
80003c2c:	10ca0044 	beq	a2,t2,80003d40 <printnum2+0x174>
80003c30:	00000000 	nop
80003c34:	00621821 	addu	v1,v1,v0
80003c38:	26070006 	addiu	a3,s0,6
80003c3c:	00031102 	srl	v0,v1,0x4
80003c40:	00621821 	addu	v1,v1,v0
80003c44:	00031202 	srl	v0,v1,0x8
80003c48:	00621821 	addu	v1,v1,v0
80003c4c:	00031402 	srl	v0,v1,0x10
80003c50:	00621821 	addu	v1,v1,v0
80003c54:	000318c2 	srl	v1,v1,0x3
80003c58:	00031040 	sll	v0,v1,0x1
80003c5c:	000358c0 	sll	t3,v1,0x3
80003c60:	004b1021 	addu	v0,v0,t3
80003c64:	00e21023 	subu	v0,a3,v0
80003c68:	00021102 	srl	v0,v0,0x4
80003c6c:	00621021 	addu	v0,v1,v0
80003c70:	00021840 	sll	v1,v0,0x1
80003c74:	000238c0 	sll	a3,v0,0x3
80003c78:	00671821 	addu	v1,v1,a3
80003c7c:	02031823 	subu	v1,s0,v1
80003c80:	00408025 	move	s0,v0
80003c84:	a0830000 	sb	v1,0(a0)
80003c88:	26310001 	addiu	s1,s1,1
80003c8c:	24840001 	addiu	a0,a0,1
80003c90:	1600ffe0 	bnez	s0,80003c14 <printnum2+0x48>
80003c94:	00000000 	nop
80003c98:	00b1102a 	slt	v0,a1,s1
80003c9c:	10400002 	beqz	v0,80003ca8 <printnum2+0xdc>
80003ca0:	00000000 	nop
80003ca4:	02202825 	move	a1,s1
80003ca8:	10a0002a 	beqz	a1,80003d54 <printnum2+0x188>
80003cac:	00000000 	nop
80003cb0:	27a20010 	addiu	v0,sp,16
80003cb4:	24b0ffff 	addiu	s0,a1,-1
80003cb8:	00459021 	addu	s2,v0,a1
80003cbc:	10000008 	b	80003ce0 <printnum2+0x114>
80003cc0:	00000000 	nop
80003cc4:	24040030 	li	a0,48
80003cc8:	2610ffff 	addiu	s0,s0,-1
80003ccc:	0c0010c8 	jal	80004320 <putchar>
80003cd0:	00000000 	nop
80003cd4:	2652ffff 	addiu	s2,s2,-1
80003cd8:	1260001e 	beqz	s3,80003d54 <printnum2+0x188>
80003cdc:	00000000 	nop
80003ce0:	26020001 	addiu	v0,s0,1
80003ce4:	02009825 	move	s3,s0
80003ce8:	0222102a 	slt	v0,s1,v0
80003cec:	1440fff5 	bnez	v0,80003cc4 <printnum2+0xf8>
80003cf0:	00000000 	nop
80003cf4:	8242ffff 	lb	v0,-1(s2)
80003cf8:	00000000 	nop
80003cfc:	2843000a 	slti	v1,v0,10
80003d00:	24440057 	addiu	a0,v0,87
80003d04:	1060fff0 	beqz	v1,80003cc8 <printnum2+0xfc>
80003d08:	00000000 	nop
80003d0c:	24440030 	addiu	a0,v0,48
80003d10:	1000ffed 	b	80003cc8 <printnum2+0xfc>
80003d14:	00000000 	nop
80003d18:	32020001 	andi	v0,s0,0x1
80003d1c:	00108042 	srl	s0,s0,0x1
80003d20:	a0820000 	sb	v0,0(a0)
80003d24:	1000ffd8 	b	80003c88 <printnum2+0xbc>
80003d28:	00000000 	nop
80003d2c:	32020007 	andi	v0,s0,0x7
80003d30:	001080c2 	srl	s0,s0,0x3
80003d34:	a0820000 	sb	v0,0(a0)
80003d38:	1000ffd3 	b	80003c88 <printnum2+0xbc>
80003d3c:	00000000 	nop
80003d40:	3202000f 	andi	v0,s0,0xf
80003d44:	00108102 	srl	s0,s0,0x4
80003d48:	a0820000 	sb	v0,0(a0)
80003d4c:	1000ffce 	b	80003c88 <printnum2+0xbc>
80003d50:	00000000 	nop
80003d54:	8fbf006c 	lw	ra,108(sp)
80003d58:	8fb30068 	lw	s3,104(sp)
80003d5c:	8fb20064 	lw	s2,100(sp)
80003d60:	8fb10060 	lw	s1,96(sp)
80003d64:	8fb0005c 	lw	s0,92(sp)
80003d68:	27bd0070 	addiu	sp,sp,112
80003d6c:	03e00008 	jr	ra
80003d70:	00000000 	nop
80003d74:	2404002d 	li	a0,45
80003d78:	afa60054 	sw	a2,84(sp)
80003d7c:	afa50050 	sw	a1,80(sp)
80003d80:	00108023 	negu	s0,s0
80003d84:	0c0010c8 	jal	80004320 <putchar>
80003d88:	00000000 	nop
80003d8c:	8fa50050 	lw	a1,80(sp)
80003d90:	8fa60054 	lw	a2,84(sp)
80003d94:	1000ff98 	b	80003bf8 <printnum2+0x2c>
80003d98:	00000000 	nop
80003d9c:	00008825 	move	s1,zero
80003da0:	1000ffbd 	b	80003c98 <printnum2+0xcc>
80003da4:	00000000 	nop

80003da8 <printf>:
printf():
80003da8:	27bdffc8 	addiu	sp,sp,-56
80003dac:	afbf0034 	sw	ra,52(sp)
80003db0:	27a2003c 	addiu	v0,sp,60
80003db4:	afb50030 	sw	s5,48(sp)
80003db8:	afb4002c 	sw	s4,44(sp)
80003dbc:	afb30028 	sw	s3,40(sp)
80003dc0:	afb20024 	sw	s2,36(sp)
80003dc4:	afb10020 	sw	s1,32(sp)
80003dc8:	afb0001c 	sw	s0,28(sp)
80003dcc:	afa5003c 	sw	a1,60(sp)
80003dd0:	afa60040 	sw	a2,64(sp)
80003dd4:	afa70044 	sw	a3,68(sp)
80003dd8:	afa20010 	sw	v0,16(sp)
80003ddc:	80910000 	lb	s1,0(a0)
80003de0:	00000000 	nop
80003de4:	12200015 	beqz	s1,80003e3c <printf+0x94>
80003de8:	00000000 	nop
80003dec:	3c158000 	lui	s5,0x8000
80003df0:	00008025 	move	s0,zero
80003df4:	24130025 	li	s3,37
80003df8:	26b543c0 	addiu	s5,s5,17344
80003dfc:	0040a025 	move	s4,v0
80003e00:	00809025 	move	s2,a0
80003e04:	12330018 	beq	s1,s3,80003e68 <printf+0xc0>
80003e08:	00000000 	nop
80003e0c:	2402000a 	li	v0,10
80003e10:	12220046 	beq	s1,v0,80003f2c <printf+0x184>
80003e14:	00000000 	nop
80003e18:	02202025 	move	a0,s1
80003e1c:	0c0010c8 	jal	80004320 <putchar>
80003e20:	00000000 	nop
80003e24:	26100001 	addiu	s0,s0,1
80003e28:	02501021 	addu	v0,s2,s0
80003e2c:	80510000 	lb	s1,0(v0)
80003e30:	00000000 	nop
80003e34:	1620fff3 	bnez	s1,80003e04 <printf+0x5c>
80003e38:	00000000 	nop
80003e3c:	8fbf0034 	lw	ra,52(sp)
80003e40:	00001025 	move	v0,zero
80003e44:	8fb50030 	lw	s5,48(sp)
80003e48:	8fb4002c 	lw	s4,44(sp)
80003e4c:	8fb30028 	lw	s3,40(sp)
80003e50:	8fb20024 	lw	s2,36(sp)
80003e54:	8fb10020 	lw	s1,32(sp)
80003e58:	8fb0001c 	lw	s0,28(sp)
80003e5c:	27bd0038 	addiu	sp,sp,56
80003e60:	03e00008 	jr	ra
80003e64:	00000000 	nop
80003e68:	02501021 	addu	v0,s2,s0
80003e6c:	24050001 	li	a1,1
80003e70:	80430001 	lb	v1,1(v0)
80003e74:	00000000 	nop
80003e78:	2462ffdb 	addiu	v0,v1,-37
80003e7c:	304200ff 	andi	v0,v0,0xff
80003e80:	2c440054 	sltiu	a0,v0,84
80003e84:	10800024 	beqz	a0,80003f18 <printf+0x170>
80003e88:	00000000 	nop
80003e8c:	00021080 	sll	v0,v0,0x2
80003e90:	02a21021 	addu	v0,s5,v0
80003e94:	8c420000 	lw	v0,0(v0)
80003e98:	00000000 	nop
80003e9c:	00400008 	jr	v0
80003ea0:	00000000 	nop
80003ea4:	26100001 	addiu	s0,s0,1
80003ea8:	02501021 	addu	v0,s2,s0
80003eac:	80430001 	lb	v1,1(v0)
80003eb0:	00000000 	nop
80003eb4:	2462ffcf 	addiu	v0,v1,-49
80003eb8:	304200ff 	andi	v0,v0,0xff
80003ebc:	2c420009 	sltiu	v0,v0,9
80003ec0:	10400069 	beqz	v0,80004068 <printf+0x2c0>
80003ec4:	00000000 	nop
80003ec8:	02503021 	addu	a2,s2,s0
80003ecc:	00002825 	move	a1,zero
80003ed0:	2467ffd0 	addiu	a3,v1,-48
80003ed4:	80c30002 	lb	v1,2(a2)
80003ed8:	00052040 	sll	a0,a1,0x1
80003edc:	000528c0 	sll	a1,a1,0x3
80003ee0:	2462ffcf 	addiu	v0,v1,-49
80003ee4:	00852821 	addu	a1,a0,a1
80003ee8:	304200ff 	andi	v0,v0,0xff
80003eec:	2c420009 	sltiu	v0,v0,9
80003ef0:	00e52821 	addu	a1,a3,a1
80003ef4:	26100001 	addiu	s0,s0,1
80003ef8:	24c60001 	addiu	a2,a2,1
80003efc:	1440fff4 	bnez	v0,80003ed0 <printf+0x128>
80003f00:	00000000 	nop
80003f04:	2462ffdb 	addiu	v0,v1,-37
80003f08:	304200ff 	andi	v0,v0,0xff
80003f0c:	2c440054 	sltiu	a0,v0,84
80003f10:	1480ffde 	bnez	a0,80003e8c <printf+0xe4>
80003f14:	00000000 	nop
80003f18:	24040025 	li	a0,37
80003f1c:	0c0010c8 	jal	80004320 <putchar>
80003f20:	00000000 	nop
80003f24:	1000ffbf 	b	80003e24 <printf+0x7c>
80003f28:	00000000 	nop
80003f2c:	2404000d 	li	a0,13
80003f30:	0c0010c8 	jal	80004320 <putchar>
80003f34:	00000000 	nop
80003f38:	1000ffb7 	b	80003e18 <printf+0x70>
80003f3c:	00000000 	nop
80003f40:	8e840000 	lw	a0,0(s4)
80003f44:	00003825 	move	a3,zero
80003f48:	2406000a 	li	a2,10
80003f4c:	26940004 	addiu	s4,s4,4
80003f50:	0c000ef3 	jal	80003bcc <printnum2>
80003f54:	00000000 	nop
80003f58:	26100001 	addiu	s0,s0,1
80003f5c:	1000ffb1 	b	80003e24 <printf+0x7c>
80003f60:	00000000 	nop
80003f64:	8e840000 	lw	a0,0(s4)
80003f68:	26100001 	addiu	s0,s0,1
80003f6c:	26940004 	addiu	s4,s4,4
80003f70:	0c001090 	jal	80004240 <putstring>
80003f74:	00000000 	nop
80003f78:	1000ffaa 	b	80003e24 <printf+0x7c>
80003f7c:	00000000 	nop
80003f80:	8e840000 	lw	a0,0(s4)
80003f84:	00003825 	move	a3,zero
80003f88:	24060010 	li	a2,16
80003f8c:	26940004 	addiu	s4,s4,4
80003f90:	0c000ef3 	jal	80003bcc <printnum2>
80003f94:	00000000 	nop
80003f98:	26100001 	addiu	s0,s0,1
80003f9c:	1000ffa1 	b	80003e24 <printf+0x7c>
80003fa0:	00000000 	nop
80003fa4:	8e840000 	lw	a0,0(s4)
80003fa8:	00003825 	move	a3,zero
80003fac:	24060008 	li	a2,8
80003fb0:	26940004 	addiu	s4,s4,4
80003fb4:	0c000ef3 	jal	80003bcc <printnum2>
80003fb8:	00000000 	nop
80003fbc:	26100001 	addiu	s0,s0,1
80003fc0:	1000ff98 	b	80003e24 <printf+0x7c>
80003fc4:	00000000 	nop
80003fc8:	8e840000 	lw	a0,0(s4)
80003fcc:	00003825 	move	a3,zero
80003fd0:	2406000a 	li	a2,10
80003fd4:	26940004 	addiu	s4,s4,4
80003fd8:	0c000ef3 	jal	80003bcc <printnum2>
80003fdc:	00000000 	nop
80003fe0:	26100002 	addiu	s0,s0,2
80003fe4:	1000ff8f 	b	80003e24 <printf+0x7c>
80003fe8:	00000000 	nop
80003fec:	8e840000 	lw	a0,0(s4)
80003ff0:	24070001 	li	a3,1
80003ff4:	2406000a 	li	a2,10
80003ff8:	26940004 	addiu	s4,s4,4
80003ffc:	0c000ef3 	jal	80003bcc <printnum2>
80004000:	00000000 	nop
80004004:	26100001 	addiu	s0,s0,1
80004008:	1000ff86 	b	80003e24 <printf+0x7c>
8000400c:	00000000 	nop
80004010:	8e840000 	lw	a0,0(s4)
80004014:	26100001 	addiu	s0,s0,1
80004018:	26940004 	addiu	s4,s4,4
8000401c:	0c0010c8 	jal	80004320 <putchar>
80004020:	00000000 	nop
80004024:	1000ff7f 	b	80003e24 <printf+0x7c>
80004028:	00000000 	nop
8000402c:	8e840000 	lw	a0,0(s4)
80004030:	00003825 	move	a3,zero
80004034:	24060002 	li	a2,2
80004038:	26940004 	addiu	s4,s4,4
8000403c:	0c000ef3 	jal	80003bcc <printnum2>
80004040:	00000000 	nop
80004044:	26100001 	addiu	s0,s0,1
80004048:	1000ff76 	b	80003e24 <printf+0x7c>
8000404c:	00000000 	nop
80004050:	24040025 	li	a0,37
80004054:	26100001 	addiu	s0,s0,1
80004058:	0c0010c8 	jal	80004320 <putchar>
8000405c:	00000000 	nop
80004060:	1000ff70 	b	80003e24 <printf+0x7c>
80004064:	00000000 	nop
80004068:	00002825 	move	a1,zero
8000406c:	1000ff82 	b	80003e78 <printf+0xd0>
80004070:	00000000 	nop
	...

80004080 <_get_count>:
_get_count():
80004080:	3c02bfd0 	lui	v0,0xbfd0
80004084:	8c420500 	lw	v0,1280(v0)
80004088:	03e00008 	jr	ra
8000408c:	00000000 	nop

80004090 <get_count>:
get_count():
80004090:	3c02bfd0 	lui	v0,0xbfd0
80004094:	8c420500 	lw	v0,1280(v0)
80004098:	03e00008 	jr	ra
8000409c:	00000000 	nop

800040a0 <clock_gettime>:
clock_gettime():
800040a0:	3c02bfd0 	lui	v0,0xbfd0
800040a4:	27bdffe8 	addiu	sp,sp,-24
800040a8:	00a05825 	move	t3,a1
800040ac:	8c4c0500 	lw	t4,1280(v0)
800040b0:	3c021062 	lui	v0,0x1062
800040b4:	afbf0014 	sw	ra,20(sp)
800040b8:	3c048000 	lui	a0,0x8000
800040bc:	24424dd3 	addiu	v0,v0,19923
800040c0:	aca00000 	sw	zero,0(a1)
800040c4:	00003025 	move	a2,zero
800040c8:	01820019 	multu	t4,v0
800040cc:	000c6040 	sll	t4,t4,0x1
800040d0:	24844510 	addiu	a0,a0,17680
800040d4:	00003810 	mfhi	a3
	...
800040e0:	01820019 	multu	t4,v0
800040e4:	00002810 	mfhi	a1
800040e8:	00073982 	srl	a3,a3,0x6
800040ec:	00073840 	sll	a3,a3,0x1
800040f0:	00e20019 	multu	a3,v0
800040f4:	00052982 	srl	a1,a1,0x6
800040f8:	000541c0 	sll	t0,a1,0x7
800040fc:	00001810 	mfhi	v1
80004100:	00055080 	sll	t2,a1,0x2
80004104:	010a5023 	subu	t2,t0,t2
80004108:	01452821 	addu	a1,t2,a1
8000410c:	00031982 	srl	v1,v1,0x6
80004110:	000528c0 	sll	a1,a1,0x3
80004114:	00620019 	multu	v1,v0
80004118:	000341c0 	sll	t0,v1,0x7
8000411c:	00034880 	sll	t1,v1,0x2
80004120:	01852823 	subu	a1,t4,a1
80004124:	00001010 	mfhi	v0
80004128:	01094823 	subu	t1,t0,t1
8000412c:	ad650004 	sw	a1,4(t3)
80004130:	01234821 	addu	t1,t1,v1
80004134:	00021182 	srl	v0,v0,0x6
80004138:	00025080 	sll	t2,v0,0x2
8000413c:	000241c0 	sll	t0,v0,0x7
80004140:	010a4023 	subu	t0,t0,t2
80004144:	01021021 	addu	v0,t0,v0
80004148:	000940c0 	sll	t0,t1,0x3
8000414c:	000210c0 	sll	v0,v0,0x3
80004150:	00e83823 	subu	a3,a3,t0
80004154:	00621823 	subu	v1,v1,v0
80004158:	ad670008 	sw	a3,8(t3)
8000415c:	ad63000c 	sw	v1,12(t3)
80004160:	0c000f6a 	jal	80003da8 <printf>
80004164:	00000000 	nop
80004168:	00001025 	move	v0,zero
8000416c:	8fbf0014 	lw	ra,20(sp)
80004170:	27bd0018 	addiu	sp,sp,24
80004174:	03e00008 	jr	ra
80004178:	00000000 	nop

8000417c <get_clock>:
get_clock():
8000417c:	3c02bfd0 	lui	v0,0xbfd0
80004180:	8c420500 	lw	v0,1280(v0)
80004184:	00000000 	nop
80004188:	00021040 	sll	v0,v0,0x1
8000418c:	03e00008 	jr	ra
80004190:	00000000 	nop

80004194 <get_us>:
get_us():
80004194:	3c02bfd0 	lui	v0,0xbfd0
80004198:	8c420600 	lw	v0,1536(v0)
8000419c:	03e00008 	jr	ra
800041a0:	00000000 	nop

800041a4 <get_inst>:
get_inst():
800041a4:	3c02bfd0 	lui	v0,0xbfd0
800041a8:	8c420700 	lw	v0,1792(v0)
800041ac:	03e00008 	jr	ra
800041b0:	00000000 	nop

800041b4 <get_ns>:
get_ns():
800041b4:	3c02bfd0 	lui	v0,0xbfd0
800041b8:	8c440600 	lw	a0,1536(v0)
800041bc:	00000000 	nop
800041c0:	00041080 	sll	v0,a0,0x2
800041c4:	000419c0 	sll	v1,a0,0x7
800041c8:	00621023 	subu	v0,v1,v0
800041cc:	00441021 	addu	v0,v0,a0
800041d0:	000210c0 	sll	v0,v0,0x3
800041d4:	03e00008 	jr	ra
800041d8:	00000000 	nop
800041dc:	00000000 	nop

800041e0 <get_epc>:
get_epc():
800041e0:	40027000 	mfc0	v0,c0_epc
800041e4:	03e00008 	jr	ra
800041e8:	00000000 	nop

800041ec <get_cause>:
get_cause():
800041ec:	40026800 	mfc0	v0,c0_cause
800041f0:	03e00008 	jr	ra
800041f4:	00000000 	nop

800041f8 <exception>:
exception():
800041f8:	3c048000 	lui	a0,0x8000
800041fc:	27bdffe8 	addiu	sp,sp,-24
80004200:	24844524 	addiu	a0,a0,17700
80004204:	afbf0014 	sw	ra,20(sp)
80004208:	0c000f6a 	jal	80003da8 <printf>
8000420c:	00000000 	nop
80004210:	3c048000 	lui	a0,0x8000
80004214:	40057000 	mfc0	a1,c0_epc
80004218:	24844540 	addiu	a0,a0,17728
8000421c:	0c000f6a 	jal	80003da8 <printf>
80004220:	00000000 	nop
80004224:	3c048000 	lui	a0,0x8000
80004228:	8fbf0014 	lw	ra,20(sp)
8000422c:	27bd0018 	addiu	sp,sp,24
80004230:	24844550 	addiu	a0,a0,17744
80004234:	40056800 	mfc0	a1,c0_cause
80004238:	08000f6a 	j	80003da8 <printf>
8000423c:	00000000 	nop

80004240 <putstring>:
putstring():
80004240:	27bdffe0 	addiu	sp,sp,-32
80004244:	afbf001c 	sw	ra,28(sp)
80004248:	afb20018 	sw	s2,24(sp)
8000424c:	afb10014 	sw	s1,20(sp)
80004250:	afb00010 	sw	s0,16(sp)
80004254:	80900000 	lb	s0,0(a0)
80004258:	00000000 	nop
8000425c:	12000019 	beqz	s0,800042c4 <putstring+0x84>
80004260:	00000000 	nop
80004264:	00808825 	move	s1,a0
80004268:	2412000a 	li	s2,10
8000426c:	10000008 	b	80004290 <putstring+0x50>
80004270:	00000000 	nop
80004274:	02002025 	move	a0,s0
80004278:	0c0010c8 	jal	80004320 <putchar>
8000427c:	00000000 	nop
80004280:	82300000 	lb	s0,0(s1)
80004284:	00000000 	nop
80004288:	1200000e 	beqz	s0,800042c4 <putstring+0x84>
8000428c:	00000000 	nop
80004290:	26310001 	addiu	s1,s1,1
80004294:	1612fff7 	bne	s0,s2,80004274 <putstring+0x34>
80004298:	00000000 	nop
8000429c:	2404000d 	li	a0,13
800042a0:	0c0010c8 	jal	80004320 <putchar>
800042a4:	00000000 	nop
800042a8:	02002025 	move	a0,s0
800042ac:	0c0010c8 	jal	80004320 <putchar>
800042b0:	00000000 	nop
800042b4:	82300000 	lb	s0,0(s1)
800042b8:	00000000 	nop
800042bc:	1600fff4 	bnez	s0,80004290 <putstring+0x50>
800042c0:	00000000 	nop
800042c4:	8fbf001c 	lw	ra,28(sp)
800042c8:	00001025 	move	v0,zero
800042cc:	8fb20018 	lw	s2,24(sp)
800042d0:	8fb10014 	lw	s1,20(sp)
800042d4:	8fb00010 	lw	s0,16(sp)
800042d8:	27bd0020 	addiu	sp,sp,32
800042dc:	03e00008 	jr	ra
800042e0:	00000000 	nop

800042e4 <puts>:
puts():
800042e4:	27bdffe8 	addiu	sp,sp,-24
800042e8:	afbf0014 	sw	ra,20(sp)
800042ec:	0c001090 	jal	80004240 <putstring>
800042f0:	00000000 	nop
800042f4:	2404000d 	li	a0,13
800042f8:	0c0010c8 	jal	80004320 <putchar>
800042fc:	00000000 	nop
80004300:	2404000a 	li	a0,10
80004304:	0c0010c8 	jal	80004320 <putchar>
80004308:	00000000 	nop
8000430c:	00001025 	move	v0,zero
80004310:	8fbf0014 	lw	ra,20(sp)
80004314:	27bd0018 	addiu	sp,sp,24
80004318:	03e00008 	jr	ra
8000431c:	00000000 	nop

80004320 <putchar>:
putchar():
80004320:	3c03bfd0 	lui	v1,0xbfd0
80004324:	8c6203fc 	lw	v0,1020(v1)
80004328:	00000000 	nop
8000432c:	30420001 	andi	v0,v0,0x1
80004330:	1040fffb 	beqz	v0,80004320 <putchar>
80004334:	00000000 	nop
80004338:	10800002 	beqz	a0,80004344 <putchar+0x24>
8000433c:	00000000 	nop
80004340:	ac6403f8 	sw	a0,1016(v1)
80004344:	00001025 	move	v0,zero
80004348:	03e00008 	jr	ra
8000434c:	00000000 	nop

80004350 <tgt_putchar>:
tgt_putchar():
80004350:	3c03bfd0 	lui	v1,0xbfd0
80004354:	8c6203fc 	lw	v0,1020(v1)
80004358:	00000000 	nop
8000435c:	30420001 	andi	v0,v0,0x1
80004360:	1040fffb 	beqz	v0,80004350 <tgt_putchar>
80004364:	00000000 	nop
80004368:	10800002 	beqz	a0,80004374 <tgt_putchar+0x24>
8000436c:	00000000 	nop
80004370:	ac6403f8 	sw	a0,1016(v1)
80004374:	03e00008 	jr	ra
80004378:	00000000 	nop
8000437c:	00000000 	nop
80004380:	63697571 	0x63697571
80004384:	6f73206b 	0x6f73206b
80004388:	45207472 	0x45207472
8000438c:	524f5252 	0x524f5252
80004390:	00000021 	move	zero,zero
80004394:	656d6954 	0x656d6954
80004398:	7525203a 	jalx	849480e8 <_stack+0x4843108>
8000439c:	63796320 	0x63796320
800043a0:	2c73656c 	sltiu	s3,v1,25964
800043a4:	20752520 	addi	s5,v1,9504
800043a8:	202c7375 	addi	t4,at,29557
800043ac:	69207525 	0x69207525
800043b0:	0a74736e 	j	89d1cdb8 <_stack+0x9c17dd8>
800043b4:	00000000 	nop
	...
800043c0:	80004050 	lb	zero,16464(zero)
800043c4:	80003f18 	lb	zero,16152(zero)
800043c8:	80003f18 	lb	zero,16152(zero)
800043cc:	80003f18 	lb	zero,16152(zero)
800043d0:	80003f18 	lb	zero,16152(zero)
800043d4:	80003f18 	lb	zero,16152(zero)
800043d8:	80003f18 	lb	zero,16152(zero)
800043dc:	80003f18 	lb	zero,16152(zero)
800043e0:	80003f18 	lb	zero,16152(zero)
800043e4:	80003f18 	lb	zero,16152(zero)
800043e8:	80003f18 	lb	zero,16152(zero)
800043ec:	80003ea4 	lb	zero,16036(zero)
800043f0:	80003eb4 	lb	zero,16052(zero)
800043f4:	80003eb4 	lb	zero,16052(zero)
800043f8:	80003eb4 	lb	zero,16052(zero)
800043fc:	80003eb4 	lb	zero,16052(zero)
80004400:	80003eb4 	lb	zero,16052(zero)
80004404:	80003eb4 	lb	zero,16052(zero)
80004408:	80003eb4 	lb	zero,16052(zero)
8000440c:	80003eb4 	lb	zero,16052(zero)
80004410:	80003eb4 	lb	zero,16052(zero)
80004414:	80003f18 	lb	zero,16152(zero)
80004418:	80003f18 	lb	zero,16152(zero)
8000441c:	80003f18 	lb	zero,16152(zero)
80004420:	80003f18 	lb	zero,16152(zero)
80004424:	80003f18 	lb	zero,16152(zero)
80004428:	80003f18 	lb	zero,16152(zero)
8000442c:	80003f18 	lb	zero,16152(zero)
80004430:	80003f18 	lb	zero,16152(zero)
80004434:	80003f18 	lb	zero,16152(zero)
80004438:	80003f18 	lb	zero,16152(zero)
8000443c:	80003f18 	lb	zero,16152(zero)
80004440:	80003f18 	lb	zero,16152(zero)
80004444:	80003f18 	lb	zero,16152(zero)
80004448:	80003f18 	lb	zero,16152(zero)
8000444c:	80003f18 	lb	zero,16152(zero)
80004450:	80003f18 	lb	zero,16152(zero)
80004454:	80003f18 	lb	zero,16152(zero)
80004458:	80003f18 	lb	zero,16152(zero)
8000445c:	80003f18 	lb	zero,16152(zero)
80004460:	80003f18 	lb	zero,16152(zero)
80004464:	80003f18 	lb	zero,16152(zero)
80004468:	80003f18 	lb	zero,16152(zero)
8000446c:	80003f18 	lb	zero,16152(zero)
80004470:	80003f18 	lb	zero,16152(zero)
80004474:	80003f18 	lb	zero,16152(zero)
80004478:	80003f18 	lb	zero,16152(zero)
8000447c:	80003f18 	lb	zero,16152(zero)
80004480:	80003f18 	lb	zero,16152(zero)
80004484:	80003f18 	lb	zero,16152(zero)
80004488:	80003f18 	lb	zero,16152(zero)
8000448c:	80003f18 	lb	zero,16152(zero)
80004490:	80003f18 	lb	zero,16152(zero)
80004494:	80003f18 	lb	zero,16152(zero)
80004498:	80003f18 	lb	zero,16152(zero)
8000449c:	80003f18 	lb	zero,16152(zero)
800044a0:	80003f18 	lb	zero,16152(zero)
800044a4:	80003f18 	lb	zero,16152(zero)
800044a8:	80003f18 	lb	zero,16152(zero)
800044ac:	80003f18 	lb	zero,16152(zero)
800044b0:	80003f18 	lb	zero,16152(zero)
800044b4:	8000402c 	lb	zero,16428(zero)
800044b8:	80004010 	lb	zero,16400(zero)
800044bc:	80003fec 	lb	zero,16364(zero)
800044c0:	80003f18 	lb	zero,16152(zero)
800044c4:	80003f18 	lb	zero,16152(zero)
800044c8:	80003f18 	lb	zero,16152(zero)
800044cc:	80003f18 	lb	zero,16152(zero)
800044d0:	80003f18 	lb	zero,16152(zero)
800044d4:	80003f18 	lb	zero,16152(zero)
800044d8:	80003f18 	lb	zero,16152(zero)
800044dc:	80003fc8 	lb	zero,16328(zero)
800044e0:	80003f18 	lb	zero,16152(zero)
800044e4:	80003f18 	lb	zero,16152(zero)
800044e8:	80003fa4 	lb	zero,16292(zero)
800044ec:	80003f80 	lb	zero,16256(zero)
800044f0:	80003f18 	lb	zero,16152(zero)
800044f4:	80003f18 	lb	zero,16152(zero)
800044f8:	80003f64 	lb	zero,16228(zero)
800044fc:	80003f18 	lb	zero,16152(zero)
80004500:	80003f40 	lb	zero,16192(zero)
80004504:	80003f18 	lb	zero,16152(zero)
80004508:	80003f18 	lb	zero,16152(zero)
8000450c:	80003f80 	lb	zero,16256(zero)
80004510:	636f6c63 	0x636f6c63
80004514:	736e206b 	0x736e206b
80004518:	2c64253d 	sltiu	a0,v1,9533
8000451c:	3d636573 	0x3d636573
80004520:	000a6425 	0xa6425
80004524:	72656854 	0x72656854
80004528:	73692065 	0x73692065
8000452c:	206e6120 	addi	t6,v1,24864
80004530:	65637865 	0x65637865
80004534:	6f697470 	0x6f697470
80004538:	0a21216e 	j	888485b8 <_stack+0x87435d8>
8000453c:	00000000 	nop
80004540:	20656854 	addi	a1,v1,26708
80004544:	20637065 	addi	v1,v1,28773
80004548:	25207369 	addiu	zero,t1,29545
8000454c:	00000a78 	0xa78
80004550:	20656854 	addi	a1,v1,26708
80004554:	73756163 	0x73756163
80004558:	73692065 	0x73692065
8000455c:	0a782520 	j	89e09480 <_stack+0x9d044a0>
80004560:	00000000 	nop
80004564:	b0000702 	0xb0000702
	...
80004580:	00010000 	sll	zero,at,0x0
80004584:	03000001 	0x3000001
	...
