
obj/stringsearch/main.elf:     file format elf32-tradlittlemips
obj/stringsearch/main.elf


Disassembly of section .text:

80000000 <_ftext>:
_ftext():
80000000:	3c0a0040 	lui	t2,0x40
80000004:	408a6000 	mtc0	t2,c0_sr
80000008:	40806800 	mtc0	zero,c0_cause
8000000c:	3c1d8010 	lui	sp,0x8010
80000010:	27bd2fe0 	addiu	sp,sp,12256
80000014:	3c1c8001 	lui	gp,0x8001
80000018:	279caff0 	addiu	gp,gp,-20496
8000001c:	041100dc 	bal	80000390 <shell>
80000020:	00000000 	nop

80000024 <loop>:
loop():
80000024:	3c08bfd0 	lui	t0,0xbfd0
80000028:	8d090500 	lw	t1,1280(t0)
8000002c:	3c0a8000 	lui	t2,0x8000
80000030:	ad490000 	sw	t1,0(t2)
80000034:	08000009 	j	80000024 <loop>
80000038:	00000000 	nop

8000003c <exit>:
exit():
8000003c:	340900ff 	li	t1,0xff
80000040:	3c018000 	lui	at,0x8000
80000044:	a0297ffc 	sb	t1,32764(at)
	...
80000380:	0c000512 	jal	80001448 <exception>
80000384:	00000000 	nop
80000388:	0800000f 	j	8000003c <exit>
8000038c:	00000000 	nop

80000390 <shell>:
shell():
80000390:	27bdffd0 	addiu	sp,sp,-48
80000394:	afbf002c 	sw	ra,44(sp)
80000398:	afb50028 	sw	s5,40(sp)
8000039c:	afb40024 	sw	s4,36(sp)
800003a0:	afb30020 	sw	s3,32(sp)
800003a4:	afb2001c 	sw	s2,28(sp)
800003a8:	afb10018 	sw	s1,24(sp)
800003ac:	afb00014 	sw	s0,20(sp)
800003b0:	0c0004b8 	jal	800012e0 <get_count>
800003b4:	00000000 	nop
800003b8:	0040a825 	move	s5,v0
800003bc:	0c0004fd 	jal	800013f4 <get_inst>
800003c0:	00000000 	nop
800003c4:	0040a025 	move	s4,v0
800003c8:	0c0004f9 	jal	800013e4 <get_us>
800003cc:	00000000 	nop
800003d0:	00408825 	move	s1,v0
800003d4:	0c000204 	jal	80000810 <search_small>
800003d8:	00000000 	nop
800003dc:	00409825 	move	s3,v0
800003e0:	0c0004b8 	jal	800012e0 <get_count>
800003e4:	00000000 	nop
800003e8:	00408025 	move	s0,v0
800003ec:	0c0004fd 	jal	800013f4 <get_inst>
800003f0:	00000000 	nop
800003f4:	00409025 	move	s2,v0
800003f8:	0c0004f9 	jal	800013e4 <get_us>
800003fc:	00000000 	nop
80000400:	3c048000 	lui	a0,0x8000
80000404:	0215a823 	subu	s5,s0,s5
80000408:	248419d0 	addiu	a0,a0,6608
8000040c:	00518823 	subu	s1,v0,s1
80000410:	0254a023 	subu	s4,s2,s4
80000414:	02602825 	move	a1,s3
80000418:	0c0003fe 	jal	80000ff8 <printf>
8000041c:	00000000 	nop
80000420:	3c028000 	lui	v0,0x8000
80000424:	8fbf002c 	lw	ra,44(sp)
80000428:	02803825 	move	a3,s4
8000042c:	8fb30020 	lw	s3,32(sp)
80000430:	02203025 	move	a2,s1
80000434:	8fb40024 	lw	s4,36(sp)
80000438:	02a02825 	move	a1,s5
8000043c:	8fb2001c 	lw	s2,28(sp)
80000440:	244419e4 	addiu	a0,v0,6628
80000444:	8fb50028 	lw	s5,40(sp)
80000448:	8fb10018 	lw	s1,24(sp)
8000044c:	8fb00014 	lw	s0,20(sp)
80000450:	27bd0030 	addiu	sp,sp,48
80000454:	080003fe 	j	80000ff8 <printf>
80000458:	00000000 	nop
8000045c:	00000000 	nop

80000460 <init_search>:
init_search():
80000460:	27bdffe8 	addiu	sp,sp,-24
80000464:	afb00010 	sw	s0,16(sp)
80000468:	00808025 	move	s0,a0
8000046c:	afbf0014 	sw	ra,20(sp)
80000470:	0c000574 	jal	800015d0 <strlen>
80000474:	00000000 	nop
80000478:	3c048000 	lui	a0,0x8000
8000047c:	3c058000 	lui	a1,0x8000
80000480:	af828014 	sw	v0,-32748(gp)
80000484:	248e3010 	addiu	t6,a0,12304
80000488:	24a63410 	addiu	a2,a1,13328
8000048c:	01c01825 	move	v1,t6
80000490:	ac620000 	sw	v0,0(v1)
80000494:	24630020 	addiu	v1,v1,32
80000498:	ac62ffe4 	sw	v0,-28(v1)
8000049c:	ac62ffe8 	sw	v0,-24(v1)
800004a0:	ac62ffec 	sw	v0,-20(v1)
800004a4:	ac62fff0 	sw	v0,-16(v1)
800004a8:	ac62fff4 	sw	v0,-12(v1)
800004ac:	ac62fff8 	sw	v0,-8(v1)
800004b0:	ac62fffc 	sw	v0,-4(v1)
800004b4:	14c3fff6 	bne	a2,v1,80000490 <init_search+0x30>
800004b8:	00000000 	nop
800004bc:	1040007d 	beqz	v0,800006b4 <init_search+0x254>
800004c0:	00000000 	nop
800004c4:	92070000 	lbu	a3,0(s0)
800004c8:	2448ffff 	addiu	t0,v0,-1
800004cc:	240fffff 	li	t7,-1
800004d0:	2442fffe 	addiu	v0,v0,-2
800004d4:	00074880 	sll	t1,a3,0x2
800004d8:	310a0007 	andi	t2,t0,0x7
800004dc:	01c95821 	addu	t3,t6,t1
800004e0:	26030001 	addiu	v1,s0,1
800004e4:	ad680000 	sw	t0,0(t3)
800004e8:	104f0072 	beq	v0,t7,800006b4 <init_search+0x254>
800004ec:	00000000 	nop
800004f0:	1140003f 	beqz	t2,800005f0 <init_search+0x190>
800004f4:	00000000 	nop
800004f8:	240c0001 	li	t4,1
800004fc:	114c0034 	beq	t2,t4,800005d0 <init_search+0x170>
80000500:	00000000 	nop
80000504:	240d0002 	li	t5,2
80000508:	114d002b 	beq	t2,t5,800005b8 <init_search+0x158>
8000050c:	00000000 	nop
80000510:	24180003 	li	t8,3
80000514:	11580022 	beq	t2,t8,800005a0 <init_search+0x140>
80000518:	00000000 	nop
8000051c:	24190004 	li	t9,4
80000520:	11590019 	beq	t2,t9,80000588 <init_search+0x128>
80000524:	00000000 	nop
80000528:	241f0005 	li	ra,5
8000052c:	115f0010 	beq	t2,ra,80000570 <init_search+0x110>
80000530:	00000000 	nop
80000534:	24040006 	li	a0,6
80000538:	11440007 	beq	t2,a0,80000558 <init_search+0xf8>
8000053c:	00000000 	nop
80000540:	90650000 	lbu	a1,0(v1)
80000544:	24630001 	addiu	v1,v1,1
80000548:	00053080 	sll	a2,a1,0x2
8000054c:	01c63821 	addu	a3,t6,a2
80000550:	ace20000 	sw	v0,0(a3)
80000554:	2442ffff 	addiu	v0,v0,-1
80000558:	90680000 	lbu	t0,0(v1)
8000055c:	24630001 	addiu	v1,v1,1
80000560:	00084880 	sll	t1,t0,0x2
80000564:	01c95021 	addu	t2,t6,t1
80000568:	ad420000 	sw	v0,0(t2)
8000056c:	2442ffff 	addiu	v0,v0,-1
80000570:	906b0000 	lbu	t3,0(v1)
80000574:	24630001 	addiu	v1,v1,1
80000578:	000b6080 	sll	t4,t3,0x2
8000057c:	01cc6821 	addu	t5,t6,t4
80000580:	ada20000 	sw	v0,0(t5)
80000584:	2442ffff 	addiu	v0,v0,-1
80000588:	90780000 	lbu	t8,0(v1)
8000058c:	24630001 	addiu	v1,v1,1
80000590:	0018c880 	sll	t9,t8,0x2
80000594:	01d9f821 	addu	ra,t6,t9
80000598:	afe20000 	sw	v0,0(ra)
8000059c:	2442ffff 	addiu	v0,v0,-1
800005a0:	90640000 	lbu	a0,0(v1)
800005a4:	24630001 	addiu	v1,v1,1
800005a8:	00042880 	sll	a1,a0,0x2
800005ac:	01c53021 	addu	a2,t6,a1
800005b0:	acc20000 	sw	v0,0(a2)
800005b4:	2442ffff 	addiu	v0,v0,-1
800005b8:	90670000 	lbu	a3,0(v1)
800005bc:	24630001 	addiu	v1,v1,1
800005c0:	00074080 	sll	t0,a3,0x2
800005c4:	01c84821 	addu	t1,t6,t0
800005c8:	ad220000 	sw	v0,0(t1)
800005cc:	2442ffff 	addiu	v0,v0,-1
800005d0:	906a0000 	lbu	t2,0(v1)
800005d4:	24630001 	addiu	v1,v1,1
800005d8:	000a5880 	sll	t3,t2,0x2
800005dc:	01cb6021 	addu	t4,t6,t3
800005e0:	ad820000 	sw	v0,0(t4)
800005e4:	2442ffff 	addiu	v0,v0,-1
800005e8:	104f0032 	beq	v0,t7,800006b4 <init_search+0x254>
800005ec:	00000000 	nop
800005f0:	90780000 	lbu	t8,0(v1)
800005f4:	244dffff 	addiu	t5,v0,-1
800005f8:	24630008 	addiu	v1,v1,8
800005fc:	2459fffe 	addiu	t9,v0,-2
80000600:	00182080 	sll	a0,t8,0x2
80000604:	245ffffd 	addiu	ra,v0,-3
80000608:	01c42821 	addu	a1,t6,a0
8000060c:	2446fffc 	addiu	a2,v0,-4
80000610:	aca20000 	sw	v0,0(a1)
80000614:	2449fffb 	addiu	t1,v0,-5
80000618:	906afff9 	lbu	t2,-7(v1)
8000061c:	2448fffa 	addiu	t0,v0,-6
80000620:	2447fff9 	addiu	a3,v0,-7
80000624:	2442fff8 	addiu	v0,v0,-8
80000628:	000a5880 	sll	t3,t2,0x2
8000062c:	01cb6021 	addu	t4,t6,t3
80000630:	ad8d0000 	sw	t5,0(t4)
80000634:	9078fffa 	lbu	t8,-6(v1)
80000638:	00000000 	nop
8000063c:	00186880 	sll	t5,t8,0x2
80000640:	01cd2021 	addu	a0,t6,t5
80000644:	ac990000 	sw	t9,0(a0)
80000648:	9079fffb 	lbu	t9,-5(v1)
8000064c:	00000000 	nop
80000650:	00192880 	sll	a1,t9,0x2
80000654:	01c55021 	addu	t2,t6,a1
80000658:	ad5f0000 	sw	ra,0(t2)
8000065c:	907ffffc 	lbu	ra,-4(v1)
80000660:	00000000 	nop
80000664:	001f5880 	sll	t3,ra,0x2
80000668:	01cb6021 	addu	t4,t6,t3
8000066c:	ad860000 	sw	a2,0(t4)
80000670:	9066fffd 	lbu	a2,-3(v1)
80000674:	00000000 	nop
80000678:	0006c080 	sll	t8,a2,0x2
8000067c:	01d86821 	addu	t5,t6,t8
80000680:	ada90000 	sw	t1,0(t5)
80000684:	9069fffe 	lbu	t1,-2(v1)
80000688:	00000000 	nop
8000068c:	00092080 	sll	a0,t1,0x2
80000690:	01c4c821 	addu	t9,t6,a0
80000694:	af280000 	sw	t0,0(t9)
80000698:	9068ffff 	lbu	t0,-1(v1)
8000069c:	00000000 	nop
800006a0:	00082880 	sll	a1,t0,0x2
800006a4:	01c55021 	addu	t2,t6,a1
800006a8:	ad470000 	sw	a3,0(t2)
800006ac:	144fffd0 	bne	v0,t7,800005f0 <init_search+0x190>
800006b0:	00000000 	nop
800006b4:	8fbf0014 	lw	ra,20(sp)
800006b8:	af908010 	sw	s0,-32752(gp)
800006bc:	8fb00010 	lw	s0,16(sp)
800006c0:	27bd0018 	addiu	sp,sp,24
800006c4:	03e00008 	jr	ra
800006c8:	00000000 	nop
800006cc:	00000000 	nop

800006d0 <strsearch>:
strsearch():
800006d0:	27bdffd0 	addiu	sp,sp,-48
800006d4:	afb00014 	sw	s0,20(sp)
800006d8:	afb30020 	sw	s3,32(sp)
800006dc:	afb10018 	sw	s1,24(sp)
800006e0:	00808825 	move	s1,a0
800006e4:	afbf002c 	sw	ra,44(sp)
800006e8:	afb50028 	sw	s5,40(sp)
800006ec:	afb40024 	sw	s4,36(sp)
800006f0:	afb2001c 	sw	s2,28(sp)
800006f4:	8f908014 	lw	s0,-32748(gp)
800006f8:	0c000574 	jal	800015d0 <strlen>
800006fc:	00000000 	nop
80000700:	00409825 	move	s3,v0
80000704:	2610ffff 	addiu	s0,s0,-1
80000708:	0202182b 	sltu	v1,s0,v0
8000070c:	0202102b 	sltu	v0,s0,v0
80000710:	10600020 	beqz	v1,80000794 <strsearch+0xc4>
80000714:	00000000 	nop
80000718:	3c148000 	lui	s4,0x8000
8000071c:	24120001 	li	s2,1
80000720:	26943010 	addiu	s4,s4,12304
80000724:	10400026 	beqz	v0,800007c0 <strsearch+0xf0>
80000728:	00000000 	nop
8000072c:	02302021 	addu	a0,s1,s0
80000730:	90850000 	lbu	a1,0(a0)
80000734:	00000000 	nop
80000738:	00053080 	sll	a2,a1,0x2
8000073c:	02863821 	addu	a3,s4,a2
80000740:	8ce80000 	lw	t0,0(a3)
80000744:	00000000 	nop
80000748:	1500000d 	bnez	t0,80000780 <strsearch+0xb0>
8000074c:	00000000 	nop
80000750:	1000001b 	b	800007c0 <strsearch+0xf0>
80000754:	00000000 	nop
	...
80000760:	912b0000 	lbu	t3,0(t1)
80000764:	00000000 	nop
80000768:	000b6080 	sll	t4,t3,0x2
8000076c:	028c6821 	addu	t5,s4,t4
80000770:	8da80000 	lw	t0,0(t5)
80000774:	00000000 	nop
80000778:	11000011 	beqz	t0,800007c0 <strsearch+0xf0>
8000077c:	00000000 	nop
80000780:	02088021 	addu	s0,s0,t0
80000784:	0213502b 	sltu	t2,s0,s3
80000788:	02304821 	addu	t1,s1,s0
8000078c:	1540fff4 	bnez	t2,80000760 <strsearch+0x90>
80000790:	00000000 	nop
80000794:	00001025 	move	v0,zero
80000798:	8fbf002c 	lw	ra,44(sp)
8000079c:	8fb50028 	lw	s5,40(sp)
800007a0:	8fb40024 	lw	s4,36(sp)
800007a4:	8fb30020 	lw	s3,32(sp)
800007a8:	8fb2001c 	lw	s2,28(sp)
800007ac:	8fb10018 	lw	s1,24(sp)
800007b0:	8fb00014 	lw	s0,20(sp)
800007b4:	27bd0030 	addiu	sp,sp,48
800007b8:	03e00008 	jr	ra
800007bc:	00000000 	nop
800007c0:	8f868014 	lw	a2,-32748(gp)
800007c4:	8f848010 	lw	a0,-32752(gp)
800007c8:	0246a823 	subu	s5,s2,a2
800007cc:	02b07021 	addu	t6,s5,s0
800007d0:	022ea821 	addu	s5,s1,t6
800007d4:	02a02825 	move	a1,s5
800007d8:	0c0005c8 	jal	80001720 <strncmp>
800007dc:	00000000 	nop
800007e0:	10400007 	beqz	v0,80000800 <strsearch+0x130>
800007e4:	00000000 	nop
800007e8:	26100001 	addiu	s0,s0,1
800007ec:	0213102b 	sltu	v0,s0,s3
800007f0:	1440ffcc 	bnez	v0,80000724 <strsearch+0x54>
800007f4:	00000000 	nop
800007f8:	1000ffe6 	b	80000794 <strsearch+0xc4>
800007fc:	00000000 	nop
80000800:	02a01025 	move	v0,s5
80000804:	1000ffe4 	b	80000798 <strsearch+0xc8>
80000808:	00000000 	nop
8000080c:	00000000 	nop

80000810 <search_small>:
search_small():
80000810:	3c028000 	lui	v0,0x8000
80000814:	27bdfcf8 	addiu	sp,sp,-776
80000818:	24492220 	addiu	t1,v0,8736
8000081c:	27a30010 	addiu	v1,sp,16
80000820:	afbf0304 	sw	ra,772(sp)
80000824:	252400e0 	addiu	a0,t1,224
80000828:	afbe0300 	sw	s8,768(sp)
8000082c:	afb702fc 	sw	s7,764(sp)
80000830:	afb602f8 	sw	s6,760(sp)
80000834:	afb502f4 	sw	s5,756(sp)
80000838:	afb402f0 	sw	s4,752(sp)
8000083c:	afb302ec 	sw	s3,748(sp)
80000840:	afb202e8 	sw	s2,744(sp)
80000844:	afb102e4 	sw	s1,740(sp)
80000848:	afb002e0 	sw	s0,736(sp)
8000084c:	8d280000 	lw	t0,0(t1)
80000850:	25290010 	addiu	t1,t1,16
80000854:	24630010 	addiu	v1,v1,16
80000858:	8d27fff4 	lw	a3,-12(t1)
8000085c:	8d26fff8 	lw	a2,-8(t1)
80000860:	8d25fffc 	lw	a1,-4(t1)
80000864:	ac68fff0 	sw	t0,-16(v1)
80000868:	ac67fff4 	sw	a3,-12(v1)
8000086c:	ac66fff8 	sw	a2,-8(v1)
80000870:	ac65fffc 	sw	a1,-4(v1)
80000874:	1524fff5 	bne	t1,a0,8000084c <search_small+0x3c>
80000878:	00000000 	nop
8000087c:	3c0c8000 	lui	t4,0x8000
80000880:	8d2a0000 	lw	t2,0(t1)
80000884:	8d2b0004 	lw	t3,4(t1)
80000888:	27b101dc 	addiu	s1,sp,476
8000088c:	258f2308 	addiu	t7,t4,8968
80000890:	25ed00e0 	addiu	t5,t7,224
80000894:	ac6a0000 	sw	t2,0(v1)
80000898:	ac6b0004 	sw	t3,4(v1)
8000089c:	8dee0000 	lw	t6,0(t7)
800008a0:	25ef0010 	addiu	t7,t7,16
800008a4:	26310010 	addiu	s1,s1,16
800008a8:	8df0fff4 	lw	s0,-12(t7)
800008ac:	8df2fff8 	lw	s2,-8(t7)
800008b0:	8df3fffc 	lw	s3,-4(t7)
800008b4:	ae2efff0 	sw	t6,-16(s1)
800008b8:	ae30fff4 	sw	s0,-12(s1)
800008bc:	ae32fff8 	sw	s2,-8(s1)
800008c0:	ae33fffc 	sw	s3,-4(s1)
800008c4:	15edfff5 	bne	t7,t5,8000089c <search_small+0x8c>
800008c8:	00000000 	nop
800008cc:	3c158000 	lui	s5,0x8000
800008d0:	8df40000 	lw	s4,0(t7)
800008d4:	27be00f8 	addiu	s8,sp,248
800008d8:	26b823ec 	addiu	t8,s5,9196
800008dc:	271600e0 	addiu	s6,t8,224
800008e0:	ae340000 	sw	s4,0(s1)
800008e4:	8f170000 	lw	s7,0(t8)
800008e8:	27180010 	addiu	t8,t8,16
800008ec:	27de0010 	addiu	s8,s8,16
800008f0:	8f19fff4 	lw	t9,-12(t8)
800008f4:	8f1ffff8 	lw	ra,-8(t8)
800008f8:	8f02fffc 	lw	v0,-4(t8)
800008fc:	afd7fff0 	sw	s7,-16(s8)
80000900:	afd9fff4 	sw	t9,-12(s8)
80000904:	afdffff8 	sw	ra,-8(s8)
80000908:	afc2fffc 	sw	v0,-4(s8)
8000090c:	1716fff5 	bne	t8,s6,800008e4 <search_small+0xd4>
80000910:	00000000 	nop
80000914:	8f040000 	lw	a0,0(t8)
80000918:	8fb10010 	lw	s1,16(sp)
8000091c:	afc40000 	sw	a0,0(s8)
80000920:	12200128 	beqz	s1,80000dc4 <search_small+0x5b4>
80000924:	00000000 	nop
80000928:	3c098000 	lui	t1,0x8000
8000092c:	afa002c4 	sw	zero,708(sp)
80000930:	3c068000 	lui	a2,0x8000
80000934:	3c0a8000 	lui	t2,0x8000
80000938:	3c088000 	lui	t0,0x8000
8000093c:	25273410 	addiu	a3,t1,13328
80000940:	3c038000 	lui	v1,0x8000
80000944:	24c51de0 	addiu	a1,a2,7648
80000948:	254b264c 	addiu	t3,t2,9804
8000094c:	afa702c8 	sw	a3,712(sp)
80000950:	3c0c8000 	lui	t4,0x8000
80000954:	afa302cc 	sw	v1,716(sp)
80000958:	27ad01dc 	addiu	t5,sp,476
8000095c:	afa502d8 	sw	a1,728(sp)
80000960:	27b50014 	addiu	s5,sp,20
80000964:	afab02d0 	sw	t3,720(sp)
80000968:	251e3010 	addiu	s8,t0,12304
8000096c:	afac02d4 	sw	t4,724(sp)
80000970:	27b400f8 	addiu	s4,sp,248
80000974:	afad02c0 	sw	t5,704(sp)
80000978:	02202025 	move	a0,s1
8000097c:	0c000574 	jal	800015d0 <strlen>
80000980:	00000000 	nop
80000984:	03c07825 	move	t7,s8
80000988:	8fae02c8 	lw	t6,712(sp)
8000098c:	af828014 	sw	v0,-32748(gp)
80000990:	ade20000 	sw	v0,0(t7)
80000994:	25ef0020 	addiu	t7,t7,32
80000998:	ade2ffe4 	sw	v0,-28(t7)
8000099c:	ade2ffe8 	sw	v0,-24(t7)
800009a0:	ade2ffec 	sw	v0,-20(t7)
800009a4:	ade2fff0 	sw	v0,-16(t7)
800009a8:	ade2fff4 	sw	v0,-12(t7)
800009ac:	ade2fff8 	sw	v0,-8(t7)
800009b0:	ade2fffc 	sw	v0,-4(t7)
800009b4:	15cffff6 	bne	t6,t7,80000990 <search_small+0x180>
800009b8:	00000000 	nop
800009bc:	104000f8 	beqz	v0,80000da0 <search_small+0x590>
800009c0:	00000000 	nop
800009c4:	92320000 	lbu	s2,0(s1)
800009c8:	2457ffff 	addiu	s7,v0,-1
800009cc:	2413ffff 	li	s3,-1
800009d0:	2442fffe 	addiu	v0,v0,-2
800009d4:	0012c080 	sll	t8,s2,0x2
800009d8:	32f90007 	andi	t9,s7,0x7
800009dc:	03d8f821 	addu	ra,s8,t8
800009e0:	26240001 	addiu	a0,s1,1
800009e4:	aff70000 	sw	s7,0(ra)
800009e8:	10530072 	beq	v0,s3,80000bb4 <search_small+0x3a4>
800009ec:	00000000 	nop
800009f0:	1320003f 	beqz	t9,80000af0 <search_small+0x2e0>
800009f4:	00000000 	nop
800009f8:	24080001 	li	t0,1
800009fc:	13280034 	beq	t9,t0,80000ad0 <search_small+0x2c0>
80000a00:	00000000 	nop
80000a04:	24090002 	li	t1,2
80000a08:	1329002b 	beq	t9,t1,80000ab8 <search_small+0x2a8>
80000a0c:	00000000 	nop
80000a10:	24070003 	li	a3,3
80000a14:	13270022 	beq	t9,a3,80000aa0 <search_small+0x290>
80000a18:	00000000 	nop
80000a1c:	24030004 	li	v1,4
80000a20:	13230019 	beq	t9,v1,80000a88 <search_small+0x278>
80000a24:	00000000 	nop
80000a28:	24060005 	li	a2,5
80000a2c:	13260010 	beq	t9,a2,80000a70 <search_small+0x260>
80000a30:	00000000 	nop
80000a34:	24050006 	li	a1,6
80000a38:	13250007 	beq	t9,a1,80000a58 <search_small+0x248>
80000a3c:	00000000 	nop
80000a40:	908a0000 	lbu	t2,0(a0)
80000a44:	24840001 	addiu	a0,a0,1
80000a48:	000a5880 	sll	t3,t2,0x2
80000a4c:	03cb6021 	addu	t4,s8,t3
80000a50:	ad820000 	sw	v0,0(t4)
80000a54:	2442ffff 	addiu	v0,v0,-1
80000a58:	908d0000 	lbu	t5,0(a0)
80000a5c:	24840001 	addiu	a0,a0,1
80000a60:	000d7080 	sll	t6,t5,0x2
80000a64:	03ce7821 	addu	t7,s8,t6
80000a68:	ade20000 	sw	v0,0(t7)
80000a6c:	2442ffff 	addiu	v0,v0,-1
80000a70:	90900000 	lbu	s0,0(a0)
80000a74:	24840001 	addiu	a0,a0,1
80000a78:	0010b080 	sll	s6,s0,0x2
80000a7c:	03d69021 	addu	s2,s8,s6
80000a80:	ae420000 	sw	v0,0(s2)
80000a84:	2442ffff 	addiu	v0,v0,-1
80000a88:	90980000 	lbu	t8,0(a0)
80000a8c:	24840001 	addiu	a0,a0,1
80000a90:	0018c880 	sll	t9,t8,0x2
80000a94:	03d9f821 	addu	ra,s8,t9
80000a98:	afe20000 	sw	v0,0(ra)
80000a9c:	2442ffff 	addiu	v0,v0,-1
80000aa0:	90880000 	lbu	t0,0(a0)
80000aa4:	24840001 	addiu	a0,a0,1
80000aa8:	00084880 	sll	t1,t0,0x2
80000aac:	03c93821 	addu	a3,s8,t1
80000ab0:	ace20000 	sw	v0,0(a3)
80000ab4:	2442ffff 	addiu	v0,v0,-1
80000ab8:	90830000 	lbu	v1,0(a0)
80000abc:	24840001 	addiu	a0,a0,1
80000ac0:	00033080 	sll	a2,v1,0x2
80000ac4:	03c62821 	addu	a1,s8,a2
80000ac8:	aca20000 	sw	v0,0(a1)
80000acc:	2442ffff 	addiu	v0,v0,-1
80000ad0:	908a0000 	lbu	t2,0(a0)
80000ad4:	24840001 	addiu	a0,a0,1
80000ad8:	000a5880 	sll	t3,t2,0x2
80000adc:	03cb6021 	addu	t4,s8,t3
80000ae0:	ad820000 	sw	v0,0(t4)
80000ae4:	2442ffff 	addiu	v0,v0,-1
80000ae8:	10530032 	beq	v0,s3,80000bb4 <search_small+0x3a4>
80000aec:	00000000 	nop
80000af0:	908f0000 	lbu	t7,0(a0)
80000af4:	244effff 	addiu	t6,v0,-1
80000af8:	24840008 	addiu	a0,a0,8
80000afc:	244dfffe 	addiu	t5,v0,-2
80000b00:	000fb080 	sll	s6,t7,0x2
80000b04:	2450fffd 	addiu	s0,v0,-3
80000b08:	03d6c021 	addu	t8,s8,s6
80000b0c:	2452fffc 	addiu	s2,v0,-4
80000b10:	af020000 	sw	v0,0(t8)
80000b14:	2459fffb 	addiu	t9,v0,-5
80000b18:	9088fff9 	lbu	t0,-7(a0)
80000b1c:	245ffffa 	addiu	ra,v0,-6
80000b20:	2449fff9 	addiu	t1,v0,-7
80000b24:	2442fff8 	addiu	v0,v0,-8
80000b28:	00083880 	sll	a3,t0,0x2
80000b2c:	03c71821 	addu	v1,s8,a3
80000b30:	ac6e0000 	sw	t6,0(v1)
80000b34:	9086fffa 	lbu	a2,-6(a0)
80000b38:	00000000 	nop
80000b3c:	00062880 	sll	a1,a2,0x2
80000b40:	03c55021 	addu	t2,s8,a1
80000b44:	ad4d0000 	sw	t5,0(t2)
80000b48:	908bfffb 	lbu	t3,-5(a0)
80000b4c:	00000000 	nop
80000b50:	000b6080 	sll	t4,t3,0x2
80000b54:	03cc7821 	addu	t7,s8,t4
80000b58:	adf00000 	sw	s0,0(t7)
80000b5c:	908efffc 	lbu	t6,-4(a0)
80000b60:	00000000 	nop
80000b64:	000e6880 	sll	t5,t6,0x2
80000b68:	03cd8021 	addu	s0,s8,t5
80000b6c:	ae120000 	sw	s2,0(s0)
80000b70:	9096fffd 	lbu	s6,-3(a0)
80000b74:	00000000 	nop
80000b78:	00169080 	sll	s2,s6,0x2
80000b7c:	03d2c021 	addu	t8,s8,s2
80000b80:	af190000 	sw	t9,0(t8)
80000b84:	9099fffe 	lbu	t9,-2(a0)
80000b88:	00000000 	nop
80000b8c:	00194080 	sll	t0,t9,0x2
80000b90:	03c83821 	addu	a3,s8,t0
80000b94:	acff0000 	sw	ra,0(a3)
80000b98:	909fffff 	lbu	ra,-1(a0)
80000b9c:	00000000 	nop
80000ba0:	001f1880 	sll	v1,ra,0x2
80000ba4:	03c33021 	addu	a2,s8,v1
80000ba8:	acc90000 	sw	t1,0(a2)
80000bac:	1453ffd0 	bne	v0,s3,80000af0 <search_small+0x2e0>
80000bb0:	00000000 	nop
80000bb4:	8fb302c0 	lw	s3,704(sp)
80000bb8:	24120001 	li	s2,1
80000bbc:	af918010 	sw	s1,-32752(gp)
80000bc0:	8e760000 	lw	s6,0(s3)
80000bc4:	00000000 	nop
80000bc8:	02c02025 	move	a0,s6
80000bcc:	0c000574 	jal	800015d0 <strlen>
80000bd0:	00000000 	nop
80000bd4:	02e2c82b 	sltu	t9,s7,v0
80000bd8:	00409825 	move	s3,v0
80000bdc:	1320001d 	beqz	t9,80000c54 <search_small+0x444>
80000be0:	00000000 	nop
80000be4:	13200046 	beqz	t9,80000d00 <search_small+0x4f0>
80000be8:	00000000 	nop
80000bec:	02d72021 	addu	a0,s6,s7
80000bf0:	90820000 	lbu	v0,0(a0)
80000bf4:	00000000 	nop
80000bf8:	00024880 	sll	t1,v0,0x2
80000bfc:	03c92821 	addu	a1,s8,t1
80000c00:	8caa0000 	lw	t2,0(a1)
80000c04:	00000000 	nop
80000c08:	1540000d 	bnez	t2,80000c40 <search_small+0x430>
80000c0c:	00000000 	nop
80000c10:	1000003b 	b	80000d00 <search_small+0x4f0>
80000c14:	00000000 	nop
	...
80000c20:	916f0000 	lbu	t7,0(t3)
80000c24:	00000000 	nop
80000c28:	000f7080 	sll	t6,t7,0x2
80000c2c:	03ce6821 	addu	t5,s8,t6
80000c30:	8daa0000 	lw	t2,0(t5)
80000c34:	00000000 	nop
80000c38:	11400031 	beqz	t2,80000d00 <search_small+0x4f0>
80000c3c:	00000000 	nop
80000c40:	02eab821 	addu	s7,s7,t2
80000c44:	02f3602b 	sltu	t4,s7,s3
80000c48:	02d75821 	addu	t3,s6,s7
80000c4c:	1580fff4 	bnez	t4,80000c20 <search_small+0x410>
80000c50:	00000000 	nop
80000c54:	8fa802cc 	lw	t0,716(sp)
80000c58:	02202825 	move	a1,s1
80000c5c:	8fa602d8 	lw	a2,728(sp)
80000c60:	02c03825 	move	a3,s6
80000c64:	25041a08 	addiu	a0,t0,6664
80000c68:	0c0003fe 	jal	80000ff8 <printf>
80000c6c:	00000000 	nop
80000c70:	2404000a 	li	a0,10
80000c74:	0c00055c 	jal	80001570 <putchar>
80000c78:	00000000 	nop
80000c7c:	8e910000 	lw	s1,0(s4)
80000c80:	00000000 	nop
80000c84:	12200005 	beqz	s1,80000c9c <search_small+0x48c>
80000c88:	00000000 	nop
80000c8c:	8fbf02c4 	lw	ra,708(sp)
80000c90:	00000000 	nop
80000c94:	27e60001 	addiu	a2,ra,1
80000c98:	afa602c4 	sw	a2,708(sp)
80000c9c:	8fa402c0 	lw	a0,704(sp)
80000ca0:	26940004 	addiu	s4,s4,4
80000ca4:	8eb10000 	lw	s1,0(s5)
80000ca8:	26b50004 	addiu	s5,s5,4
80000cac:	24820004 	addiu	v0,a0,4
80000cb0:	afa202c0 	sw	v0,704(sp)
80000cb4:	1620ff30 	bnez	s1,80000978 <search_small+0x168>
80000cb8:	00000000 	nop
80000cbc:	8fbf0304 	lw	ra,772(sp)
80000cc0:	8fa202c4 	lw	v0,708(sp)
80000cc4:	8fbe0300 	lw	s8,768(sp)
80000cc8:	8fb702fc 	lw	s7,764(sp)
80000ccc:	8fb602f8 	lw	s6,760(sp)
80000cd0:	8fb502f4 	lw	s5,756(sp)
80000cd4:	8fb402f0 	lw	s4,752(sp)
80000cd8:	8fb302ec 	lw	s3,748(sp)
80000cdc:	8fb202e8 	lw	s2,744(sp)
80000ce0:	8fb102e4 	lw	s1,740(sp)
80000ce4:	8fb002e0 	lw	s0,736(sp)
80000ce8:	27bd0308 	addiu	sp,sp,776
80000cec:	03e00008 	jr	ra
80000cf0:	00000000 	nop
	...
80000d00:	8f868014 	lw	a2,-32748(gp)
80000d04:	8f848010 	lw	a0,-32752(gp)
80000d08:	02468023 	subu	s0,s2,a2
80000d0c:	0217c021 	addu	t8,s0,s7
80000d10:	02d88021 	addu	s0,s6,t8
80000d14:	02002825 	move	a1,s0
80000d18:	0c0005c8 	jal	80001720 <strncmp>
80000d1c:	00000000 	nop
80000d20:	10400007 	beqz	v0,80000d40 <search_small+0x530>
80000d24:	00000000 	nop
80000d28:	26f70001 	addiu	s7,s7,1
80000d2c:	02f3c82b 	sltu	t9,s7,s3
80000d30:	1720ffac 	bnez	t9,80000be4 <search_small+0x3d4>
80000d34:	00000000 	nop
80000d38:	1000ffc6 	b	80000c54 <search_small+0x444>
80000d3c:	00000000 	nop
80000d40:	1200ffc4 	beqz	s0,80000c54 <search_small+0x444>
80000d44:	00000000 	nop
80000d48:	8fa702cc 	lw	a3,716(sp)
80000d4c:	02202825 	move	a1,s1
80000d50:	8fa602d0 	lw	a2,720(sp)
80000d54:	24e41a08 	addiu	a0,a3,6664
80000d58:	02c03825 	move	a3,s6
80000d5c:	0c0003fe 	jal	80000ff8 <printf>
80000d60:	00000000 	nop
80000d64:	02002825 	move	a1,s0
80000d68:	8fb602d4 	lw	s6,724(sp)
80000d6c:	00000000 	nop
80000d70:	26c41a1c 	addiu	a0,s6,6684
80000d74:	0c0003fe 	jal	80000ff8 <printf>
80000d78:	00000000 	nop
80000d7c:	2404000a 	li	a0,10
80000d80:	0c00055c 	jal	80001570 <putchar>
80000d84:	00000000 	nop
80000d88:	8e830000 	lw	v1,0(s4)
80000d8c:	00000000 	nop
80000d90:	1060ffbe 	beqz	v1,80000c8c <search_small+0x47c>
80000d94:	00000000 	nop
80000d98:	1000ffc0 	b	80000c9c <search_small+0x48c>
80000d9c:	00000000 	nop
80000da0:	8fb002c0 	lw	s0,704(sp)
80000da4:	af918010 	sw	s1,-32752(gp)
80000da8:	8e160000 	lw	s6,0(s0)
80000dac:	00000000 	nop
80000db0:	02c02025 	move	a0,s6
80000db4:	0c000574 	jal	800015d0 <strlen>
80000db8:	00000000 	nop
80000dbc:	1000ffa5 	b	80000c54 <search_small+0x444>
80000dc0:	00000000 	nop
80000dc4:	afa002c4 	sw	zero,708(sp)
80000dc8:	1000ffbc 	b	80000cbc <search_small+0x4ac>
80000dcc:	00000000 	nop

80000dd0 <__divu10>:
__divu10():
80000dd0:	00041082 	srl	v0,a0,0x2
80000dd4:	00041842 	srl	v1,a0,0x1
80000dd8:	24840006 	addiu	a0,a0,6
80000ddc:	00621821 	addu	v1,v1,v0
80000de0:	00031102 	srl	v0,v1,0x4
80000de4:	00621821 	addu	v1,v1,v0
80000de8:	00031202 	srl	v0,v1,0x8
80000dec:	00621821 	addu	v1,v1,v0
80000df0:	00031402 	srl	v0,v1,0x10
80000df4:	00621821 	addu	v1,v1,v0
80000df8:	000318c2 	srl	v1,v1,0x3
80000dfc:	00031040 	sll	v0,v1,0x1
80000e00:	000328c0 	sll	a1,v1,0x3
80000e04:	00451021 	addu	v0,v0,a1
80000e08:	00821023 	subu	v0,a0,v0
80000e0c:	00021102 	srl	v0,v0,0x4
80000e10:	00431021 	addu	v0,v0,v1
80000e14:	03e00008 	jr	ra
80000e18:	00000000 	nop

80000e1c <printnum2>:
printnum2():
80000e1c:	27bdff90 	addiu	sp,sp,-112
80000e20:	afb0005c 	sw	s0,92(sp)
80000e24:	00808025 	move	s0,a0
80000e28:	afbf006c 	sw	ra,108(sp)
80000e2c:	afb30068 	sw	s3,104(sp)
80000e30:	afb20064 	sw	s2,100(sp)
80000e34:	afb10060 	sw	s1,96(sp)
80000e38:	10e00003 	beqz	a3,80000e48 <printnum2+0x2c>
80000e3c:	00000000 	nop
80000e40:	04800060 	bltz	a0,80000fc4 <printnum2+0x1a8>
80000e44:	00000000 	nop
80000e48:	12000068 	beqz	s0,80000fec <printnum2+0x1d0>
80000e4c:	00000000 	nop
80000e50:	27a40010 	addiu	a0,sp,16
80000e54:	00008825 	move	s1,zero
80000e58:	24080002 	li	t0,2
80000e5c:	24090008 	li	t1,8
80000e60:	240a0010 	li	t2,16
80000e64:	10c80040 	beq	a2,t0,80000f68 <printnum2+0x14c>
80000e68:	00000000 	nop
80000e6c:	00101842 	srl	v1,s0,0x1
80000e70:	10c90042 	beq	a2,t1,80000f7c <printnum2+0x160>
80000e74:	00000000 	nop
80000e78:	00101082 	srl	v0,s0,0x2
80000e7c:	10ca0044 	beq	a2,t2,80000f90 <printnum2+0x174>
80000e80:	00000000 	nop
80000e84:	00621821 	addu	v1,v1,v0
80000e88:	26070006 	addiu	a3,s0,6
80000e8c:	00031102 	srl	v0,v1,0x4
80000e90:	00621821 	addu	v1,v1,v0
80000e94:	00031202 	srl	v0,v1,0x8
80000e98:	00621821 	addu	v1,v1,v0
80000e9c:	00031402 	srl	v0,v1,0x10
80000ea0:	00621821 	addu	v1,v1,v0
80000ea4:	000318c2 	srl	v1,v1,0x3
80000ea8:	00031040 	sll	v0,v1,0x1
80000eac:	000358c0 	sll	t3,v1,0x3
80000eb0:	004b1021 	addu	v0,v0,t3
80000eb4:	00e21023 	subu	v0,a3,v0
80000eb8:	00021102 	srl	v0,v0,0x4
80000ebc:	00621021 	addu	v0,v1,v0
80000ec0:	00021840 	sll	v1,v0,0x1
80000ec4:	000238c0 	sll	a3,v0,0x3
80000ec8:	00671821 	addu	v1,v1,a3
80000ecc:	02031823 	subu	v1,s0,v1
80000ed0:	00408025 	move	s0,v0
80000ed4:	a0830000 	sb	v1,0(a0)
80000ed8:	26310001 	addiu	s1,s1,1
80000edc:	24840001 	addiu	a0,a0,1
80000ee0:	1600ffe0 	bnez	s0,80000e64 <printnum2+0x48>
80000ee4:	00000000 	nop
80000ee8:	00b1102a 	slt	v0,a1,s1
80000eec:	10400002 	beqz	v0,80000ef8 <printnum2+0xdc>
80000ef0:	00000000 	nop
80000ef4:	02202825 	move	a1,s1
80000ef8:	10a0002a 	beqz	a1,80000fa4 <printnum2+0x188>
80000efc:	00000000 	nop
80000f00:	27a20010 	addiu	v0,sp,16
80000f04:	24b0ffff 	addiu	s0,a1,-1
80000f08:	00459021 	addu	s2,v0,a1
80000f0c:	10000008 	b	80000f30 <printnum2+0x114>
80000f10:	00000000 	nop
80000f14:	24040030 	li	a0,48
80000f18:	2610ffff 	addiu	s0,s0,-1
80000f1c:	0c00055c 	jal	80001570 <putchar>
80000f20:	00000000 	nop
80000f24:	2652ffff 	addiu	s2,s2,-1
80000f28:	1260001e 	beqz	s3,80000fa4 <printnum2+0x188>
80000f2c:	00000000 	nop
80000f30:	26020001 	addiu	v0,s0,1
80000f34:	02009825 	move	s3,s0
80000f38:	0222102a 	slt	v0,s1,v0
80000f3c:	1440fff5 	bnez	v0,80000f14 <printnum2+0xf8>
80000f40:	00000000 	nop
80000f44:	8242ffff 	lb	v0,-1(s2)
80000f48:	00000000 	nop
80000f4c:	2843000a 	slti	v1,v0,10
80000f50:	24440057 	addiu	a0,v0,87
80000f54:	1060fff0 	beqz	v1,80000f18 <printnum2+0xfc>
80000f58:	00000000 	nop
80000f5c:	24440030 	addiu	a0,v0,48
80000f60:	1000ffed 	b	80000f18 <printnum2+0xfc>
80000f64:	00000000 	nop
80000f68:	32020001 	andi	v0,s0,0x1
80000f6c:	00108042 	srl	s0,s0,0x1
80000f70:	a0820000 	sb	v0,0(a0)
80000f74:	1000ffd8 	b	80000ed8 <printnum2+0xbc>
80000f78:	00000000 	nop
80000f7c:	32020007 	andi	v0,s0,0x7
80000f80:	001080c2 	srl	s0,s0,0x3
80000f84:	a0820000 	sb	v0,0(a0)
80000f88:	1000ffd3 	b	80000ed8 <printnum2+0xbc>
80000f8c:	00000000 	nop
80000f90:	3202000f 	andi	v0,s0,0xf
80000f94:	00108102 	srl	s0,s0,0x4
80000f98:	a0820000 	sb	v0,0(a0)
80000f9c:	1000ffce 	b	80000ed8 <printnum2+0xbc>
80000fa0:	00000000 	nop
80000fa4:	8fbf006c 	lw	ra,108(sp)
80000fa8:	8fb30068 	lw	s3,104(sp)
80000fac:	8fb20064 	lw	s2,100(sp)
80000fb0:	8fb10060 	lw	s1,96(sp)
80000fb4:	8fb0005c 	lw	s0,92(sp)
80000fb8:	27bd0070 	addiu	sp,sp,112
80000fbc:	03e00008 	jr	ra
80000fc0:	00000000 	nop
80000fc4:	2404002d 	li	a0,45
80000fc8:	afa60054 	sw	a2,84(sp)
80000fcc:	afa50050 	sw	a1,80(sp)
80000fd0:	00108023 	negu	s0,s0
80000fd4:	0c00055c 	jal	80001570 <putchar>
80000fd8:	00000000 	nop
80000fdc:	8fa50050 	lw	a1,80(sp)
80000fe0:	8fa60054 	lw	a2,84(sp)
80000fe4:	1000ff98 	b	80000e48 <printnum2+0x2c>
80000fe8:	00000000 	nop
80000fec:	00008825 	move	s1,zero
80000ff0:	1000ffbd 	b	80000ee8 <printnum2+0xcc>
80000ff4:	00000000 	nop

80000ff8 <printf>:
printf():
80000ff8:	27bdffc8 	addiu	sp,sp,-56
80000ffc:	afbf0034 	sw	ra,52(sp)
80001000:	27a2003c 	addiu	v0,sp,60
80001004:	afb50030 	sw	s5,48(sp)
80001008:	afb4002c 	sw	s4,44(sp)
8000100c:	afb30028 	sw	s3,40(sp)
80001010:	afb20024 	sw	s2,36(sp)
80001014:	afb10020 	sw	s1,32(sp)
80001018:	afb0001c 	sw	s0,28(sp)
8000101c:	afa5003c 	sw	a1,60(sp)
80001020:	afa60040 	sw	a2,64(sp)
80001024:	afa70044 	sw	a3,68(sp)
80001028:	afa20010 	sw	v0,16(sp)
8000102c:	80910000 	lb	s1,0(a0)
80001030:	00000000 	nop
80001034:	12200015 	beqz	s1,8000108c <printf+0x94>
80001038:	00000000 	nop
8000103c:	3c158000 	lui	s5,0x8000
80001040:	00008025 	move	s0,zero
80001044:	24130025 	li	s3,37
80001048:	26b524d0 	addiu	s5,s5,9424
8000104c:	0040a025 	move	s4,v0
80001050:	00809025 	move	s2,a0
80001054:	12330018 	beq	s1,s3,800010b8 <printf+0xc0>
80001058:	00000000 	nop
8000105c:	2402000a 	li	v0,10
80001060:	12220046 	beq	s1,v0,8000117c <printf+0x184>
80001064:	00000000 	nop
80001068:	02202025 	move	a0,s1
8000106c:	0c00055c 	jal	80001570 <putchar>
80001070:	00000000 	nop
80001074:	26100001 	addiu	s0,s0,1
80001078:	02501021 	addu	v0,s2,s0
8000107c:	80510000 	lb	s1,0(v0)
80001080:	00000000 	nop
80001084:	1620fff3 	bnez	s1,80001054 <printf+0x5c>
80001088:	00000000 	nop
8000108c:	8fbf0034 	lw	ra,52(sp)
80001090:	00001025 	move	v0,zero
80001094:	8fb50030 	lw	s5,48(sp)
80001098:	8fb4002c 	lw	s4,44(sp)
8000109c:	8fb30028 	lw	s3,40(sp)
800010a0:	8fb20024 	lw	s2,36(sp)
800010a4:	8fb10020 	lw	s1,32(sp)
800010a8:	8fb0001c 	lw	s0,28(sp)
800010ac:	27bd0038 	addiu	sp,sp,56
800010b0:	03e00008 	jr	ra
800010b4:	00000000 	nop
800010b8:	02501021 	addu	v0,s2,s0
800010bc:	24050001 	li	a1,1
800010c0:	80430001 	lb	v1,1(v0)
800010c4:	00000000 	nop
800010c8:	2462ffdb 	addiu	v0,v1,-37
800010cc:	304200ff 	andi	v0,v0,0xff
800010d0:	2c440054 	sltiu	a0,v0,84
800010d4:	10800024 	beqz	a0,80001168 <printf+0x170>
800010d8:	00000000 	nop
800010dc:	00021080 	sll	v0,v0,0x2
800010e0:	02a21021 	addu	v0,s5,v0
800010e4:	8c420000 	lw	v0,0(v0)
800010e8:	00000000 	nop
800010ec:	00400008 	jr	v0
800010f0:	00000000 	nop
800010f4:	26100001 	addiu	s0,s0,1
800010f8:	02501021 	addu	v0,s2,s0
800010fc:	80430001 	lb	v1,1(v0)
80001100:	00000000 	nop
80001104:	2462ffcf 	addiu	v0,v1,-49
80001108:	304200ff 	andi	v0,v0,0xff
8000110c:	2c420009 	sltiu	v0,v0,9
80001110:	10400069 	beqz	v0,800012b8 <printf+0x2c0>
80001114:	00000000 	nop
80001118:	02503021 	addu	a2,s2,s0
8000111c:	00002825 	move	a1,zero
80001120:	2467ffd0 	addiu	a3,v1,-48
80001124:	80c30002 	lb	v1,2(a2)
80001128:	00052040 	sll	a0,a1,0x1
8000112c:	000528c0 	sll	a1,a1,0x3
80001130:	2462ffcf 	addiu	v0,v1,-49
80001134:	00852821 	addu	a1,a0,a1
80001138:	304200ff 	andi	v0,v0,0xff
8000113c:	2c420009 	sltiu	v0,v0,9
80001140:	00e52821 	addu	a1,a3,a1
80001144:	26100001 	addiu	s0,s0,1
80001148:	24c60001 	addiu	a2,a2,1
8000114c:	1440fff4 	bnez	v0,80001120 <printf+0x128>
80001150:	00000000 	nop
80001154:	2462ffdb 	addiu	v0,v1,-37
80001158:	304200ff 	andi	v0,v0,0xff
8000115c:	2c440054 	sltiu	a0,v0,84
80001160:	1480ffde 	bnez	a0,800010dc <printf+0xe4>
80001164:	00000000 	nop
80001168:	24040025 	li	a0,37
8000116c:	0c00055c 	jal	80001570 <putchar>
80001170:	00000000 	nop
80001174:	1000ffbf 	b	80001074 <printf+0x7c>
80001178:	00000000 	nop
8000117c:	2404000d 	li	a0,13
80001180:	0c00055c 	jal	80001570 <putchar>
80001184:	00000000 	nop
80001188:	1000ffb7 	b	80001068 <printf+0x70>
8000118c:	00000000 	nop
80001190:	8e840000 	lw	a0,0(s4)
80001194:	00003825 	move	a3,zero
80001198:	2406000a 	li	a2,10
8000119c:	26940004 	addiu	s4,s4,4
800011a0:	0c000387 	jal	80000e1c <printnum2>
800011a4:	00000000 	nop
800011a8:	26100001 	addiu	s0,s0,1
800011ac:	1000ffb1 	b	80001074 <printf+0x7c>
800011b0:	00000000 	nop
800011b4:	8e840000 	lw	a0,0(s4)
800011b8:	26100001 	addiu	s0,s0,1
800011bc:	26940004 	addiu	s4,s4,4
800011c0:	0c000524 	jal	80001490 <putstring>
800011c4:	00000000 	nop
800011c8:	1000ffaa 	b	80001074 <printf+0x7c>
800011cc:	00000000 	nop
800011d0:	8e840000 	lw	a0,0(s4)
800011d4:	00003825 	move	a3,zero
800011d8:	24060010 	li	a2,16
800011dc:	26940004 	addiu	s4,s4,4
800011e0:	0c000387 	jal	80000e1c <printnum2>
800011e4:	00000000 	nop
800011e8:	26100001 	addiu	s0,s0,1
800011ec:	1000ffa1 	b	80001074 <printf+0x7c>
800011f0:	00000000 	nop
800011f4:	8e840000 	lw	a0,0(s4)
800011f8:	00003825 	move	a3,zero
800011fc:	24060008 	li	a2,8
80001200:	26940004 	addiu	s4,s4,4
80001204:	0c000387 	jal	80000e1c <printnum2>
80001208:	00000000 	nop
8000120c:	26100001 	addiu	s0,s0,1
80001210:	1000ff98 	b	80001074 <printf+0x7c>
80001214:	00000000 	nop
80001218:	8e840000 	lw	a0,0(s4)
8000121c:	00003825 	move	a3,zero
80001220:	2406000a 	li	a2,10
80001224:	26940004 	addiu	s4,s4,4
80001228:	0c000387 	jal	80000e1c <printnum2>
8000122c:	00000000 	nop
80001230:	26100002 	addiu	s0,s0,2
80001234:	1000ff8f 	b	80001074 <printf+0x7c>
80001238:	00000000 	nop
8000123c:	8e840000 	lw	a0,0(s4)
80001240:	24070001 	li	a3,1
80001244:	2406000a 	li	a2,10
80001248:	26940004 	addiu	s4,s4,4
8000124c:	0c000387 	jal	80000e1c <printnum2>
80001250:	00000000 	nop
80001254:	26100001 	addiu	s0,s0,1
80001258:	1000ff86 	b	80001074 <printf+0x7c>
8000125c:	00000000 	nop
80001260:	8e840000 	lw	a0,0(s4)
80001264:	26100001 	addiu	s0,s0,1
80001268:	26940004 	addiu	s4,s4,4
8000126c:	0c00055c 	jal	80001570 <putchar>
80001270:	00000000 	nop
80001274:	1000ff7f 	b	80001074 <printf+0x7c>
80001278:	00000000 	nop
8000127c:	8e840000 	lw	a0,0(s4)
80001280:	00003825 	move	a3,zero
80001284:	24060002 	li	a2,2
80001288:	26940004 	addiu	s4,s4,4
8000128c:	0c000387 	jal	80000e1c <printnum2>
80001290:	00000000 	nop
80001294:	26100001 	addiu	s0,s0,1
80001298:	1000ff76 	b	80001074 <printf+0x7c>
8000129c:	00000000 	nop
800012a0:	24040025 	li	a0,37
800012a4:	26100001 	addiu	s0,s0,1
800012a8:	0c00055c 	jal	80001570 <putchar>
800012ac:	00000000 	nop
800012b0:	1000ff70 	b	80001074 <printf+0x7c>
800012b4:	00000000 	nop
800012b8:	00002825 	move	a1,zero
800012bc:	1000ff82 	b	800010c8 <printf+0xd0>
800012c0:	00000000 	nop
	...

800012d0 <_get_count>:
_get_count():
800012d0:	3c02bfd0 	lui	v0,0xbfd0
800012d4:	8c420500 	lw	v0,1280(v0)
800012d8:	03e00008 	jr	ra
800012dc:	00000000 	nop

800012e0 <get_count>:
get_count():
800012e0:	3c02bfd0 	lui	v0,0xbfd0
800012e4:	8c420500 	lw	v0,1280(v0)
800012e8:	03e00008 	jr	ra
800012ec:	00000000 	nop

800012f0 <clock_gettime>:
clock_gettime():
800012f0:	3c02bfd0 	lui	v0,0xbfd0
800012f4:	27bdffe8 	addiu	sp,sp,-24
800012f8:	00a05825 	move	t3,a1
800012fc:	8c4c0500 	lw	t4,1280(v0)
80001300:	3c021062 	lui	v0,0x1062
80001304:	afbf0014 	sw	ra,20(sp)
80001308:	3c048000 	lui	a0,0x8000
8000130c:	24424dd3 	addiu	v0,v0,19923
80001310:	aca00000 	sw	zero,0(a1)
80001314:	00003025 	move	a2,zero
80001318:	01820019 	multu	t4,v0
8000131c:	000c6040 	sll	t4,t4,0x1
80001320:	24842620 	addiu	a0,a0,9760
80001324:	00003810 	mfhi	a3
	...
80001330:	01820019 	multu	t4,v0
80001334:	00002810 	mfhi	a1
80001338:	00073982 	srl	a3,a3,0x6
8000133c:	00073840 	sll	a3,a3,0x1
80001340:	00e20019 	multu	a3,v0
80001344:	00052982 	srl	a1,a1,0x6
80001348:	000541c0 	sll	t0,a1,0x7
8000134c:	00001810 	mfhi	v1
80001350:	00055080 	sll	t2,a1,0x2
80001354:	010a5023 	subu	t2,t0,t2
80001358:	01452821 	addu	a1,t2,a1
8000135c:	00031982 	srl	v1,v1,0x6
80001360:	000528c0 	sll	a1,a1,0x3
80001364:	00620019 	multu	v1,v0
80001368:	000341c0 	sll	t0,v1,0x7
8000136c:	00034880 	sll	t1,v1,0x2
80001370:	01852823 	subu	a1,t4,a1
80001374:	00001010 	mfhi	v0
80001378:	01094823 	subu	t1,t0,t1
8000137c:	ad650004 	sw	a1,4(t3)
80001380:	01234821 	addu	t1,t1,v1
80001384:	00021182 	srl	v0,v0,0x6
80001388:	00025080 	sll	t2,v0,0x2
8000138c:	000241c0 	sll	t0,v0,0x7
80001390:	010a4023 	subu	t0,t0,t2
80001394:	01021021 	addu	v0,t0,v0
80001398:	000940c0 	sll	t0,t1,0x3
8000139c:	000210c0 	sll	v0,v0,0x3
800013a0:	00e83823 	subu	a3,a3,t0
800013a4:	00621823 	subu	v1,v1,v0
800013a8:	ad670008 	sw	a3,8(t3)
800013ac:	ad63000c 	sw	v1,12(t3)
800013b0:	0c0003fe 	jal	80000ff8 <printf>
800013b4:	00000000 	nop
800013b8:	00001025 	move	v0,zero
800013bc:	8fbf0014 	lw	ra,20(sp)
800013c0:	27bd0018 	addiu	sp,sp,24
800013c4:	03e00008 	jr	ra
800013c8:	00000000 	nop

800013cc <get_clock>:
get_clock():
800013cc:	3c02bfd0 	lui	v0,0xbfd0
800013d0:	8c420500 	lw	v0,1280(v0)
800013d4:	00000000 	nop
800013d8:	00021040 	sll	v0,v0,0x1
800013dc:	03e00008 	jr	ra
800013e0:	00000000 	nop

800013e4 <get_us>:
get_us():
800013e4:	3c02bfd0 	lui	v0,0xbfd0
800013e8:	8c420600 	lw	v0,1536(v0)
800013ec:	03e00008 	jr	ra
800013f0:	00000000 	nop

800013f4 <get_inst>:
get_inst():
800013f4:	3c02bfd0 	lui	v0,0xbfd0
800013f8:	8c420700 	lw	v0,1792(v0)
800013fc:	03e00008 	jr	ra
80001400:	00000000 	nop

80001404 <get_ns>:
get_ns():
80001404:	3c02bfd0 	lui	v0,0xbfd0
80001408:	8c440600 	lw	a0,1536(v0)
8000140c:	00000000 	nop
80001410:	00041080 	sll	v0,a0,0x2
80001414:	000419c0 	sll	v1,a0,0x7
80001418:	00621023 	subu	v0,v1,v0
8000141c:	00441021 	addu	v0,v0,a0
80001420:	000210c0 	sll	v0,v0,0x3
80001424:	03e00008 	jr	ra
80001428:	00000000 	nop
8000142c:	00000000 	nop

80001430 <get_epc>:
get_epc():
80001430:	40027000 	mfc0	v0,c0_epc
80001434:	03e00008 	jr	ra
80001438:	00000000 	nop

8000143c <get_cause>:
get_cause():
8000143c:	40026800 	mfc0	v0,c0_cause
80001440:	03e00008 	jr	ra
80001444:	00000000 	nop

80001448 <exception>:
exception():
80001448:	3c048000 	lui	a0,0x8000
8000144c:	27bdffe8 	addiu	sp,sp,-24
80001450:	24842634 	addiu	a0,a0,9780
80001454:	afbf0014 	sw	ra,20(sp)
80001458:	0c0003fe 	jal	80000ff8 <printf>
8000145c:	00000000 	nop
80001460:	3c048000 	lui	a0,0x8000
80001464:	40057000 	mfc0	a1,c0_epc
80001468:	24842650 	addiu	a0,a0,9808
8000146c:	0c0003fe 	jal	80000ff8 <printf>
80001470:	00000000 	nop
80001474:	3c048000 	lui	a0,0x8000
80001478:	8fbf0014 	lw	ra,20(sp)
8000147c:	27bd0018 	addiu	sp,sp,24
80001480:	24842660 	addiu	a0,a0,9824
80001484:	40056800 	mfc0	a1,c0_cause
80001488:	080003fe 	j	80000ff8 <printf>
8000148c:	00000000 	nop

80001490 <putstring>:
putstring():
80001490:	27bdffe0 	addiu	sp,sp,-32
80001494:	afbf001c 	sw	ra,28(sp)
80001498:	afb20018 	sw	s2,24(sp)
8000149c:	afb10014 	sw	s1,20(sp)
800014a0:	afb00010 	sw	s0,16(sp)
800014a4:	80900000 	lb	s0,0(a0)
800014a8:	00000000 	nop
800014ac:	12000019 	beqz	s0,80001514 <putstring+0x84>
800014b0:	00000000 	nop
800014b4:	00808825 	move	s1,a0
800014b8:	2412000a 	li	s2,10
800014bc:	10000008 	b	800014e0 <putstring+0x50>
800014c0:	00000000 	nop
800014c4:	02002025 	move	a0,s0
800014c8:	0c00055c 	jal	80001570 <putchar>
800014cc:	00000000 	nop
800014d0:	82300000 	lb	s0,0(s1)
800014d4:	00000000 	nop
800014d8:	1200000e 	beqz	s0,80001514 <putstring+0x84>
800014dc:	00000000 	nop
800014e0:	26310001 	addiu	s1,s1,1
800014e4:	1612fff7 	bne	s0,s2,800014c4 <putstring+0x34>
800014e8:	00000000 	nop
800014ec:	2404000d 	li	a0,13
800014f0:	0c00055c 	jal	80001570 <putchar>
800014f4:	00000000 	nop
800014f8:	02002025 	move	a0,s0
800014fc:	0c00055c 	jal	80001570 <putchar>
80001500:	00000000 	nop
80001504:	82300000 	lb	s0,0(s1)
80001508:	00000000 	nop
8000150c:	1600fff4 	bnez	s0,800014e0 <putstring+0x50>
80001510:	00000000 	nop
80001514:	8fbf001c 	lw	ra,28(sp)
80001518:	00001025 	move	v0,zero
8000151c:	8fb20018 	lw	s2,24(sp)
80001520:	8fb10014 	lw	s1,20(sp)
80001524:	8fb00010 	lw	s0,16(sp)
80001528:	27bd0020 	addiu	sp,sp,32
8000152c:	03e00008 	jr	ra
80001530:	00000000 	nop

80001534 <puts>:
puts():
80001534:	27bdffe8 	addiu	sp,sp,-24
80001538:	afbf0014 	sw	ra,20(sp)
8000153c:	0c000524 	jal	80001490 <putstring>
80001540:	00000000 	nop
80001544:	2404000d 	li	a0,13
80001548:	0c00055c 	jal	80001570 <putchar>
8000154c:	00000000 	nop
80001550:	2404000a 	li	a0,10
80001554:	0c00055c 	jal	80001570 <putchar>
80001558:	00000000 	nop
8000155c:	00001025 	move	v0,zero
80001560:	8fbf0014 	lw	ra,20(sp)
80001564:	27bd0018 	addiu	sp,sp,24
80001568:	03e00008 	jr	ra
8000156c:	00000000 	nop

80001570 <putchar>:
putchar():
80001570:	3c03bfd0 	lui	v1,0xbfd0
80001574:	8c6203fc 	lw	v0,1020(v1)
80001578:	00000000 	nop
8000157c:	30420001 	andi	v0,v0,0x1
80001580:	1040fffb 	beqz	v0,80001570 <putchar>
80001584:	00000000 	nop
80001588:	10800002 	beqz	a0,80001594 <putchar+0x24>
8000158c:	00000000 	nop
80001590:	ac6403f8 	sw	a0,1016(v1)
80001594:	00001025 	move	v0,zero
80001598:	03e00008 	jr	ra
8000159c:	00000000 	nop

800015a0 <tgt_putchar>:
tgt_putchar():
800015a0:	3c03bfd0 	lui	v1,0xbfd0
800015a4:	8c6203fc 	lw	v0,1020(v1)
800015a8:	00000000 	nop
800015ac:	30420001 	andi	v0,v0,0x1
800015b0:	1040fffb 	beqz	v0,800015a0 <tgt_putchar>
800015b4:	00000000 	nop
800015b8:	10800002 	beqz	a0,800015c4 <tgt_putchar+0x24>
800015bc:	00000000 	nop
800015c0:	ac6403f8 	sw	a0,1016(v1)
800015c4:	03e00008 	jr	ra
800015c8:	00000000 	nop
800015cc:	00000000 	nop

800015d0 <strlen>:
strlen():
800015d0:	80820000 	lb	v0,0(a0)
800015d4:	24830001 	addiu	v1,a0,1
800015d8:	10400009 	beqz	v0,80001600 <strlen+0x30>
800015dc:	00000000 	nop
800015e0:	00641023 	subu	v0,v1,a0
800015e4:	24630001 	addiu	v1,v1,1
800015e8:	8065ffff 	lb	a1,-1(v1)
800015ec:	00000000 	nop
800015f0:	14a0fffb 	bnez	a1,800015e0 <strlen+0x10>
800015f4:	00000000 	nop
800015f8:	03e00008 	jr	ra
800015fc:	00000000 	nop
80001600:	00001025 	move	v0,zero
80001604:	03e00008 	jr	ra
80001608:	00000000 	nop

8000160c <strnlen>:
strnlen():
8000160c:	10a00014 	beqz	a1,80001660 <strnlen+0x54>
80001610:	00000000 	nop
80001614:	80820000 	lb	v0,0(a0)
80001618:	24830001 	addiu	v1,a0,1
8000161c:	10400010 	beqz	v0,80001660 <strnlen+0x54>
80001620:	00000000 	nop
80001624:	00852821 	addu	a1,a0,a1
80001628:	10000006 	b	80001644 <strnlen+0x38>
8000162c:	00000000 	nop
80001630:	24630001 	addiu	v1,v1,1
80001634:	8066ffff 	lb	a2,-1(v1)
80001638:	00000000 	nop
8000163c:	10c00006 	beqz	a2,80001658 <strnlen+0x4c>
80001640:	00000000 	nop
80001644:	00641023 	subu	v0,v1,a0
80001648:	1465fff9 	bne	v1,a1,80001630 <strnlen+0x24>
8000164c:	00000000 	nop
80001650:	03e00008 	jr	ra
80001654:	00000000 	nop
80001658:	03e00008 	jr	ra
8000165c:	00000000 	nop
80001660:	00001025 	move	v0,zero
80001664:	03e00008 	jr	ra
80001668:	00000000 	nop

8000166c <strcpy>:
strcpy():
8000166c:	00801025 	move	v0,a0
80001670:	00801825 	move	v1,a0
80001674:	24a50001 	addiu	a1,a1,1
80001678:	80a6ffff 	lb	a2,-1(a1)
8000167c:	24630001 	addiu	v1,v1,1
80001680:	a066ffff 	sb	a2,-1(v1)
80001684:	14c0fffb 	bnez	a2,80001674 <strcpy+0x8>
80001688:	00000000 	nop
8000168c:	03e00008 	jr	ra
80001690:	00000000 	nop

80001694 <strncpy>:
strncpy():
80001694:	00801025 	move	v0,a0
80001698:	10c0000b 	beqz	a2,800016c8 <strncpy+0x34>
8000169c:	00000000 	nop
800016a0:	00863021 	addu	a2,a0,a2
800016a4:	00801825 	move	v1,a0
800016a8:	80a70000 	lb	a3,0(a1)
800016ac:	24630001 	addiu	v1,v1,1
800016b0:	a067ffff 	sb	a3,-1(v1)
800016b4:	10e00002 	beqz	a3,800016c0 <strncpy+0x2c>
800016b8:	00000000 	nop
800016bc:	24a50001 	addiu	a1,a1,1
800016c0:	14c3fff9 	bne	a2,v1,800016a8 <strncpy+0x14>
800016c4:	00000000 	nop
800016c8:	03e00008 	jr	ra
800016cc:	00000000 	nop

800016d0 <strcmp>:
strcmp():
800016d0:	80830000 	lb	v1,0(a0)
800016d4:	80a20000 	lb	v0,0(a1)
800016d8:	1060000d 	beqz	v1,80001710 <strcmp+0x40>
800016dc:	00000000 	nop
800016e0:	1462000a 	bne	v1,v0,8000170c <strcmp+0x3c>
800016e4:	00000000 	nop
800016e8:	24840001 	addiu	a0,a0,1
800016ec:	80830000 	lb	v1,0(a0)
800016f0:	24a60001 	addiu	a2,a1,1
800016f4:	80a20001 	lb	v0,1(a1)
800016f8:	10600005 	beqz	v1,80001710 <strcmp+0x40>
800016fc:	00000000 	nop
80001700:	00c02825 	move	a1,a2
80001704:	1062fff8 	beq	v1,v0,800016e8 <strcmp+0x18>
80001708:	00000000 	nop
8000170c:	306300ff 	andi	v1,v1,0xff
80001710:	304200ff 	andi	v0,v0,0xff
80001714:	00621023 	subu	v0,v1,v0
80001718:	03e00008 	jr	ra
8000171c:	00000000 	nop

80001720 <strncmp>:
strncmp():
80001720:	10c00017 	beqz	a2,80001780 <strncmp+0x60>
80001724:	00000000 	nop
80001728:	80830000 	lb	v1,0(a0)
8000172c:	80a70000 	lb	a3,0(a1)
80001730:	10600017 	beqz	v1,80001790 <strncmp+0x70>
80001734:	00000000 	nop
80001738:	14e30015 	bne	a3,v1,80001790 <strncmp+0x70>
8000173c:	00000000 	nop
80001740:	24820001 	addiu	v0,a0,1
80001744:	00863021 	addu	a2,a0,a2
80001748:	1000000a 	b	80001774 <strncmp+0x54>
8000174c:	00000000 	nop
80001750:	80430000 	lb	v1,0(v0)
80001754:	24420001 	addiu	v0,v0,1
80001758:	1060000c 	beqz	v1,8000178c <strncmp+0x6c>
8000175c:	00000000 	nop
80001760:	00e02825 	move	a1,a3
80001764:	80e70000 	lb	a3,0(a3)
80001768:	00000000 	nop
8000176c:	14670008 	bne	v1,a3,80001790 <strncmp+0x70>
80001770:	00000000 	nop
80001774:	24a70001 	addiu	a3,a1,1
80001778:	14c2fff5 	bne	a2,v0,80001750 <strncmp+0x30>
8000177c:	00000000 	nop
80001780:	00001025 	move	v0,zero
80001784:	03e00008 	jr	ra
80001788:	00000000 	nop
8000178c:	80a70001 	lb	a3,1(a1)
80001790:	306300ff 	andi	v1,v1,0xff
80001794:	30e200ff 	andi	v0,a3,0xff
80001798:	00621023 	subu	v0,v1,v0
8000179c:	03e00008 	jr	ra
800017a0:	00000000 	nop

800017a4 <strchr>:
strchr():
800017a4:	80820000 	lb	v0,0(a0)
800017a8:	00052e00 	sll	a1,a1,0x18
800017ac:	00052e03 	sra	a1,a1,0x18
800017b0:	1040000d 	beqz	v0,800017e8 <strchr+0x44>
800017b4:	00000000 	nop
800017b8:	10450008 	beq	v0,a1,800017dc <strchr+0x38>
800017bc:	00000000 	nop
800017c0:	24840001 	addiu	a0,a0,1
800017c4:	80820000 	lb	v0,0(a0)
800017c8:	00000000 	nop
800017cc:	1440fffa 	bnez	v0,800017b8 <strchr+0x14>
800017d0:	00000000 	nop
800017d4:	03e00008 	jr	ra
800017d8:	00000000 	nop
800017dc:	00801025 	move	v0,a0
800017e0:	03e00008 	jr	ra
800017e4:	00000000 	nop
800017e8:	00001025 	move	v0,zero
800017ec:	03e00008 	jr	ra
800017f0:	00000000 	nop

800017f4 <strfind>:
strfind():
800017f4:	80830000 	lb	v1,0(a0)
800017f8:	00052e00 	sll	a1,a1,0x18
800017fc:	00801025 	move	v0,a0
80001800:	00052e03 	sra	a1,a1,0x18
80001804:	1060000c 	beqz	v1,80001838 <strfind+0x44>
80001808:	00000000 	nop
8000180c:	14a30005 	bne	a1,v1,80001824 <strfind+0x30>
80001810:	00000000 	nop
80001814:	1000000a 	b	80001840 <strfind+0x4c>
80001818:	00000000 	nop
8000181c:	10650006 	beq	v1,a1,80001838 <strfind+0x44>
80001820:	00000000 	nop
80001824:	24420001 	addiu	v0,v0,1
80001828:	80430000 	lb	v1,0(v0)
8000182c:	00000000 	nop
80001830:	1460fffa 	bnez	v1,8000181c <strfind+0x28>
80001834:	00000000 	nop
80001838:	03e00008 	jr	ra
8000183c:	00000000 	nop
80001840:	03e00008 	jr	ra
80001844:	00000000 	nop

80001848 <memset>:
memset():
80001848:	00052e00 	sll	a1,a1,0x18
8000184c:	00801025 	move	v0,a0
80001850:	00052e03 	sra	a1,a1,0x18
80001854:	10c00007 	beqz	a2,80001874 <memset+0x2c>
80001858:	00000000 	nop
8000185c:	00863021 	addu	a2,a0,a2
80001860:	00801825 	move	v1,a0
80001864:	24630001 	addiu	v1,v1,1
80001868:	a065ffff 	sb	a1,-1(v1)
8000186c:	14c3fffd 	bne	a2,v1,80001864 <memset+0x1c>
80001870:	00000000 	nop
80001874:	03e00008 	jr	ra
80001878:	00000000 	nop

8000187c <memcpy>:
memcpy():
8000187c:	00801025 	move	v0,a0
80001880:	10c00009 	beqz	a2,800018a8 <memcpy+0x2c>
80001884:	00000000 	nop
80001888:	00a63021 	addu	a2,a1,a2
8000188c:	00801825 	move	v1,a0
80001890:	24a50001 	addiu	a1,a1,1
80001894:	80a7ffff 	lb	a3,-1(a1)
80001898:	24630001 	addiu	v1,v1,1
8000189c:	a067ffff 	sb	a3,-1(v1)
800018a0:	14c5fffb 	bne	a2,a1,80001890 <memcpy+0x14>
800018a4:	00000000 	nop
800018a8:	03e00008 	jr	ra
800018ac:	00000000 	nop

800018b0 <memmove>:
memmove():
800018b0:	00a4182b 	sltu	v1,a1,a0
800018b4:	00801025 	move	v0,a0
800018b8:	10600011 	beqz	v1,80001900 <memmove+0x50>
800018bc:	00000000 	nop
800018c0:	00a61821 	addu	v1,a1,a2
800018c4:	0083202b 	sltu	a0,a0,v1
800018c8:	1080000d 	beqz	a0,80001900 <memmove+0x50>
800018cc:	00000000 	nop
800018d0:	00462821 	addu	a1,v0,a2
800018d4:	10c00014 	beqz	a2,80001928 <memmove+0x78>
800018d8:	00000000 	nop
800018dc:	00663023 	subu	a2,v1,a2
800018e0:	2463ffff 	addiu	v1,v1,-1
800018e4:	80670000 	lb	a3,0(v1)
800018e8:	24a5ffff 	addiu	a1,a1,-1
800018ec:	a0a70000 	sb	a3,0(a1)
800018f0:	1466fffb 	bne	v1,a2,800018e0 <memmove+0x30>
800018f4:	00000000 	nop
800018f8:	03e00008 	jr	ra
800018fc:	00000000 	nop
80001900:	10c0000b 	beqz	a2,80001930 <memmove+0x80>
80001904:	00000000 	nop
80001908:	00a63021 	addu	a2,a1,a2
8000190c:	00401825 	move	v1,v0
80001910:	24a50001 	addiu	a1,a1,1
80001914:	80a7ffff 	lb	a3,-1(a1)
80001918:	24630001 	addiu	v1,v1,1
8000191c:	a067ffff 	sb	a3,-1(v1)
80001920:	14a6fffb 	bne	a1,a2,80001910 <memmove+0x60>
80001924:	00000000 	nop
80001928:	03e00008 	jr	ra
8000192c:	00000000 	nop
80001930:	03e00008 	jr	ra
80001934:	00000000 	nop

80001938 <memcmp>:
memcmp():
80001938:	10c00013 	beqz	a2,80001988 <memcmp+0x50>
8000193c:	00000000 	nop
80001940:	80830000 	lb	v1,0(a0)
80001944:	80a70000 	lb	a3,0(a1)
80001948:	00000000 	nop
8000194c:	14e30011 	bne	a3,v1,80001994 <memcmp+0x5c>
80001950:	00000000 	nop
80001954:	24a20001 	addiu	v0,a1,1
80001958:	00a63021 	addu	a2,a1,a2
8000195c:	10000007 	b	8000197c <memcmp+0x44>
80001960:	00000000 	nop
80001964:	24420001 	addiu	v0,v0,1
80001968:	80830000 	lb	v1,0(a0)
8000196c:	8047ffff 	lb	a3,-1(v0)
80001970:	00000000 	nop
80001974:	14670007 	bne	v1,a3,80001994 <memcmp+0x5c>
80001978:	00000000 	nop
8000197c:	24840001 	addiu	a0,a0,1
80001980:	14c2fff8 	bne	a2,v0,80001964 <memcmp+0x2c>
80001984:	00000000 	nop
80001988:	00001025 	move	v0,zero
8000198c:	03e00008 	jr	ra
80001990:	00000000 	nop
80001994:	306300ff 	andi	v1,v1,0xff
80001998:	30e200ff 	andi	v0,a3,0xff
8000199c:	00621023 	subu	v0,v1,v0
800019a0:	03e00008 	jr	ra
800019a4:	00000000 	nop

800019a8 <bzero>:
bzero():
800019a8:	00851021 	addu	v0,a0,a1
800019ac:	10a00005 	beqz	a1,800019c4 <bzero+0x1c>
800019b0:	00000000 	nop
800019b4:	24840001 	addiu	a0,a0,1
800019b8:	a080ffff 	sb	zero,-1(a0)
800019bc:	1444fffd 	bne	v0,a0,800019b4 <bzero+0xc>
800019c0:	00000000 	nop
800019c4:	03e00008 	jr	ra
800019c8:	00000000 	nop
800019cc:	00000000 	nop
800019d0:	6f727245 	0x6f727245
800019d4:	6f632072 	0x6f632072
800019d8:	3a746e75 	xori	s4,s3,0x6e75
800019dc:	0a642520 	j	89909480 <_stack+0x98064a0>
800019e0:	00000000 	nop
800019e4:	656d6954 	0x656d6954
800019e8:	7525203a 	jalx	849480e8 <_stack+0x4845108>
800019ec:	63796320 	0x63796320
800019f0:	2c73656c 	sltiu	s3,v1,25964
800019f4:	20752520 	addi	s5,v1,9504
800019f8:	202c7375 	addi	t4,at,29557
800019fc:	69207525 	0x69207525
80001a00:	0a74736e 	j	89d1cdb8 <_stack+0x9c19dd8>
80001a04:	00000000 	nop
80001a08:	22732522 	addi	s3,s3,9506
80001a0c:	25736920 	addiu	s3,t3,26912
80001a10:	6e692073 	0x6e692073
80001a14:	73252220 	0x73252220
80001a18:	00000022 	neg	zero,zero
80001a1c:	25225b20 	addiu	v0,t1,23328
80001a20:	005d2273 	0x5d2273
80001a24:	00626261 	0x626261
80001a28:	00756f79 	0x756f79
80001a2c:	00746f6e 	0x746f6e
80001a30:	00007469 	0x7469
80001a34:	00646164 	0x646164
80001a38:	006f6f79 	0x6f6f79
80001a3c:	006f6f68 	0x6f6f68
80001a40:	0000686f 	0x686f
80001a44:	00007878 	0x7878
80001a48:	00000078 	0x78
80001a4c:	6c656966 	0x6c656966
80001a50:	00000064 	0x64
80001a54:	0077656e 	0x77656e
80001a58:	00776f72 	0x776f72
80001a5c:	69676572 	0x69676572
80001a60:	0000656d 	0x656d
80001a64:	6d6f6f62 	0x6d6f6f62
80001a68:	00000000 	nop
80001a6c:	74616874 	jalx	8185a1d0 <_stack+0x17571f0>
80001a70:	00000000 	nop
80001a74:	61706d69 	0x61706d69
80001a78:	00007463 	0x7463
80001a7c:	00646e61 	0x646e61
80001a80:	6d6f6f7a 	0x6d6f6f7a
80001a84:	00000000 	nop
80001a88:	74786574 	jalx	81e195d0 <_stack+0x1d165f0>
80001a8c:	00657275 	0x657275
80001a90:	6e67616d 	0x6e67616d
80001a94:	00007465 	0x7465
80001a98:	6d6f6f64 	0x6d6f6f64
80001a9c:	00000000 	nop
80001aa0:	6d6f6f6c 	0x6d6f6f6c
80001aa4:	00000000 	nop
80001aa8:	71657266 	0x71657266
80001aac:	00000000 	nop
80001ab0:	72727563 	0x72727563
80001ab4:	00746e65 	0x746e65
80001ab8:	73616870 	0x73616870
80001abc:	00000065 	0x65
80001ac0:	67616d69 	0x67616d69
80001ac4:	00007365 	0x7365
80001ac8:	65707061 	0x65707061
80001acc:	00737261 	0x737261
80001ad0:	646e6f63 	0x646e6f63
80001ad4:	6f746375 	0x6f746375
80001ad8:	00000072 	0x72
80001adc:	65766177 	0x65766177
80001ae0:	0000007a 	0x7a
80001ae4:	65657266 	0x65657266
80001ae8:	00000000 	nop
80001aec:	6d726574 	0x6d726574
80001af0:	00006465 	0x6465
80001af4:	766f7270 	jalx	89bdc9c0 <_stack+0x9ad99e0>
80001af8:	00656469 	0x656469
80001afc:	00726f66 	0x726f66
80001b00:	75727473 	jalx	85c9d1cc <_stack+0x5b9a1ec>
80001b04:	00007463 	0x7463
80001b08:	756f6261 	jalx	85bd8984 <_stack+0x5ad59a4>
80001b0c:	00000074 	0x74
80001b10:	65766168 	0x65766168
80001b14:	00000000 	nop
80001b18:	706f7270 	0x706f7270
80001b1c:	00007265 	0x7265
80001b20:	6f766e69 	0x6f766e69
80001b24:	0065766c 	0x65766c
80001b28:	63736564 	0x63736564
80001b2c:	65626972 	0x65626972
80001b30:	00796c64 	0x796c64
80001b34:	74616874 	jalx	8185a1d0 <_stack+0x17571f0>
80001b38:	00000073 	0x73
80001b3c:	63617073 	0x63617073
80001b40:	00007365 	0x7365
80001b44:	63726963 	0x63726963
80001b48:	74736d75 	jalx	81cdb5d4 <_stack+0x1bd85f4>
80001b4c:	65636e61 	0x65636e61
80001b50:	00000000 	nop
80001b54:	00656874 	0x656874
80001b58:	626d656d 	0x626d656d
80001b5c:	00007265 	0x7265
80001b60:	68637573 	0x68637573
80001b64:	00000000 	nop
80001b68:	64697567 	0x64697567
80001b6c:	00000065 	0x65
80001b70:	61676572 	0x61676572
80001b74:	00006472 	0x6472
80001b78:	6966666f 	0x6966666f
80001b7c:	73726563 	0x73726563
80001b80:	00000000 	nop
80001b84:	6c706d69 	0x6c706d69
80001b88:	6e656d65 	0x6e656d65
80001b8c:	00000074 	0x74
80001b90:	6e697270 	0x6e697270
80001b94:	61706963 	0x61706963
80001b98:	6974696c 	0x6974696c
80001b9c:	00007365 	0x7365
80001ba0:	62626163 	0x62626163
80001ba4:	00006569 	0x6569
80001ba8:	72756f79 	0x72756f79
80001bac:	00000000 	nop
80001bb0:	69207449 	0x69207449
80001bb4:	74276e73 	jalx	809db9cc <_stack+0x8d89ec>
80001bb8:	72656820 	0x72656820
80001bbc:	00000065 	0x65
80001bc0:	20747542 	addi	s4,v1,30018
80001bc4:	69207469 	0x69207469
80001bc8:	65682073 	0x65682073
80001bcc:	00006572 	0x6572
80001bd0:	61646f68 	0x61646f68
80001bd4:	00000064 	0x64
80001bd8:	686f6f79 	0x686f6f79
80001bdc:	00006f6f 	0x6f6f
80001be0:	0000002e 	0x2e
80001be4:	72206e49 	0x72206e49
80001be8:	6e656365 	0x6e656365
80001bec:	65792074 	0x65792074
80001bf0:	2c737261 	sltiu	s3,v1,29281
80001bf4:	65687420 	0x65687420
80001bf8:	65696620 	0x65696620
80001bfc:	6f20646c 	0x6f20646c
80001c00:	68702066 	0x68702066
80001c04:	6e6f746f 	0x6e6f746f
80001c08:	00206369 	0x206369
80001c0c:	73797263 	0x73797263
80001c10:	736c6174 	0x736c6174
80001c14:	73616820 	0x73616820
80001c18:	756f6620 	jalx	85bd9880 <_stack+0x5ad68a0>
80001c1c:	6e20646e 	0x6e20646e
80001c20:	00007765 	0x7765
80001c24:	6c707061 	0x6c707061
80001c28:	74616369 	jalx	81858da4 <_stack+0x1755dc4>
80001c2c:	736e6f69 	0x736e6f69
80001c30:	206e6920 	addi	t6,v1,26912
80001c34:	20656874 	addi	a1,v1,26740
80001c38:	61204652 	0x61204652
80001c3c:	6d20646e 	0x6d20646e
80001c40:	6f726369 	0x6f726369
80001c44:	65766177 	0x65766177
80001c48:	00000000 	nop
80001c4c:	69676572 	0x69676572
80001c50:	202e656d 	addi	t6,at,25965
80001c54:	656e2041 	0x656e2041
80001c58:	79742077 	0x79742077
80001c5c:	6f206570 	0x6f206570
80001c60:	656d2066 	0x656d2066
80001c64:	6c6c6174 	0x6c6c6174
80001c68:	00006369 	0x6369
80001c6c:	63656c65 	0x63656c65
80001c70:	6d6f7274 	0x6d6f7274
80001c74:	656e6761 	0x656e6761
80001c78:	20636974 	addi	v1,v1,26996
80001c7c:	73797263 	0x73797263
80001c80:	206c6174 	addi	t4,v1,24948
80001c84:	20736168 	addi	s3,v1,24936
80001c88:	6e656562 	0x6e656562
80001c8c:	00000000 	nop
80001c90:	65766564 	0x65766564
80001c94:	65706f6c 	0x65706f6c
80001c98:	68742064 	0x68742064
80001c9c:	69207461 	0x69207461
80001ca0:	61682073 	0x61682073
80001ca4:	676e6976 	0x676e6976
80001ca8:	00006120 	0x6120
80001cac:	6e676973 	0x6e676973
80001cb0:	63696669 	0x63696669
80001cb4:	20746e61 	addi	s4,v1,28257
80001cb8:	61706d69 	0x61706d69
80001cbc:	6f207463 	0x6f207463
80001cc0:	6874206e 	0x6874206e
80001cc4:	69662065 	0x69662065
80001cc8:	20646c65 	addi	a0,v1,27749
80001ccc:	0000666f 	0x666f
80001cd0:	65746e61 	0x65746e61
80001cd4:	73616e6e 	0x73616e6e
80001cd8:	7449202e 	jalx	812480b8 <_stack+0x11450d8>
80001cdc:	6e6f6320 	0x6e6f6320
80001ce0:	74736973 	jalx	81cda5cc <_stack+0x1bd75ec>
80001ce4:	666f2073 	0x666f2073
80001ce8:	00006120 	0x6120
80001cec:	646e6f63 	0x646e6f63
80001cf0:	69746375 	0x69746375
80001cf4:	73206576 	0x73206576
80001cf8:	61667275 	0x61667275
80001cfc:	202c6563 	addi	t4,at,25955
80001d00:	65766f63 	0x65766f63
80001d04:	20646572 	addi	a0,v1,25970
80001d08:	68746977 	0x68746977
80001d0c:	00006120 	0x6120
80001d10:	63657073 	0x63657073
80001d14:	206c6169 	addi	t4,v1,24937
80001d18:	74786574 	jalx	81e195d0 <_stack+0x1d165f0>
80001d1c:	20657275 	addi	a1,v1,29301
80001d20:	63696877 	0x63696877
80001d24:	6c612068 	0x6c612068
80001d28:	73726574 	0x73726574
80001d2c:	73746920 	0x73746920
80001d30:	00000000 	nop
80001d34:	63656c65 	0x63656c65
80001d38:	6d6f7274 	0x6d6f7274
80001d3c:	656e6761 	0x656e6761
80001d40:	20636974 	addi	v1,v1,26996
80001d44:	706f7270 	0x706f7270
80001d48:	69747265 	0x69747265
80001d4c:	202e7365 	addi	t6,at,29541
80001d50:	6564614d 	0x6564614d
80001d54:	20666f20 	addi	a2,v1,28448
80001d58:	696c6f73 	0x696c6f73
80001d5c:	00000064 	0x64
80001d60:	6174656d 	0x6174656d
80001d64:	74202c6c 	jalx	8080b1b0 <_stack+0x7081d0>
80001d68:	73206568 	0x73206568
80001d6c:	63757274 	0x63757274
80001d70:	65727574 	0x65727574
80001d74:	00000000 	nop
80001d78:	646e6f63 	0x646e6f63
80001d7c:	73746375 	0x73746375
80001d80:	20434420 	addi	v1,v0,17440
80001d84:	72727563 	0x72727563
80001d88:	73746e65 	0x73746e65
80001d8c:	7562202c 	jalx	858880b0 <_stack+0x57850d0>
80001d90:	766f2074 	jalx	89bc81d0 <_stack+0x9ac51f0>
80001d94:	61207265 	0x61207265
80001d98:	00000000 	nop
80001d9c:	74726170 	jalx	81c985c0 <_stack+0x1b955e0>
80001da0:	6c756369 	0x6c756369
80001da4:	66207261 	0x66207261
80001da8:	75716572 	jalx	85c595c8 <_stack+0x5b565e8>
80001dac:	79636e65 	0x79636e65
80001db0:	6e617220 	0x6e617220
80001db4:	69206567 	0x69206567
80001db8:	6f642074 	0x6f642074
80001dbc:	00007365 	0x7365
80001dc0:	20746f6e 	addi	s4,v1,28526
80001dc4:	646e6f63 	0x646e6f63
80001dc8:	20746375 	addi	s4,v1,25461
80001dcc:	63204341 	0x63204341
80001dd0:	65727275 	0x65727275
80001dd4:	2e73746e 	sltiu	s3,s3,29806
80001dd8:	20744920 	addi	s4,v1,18720
80001ddc:	73656f64 	0x73656f64
80001de0:	746f6e20 	jalx	81bdb880 <_stack+0x1ad88a0>
80001de4:	00000000 	nop
80001de8:	65766572 	0x65766572
80001dec:	20657372 	addi	a1,v1,29554
80001df0:	20656874 	addi	a1,v1,26740
80001df4:	73616870 	0x73616870
80001df8:	666f2065 	0x666f2065
80001dfc:	66657220 	0x66657220
80001e00:	7463656c 	jalx	818d95b0 <_stack+0x17d65d0>
80001e04:	00006465 	0x6465
80001e08:	65766177 	0x65766177
80001e0c:	61202c73 	0x61202c73
80001e10:	7420646e 	jalx	808191b8 <_stack+0x7161d8>
80001e14:	65206568 	0x65206568
80001e18:	63656666 	0x63656666
80001e1c:	65766974 	0x65766974
80001e20:	616d6920 	0x616d6920
80001e24:	63206567 	0x63206567
80001e28:	65727275 	0x65727275
80001e2c:	0073746e 	0x73746e
80001e30:	65707061 	0x65707061
80001e34:	69207261 	0x69207261
80001e38:	68702d6e 	0x68702d6e
80001e3c:	2c657361 	sltiu	a1,v1,29537
80001e40:	74617220 	jalx	8185c880 <_stack+0x17598a0>
80001e44:	20726568 	addi	s2,v1,25960
80001e48:	6e616874 	0x6e616874
80001e4c:	00000000 	nop
80001e50:	2d74756f 	sltiu	s4,t3,30063
80001e54:	702d666f 	0x702d666f
80001e58:	65736168 	0x65736168
80001e5c:	20736120 	addi	s3,v1,24864
80001e60:	79656874 	0x79656874
80001e64:	65726120 	0x65726120
80001e68:	206e6f20 	addi	t6,v1,28448
80001e6c:	6d726f6e 	0x6d726f6e
80001e70:	00006c61 	0x6c61
80001e74:	646e6f63 	0x646e6f63
80001e78:	6f746375 	0x6f746375
80001e7c:	202e7372 	addi	t6,at,29554
80001e80:	74727546 	jalx	81c9d518 <_stack+0x1b9a538>
80001e84:	6d726568 	0x6d726568
80001e88:	2c65726f 	sltiu	a1,v1,29295
80001e8c:	72757320 	0x72757320
80001e90:	65636166 	0x65636166
80001e94:	00000000 	nop
80001e98:	65766177 	0x65766177
80001e9c:	6f642073 	0x6f642073
80001ea0:	746f6e20 	jalx	81bdb880 <_stack+0x1ad88a0>
80001ea4:	6f727020 	0x6f727020
80001ea8:	61676170 	0x61676170
80001eac:	202c6574 	addi	t4,at,25972
80001eb0:	20646e61 	addi	a0,v1,28257
80001eb4:	74736e69 	jalx	81cdb9a4 <_stack+0x1bd89c4>
80001eb8:	00646165 	0x646165
80001ebc:	69646172 	0x69646172
80001ec0:	20657461 	addi	a1,v1,29793
80001ec4:	69666665 	0x69666665
80001ec8:	6e656963 	0x6e656963
80001ecc:	20796c74 	addi	t9,v1,27764
80001ed0:	6f746e69 	0x6f746e69
80001ed4:	65726620 	0x65726620
80001ed8:	00000065 	0x65
80001edc:	63617073 	0x63617073
80001ee0:	54202e65 	0x54202e65
80001ee4:	20736968 	addi	s3,v1,26984
80001ee8:	2077656e 	addi	s7,v1,25966
80001eec:	6574616d 	0x6574616d
80001ef0:	6c616972 	0x6c616972
80001ef4:	6574202c 	0x6574202c
80001ef8:	64656d72 	0x64656d72
80001efc:	00006120 	0x6120
80001f00:	68676968 	0x68676968
80001f04:	706d692d 	0x706d692d
80001f08:	6e616465 	0x6e616465
80001f0c:	73206563 	0x73206563
80001f10:	61667275 	0x61667275
80001f14:	202c6563 	addi	t4,at,25955
80001f18:	766f7270 	jalx	89bdc9c0 <_stack+0x9ad99e0>
80001f1c:	73656469 	0x73656469
80001f20:	00000000 	nop
80001f24:	73752061 	0x73752061
80001f28:	6c756665 	0x6c756665
80001f2c:	77656e20 	jalx	8d95b880 <_stack+0xd8588a0>
80001f30:	6f726720 	0x6f726720
80001f34:	20646e75 	addi	a0,v1,28277
80001f38:	6e616c70 	0x6e616c70
80001f3c:	6f662065 	0x6f662065
80001f40:	6f6e2072 	0x6f6e2072
80001f44:	006c6576 	0x6c6576
80001f48:	2d776f6c 	sltiu	s7,t3,28524
80001f4c:	666f7270 	0x666f7270
80001f50:	20656c69 	addi	a1,v1,27753
80001f54:	65746e61 	0x65746e61
80001f58:	73616e6e 	0x73616e6e
80001f5c:	646e6120 	0x646e6120
80001f60:	68746f20 	0x68746f20
80001f64:	00007265 	0x7265
80001f68:	63656c65 	0x63656c65
80001f6c:	6d6f7274 	0x6d6f7274
80001f70:	656e6761 	0x656e6761
80001f74:	20636974 	addi	v1,v1,26996
80001f78:	75727473 	jalx	85c9d1cc <_stack+0x5b9a1ec>
80001f7c:	72757463 	0x72757463
80001f80:	002e7365 	0x2e7365
80001f84:	20656854 	addi	a1,v1,26708
80001f88:	65636572 	0x65636572
80001f8c:	7020746e 	0x7020746e
80001f90:	65746f72 	0x65746f72
80001f94:	20737473 	addi	s3,v1,29811
80001f98:	756f6261 	jalx	85bd8984 <_stack+0x5ad59a4>
80001f9c:	68742074 	0x68742074
80001fa0:	694d2065 	0x694d2065
80001fa4:	67696863 	0x67696863
80001fa8:	61756d61 	0x61756d61
80001fac:	00000000 	nop
80001fb0:	64757473 	0x64757473
80001fb4:	20746e65 	addi	s4,v1,28261
80001fb8:	6167726f 	0x6167726f
80001fbc:	617a696e 	0x617a696e
80001fc0:	6e6f6974 	0x6e6f6974
80001fc4:	76616820 	jalx	8985a080 <_stack+0x97570a0>
80001fc8:	61722065 	0x61722065
80001fcc:	64657369 	0x64657369
80001fd0:	006e6120 	0x6e6120
80001fd4:	6f706d69 	0x6f706d69
80001fd8:	6e617472 	0x6e617472
80001fdc:	75712074 	jalx	85c481d0 <_stack+0x5b451f0>
80001fe0:	69747365 	0x69747365
80001fe4:	61206e6f 	0x61206e6f
80001fe8:	6f742073 	0x6f742073
80001fec:	65687420 	0x65687420
80001ff0:	6f727020 	0x6f727020
80001ff4:	20726570 	addi	s2,v1,25968
80001ff8:	7574616e 	jalx	85d185b8 <_stack+0x5c155d8>
80001ffc:	00006572 	0x6572
80002000:	20646e61 	addi	a0,v1,28257
80002004:	706f6373 	0x706f6373
80002008:	666f2065 	0x666f2065
8000200c:	696e5520 	0x696e5520
80002010:	73726576 	0x73726576
80002014:	20797469 	addi	t9,v1,29801
80002018:	6f766e69 	0x6f766e69
8000201c:	6d65766c 	0x6d65766c
80002020:	00746e65 	0x746e65
80002024:	68746977 	0x68746977
80002028:	75747320 	jalx	85d1cc80 <_stack+0x5c19ca0>
8000202c:	746e6564 	jalx	81b99590 <_stack+0x1a965b0>
80002030:	67726f20 	0x67726f20
80002034:	7a696e61 	0x7a696e61
80002038:	6f697461 	0x6f697461
8000203c:	202e736e 	addi	t6,at,29550
80002040:	6f636341 	0x6f636341
80002044:	6e696472 	0x6e696472
80002048:	00796c67 	0x796c67
8000204c:	20656874 	addi	a1,v1,26740
80002050:	656e6170 	0x656e6170
80002054:	6564206c 	0x6564206c
80002058:	69726373 	0x69726373
8000205c:	20646562 	addi	a0,v1,25954
80002060:	6d206e69 	0x6d206e69
80002064:	74532079 	jalx	814c81e4 <_stack+0x13c5204>
80002068:	6d657461 	0x6d657461
8000206c:	20746e65 	addi	s4,v1,28261
80002070:	0000666f 	0x666f
80002074:	72626546 	0x72626546
80002078:	79726175 	0x79726175
8000207c:	2c353220 	sltiu	s5,at,12832
80002080:	30303220 	andi	s0,at,0x3220
80002084:	68742030 	0x68742030
80002088:	69207461 	0x69207461
8000208c:	6f632073 	0x6f632073
80002090:	6469736e 	0x6469736e
80002094:	6e697265 	0x6e697265
80002098:	68742067 	0x68742067
8000209c:	00000065 	0x65
800020a0:	73657571 	0x73657571
800020a4:	6e6f6974 	0x6e6f6974
800020a8:	20666f20 	addi	a2,v1,28448
800020ac:	76697270 	jalx	89a5c9c0 <_stack+0x99599e0>
800020b0:	67656c69 	0x67656c69
800020b4:	73206465 	0x73206465
800020b8:	65636170 	0x65636170
800020bc:	736c6120 	0x736c6120
800020c0:	6977206f 	0x6977206f
800020c4:	00006c6c 	0x6c6c
800020c8:	736e6f63 	0x736e6f63
800020cc:	72656469 	0x72656469
800020d0:	646e7520 	0x646e7520
800020d4:	77207265 	jalx	8c81c994 <_stack+0xc7199b4>
800020d8:	20746168 	addi	s4,v1,24936
800020dc:	63726963 	0x63726963
800020e0:	74736d75 	jalx	81cdb5d4 <_stack+0x1bd85f4>
800020e4:	65636e61 	0x65636e61
800020e8:	6e612073 	0x6e612073
800020ec:	6e692064 	0x6e692064
800020f0:	00000000 	nop
800020f4:	74616877 	jalx	8185a1dc <_stack+0x17571fc>
800020f8:	79617720 	0x79617720
800020fc:	68742073 	0x68742073
80002100:	6e552065 	0x6e552065
80002104:	72657669 	0x72657669
80002108:	79746973 	0x79746973
8000210c:	7469202c 	jalx	81a480b0 <_stack+0x19450d0>
80002110:	00000073 	0x73
80002114:	696d6461 	0x696d6461
80002118:	7473696e 	jalx	81cda5b8 <_stack+0x1bd75d8>
8000211c:	6f746172 	0x6f746172
80002120:	61207372 	0x61207372
80002124:	6620646e 	0x6620646e
80002128:	6c756361 	0x6c756361
8000212c:	6d207974 	0x6d207974
80002130:	65626d65 	0x65626d65
80002134:	73207372 	0x73207372
80002138:	6c756f68 	0x6c756f68
8000213c:	00000064 	0x64
80002140:	61206562 	0x61206562
80002144:	636f7373 	0x636f7373
80002148:	65746169 	0x65746169
8000214c:	69772064 	0x69772064
80002150:	73206874 	0x73206874
80002154:	20686375 	addi	t0,v1,25461
80002158:	6167726f 	0x6167726f
8000215c:	617a696e 	0x617a696e
80002160:	6e6f6974 	0x6e6f6974
80002164:	00000073 	0x73
80002168:	20646e61 	addi	a0,v1,28257
8000216c:	77207469 	jalx	8c81d1a4 <_stack+0xc71a1c4>
80002170:	206c6c69 	addi	t4,v1,27753
80002174:	6f636572 	0x6f636572
80002178:	6e656d6d 	0x6e656d6d
8000217c:	75672064 	jalx	859c8190 <_stack+0x58c51b0>
80002180:	6e696469 	0x6e696469
80002184:	72702067 	0x72702067
80002188:	69636e69 	0x69636e69
8000218c:	73656c70 	0x73656c70
80002190:	00000000 	nop
80002194:	74206e69 	jalx	8081b9a4 <_stack+0x7189c4>
80002198:	20736968 	addi	s3,v1,26984
8000219c:	61676572 	0x61676572
800021a0:	202e6472 	addi	t6,at,25714
800021a4:	20656854 	addi	a1,v1,26708
800021a8:	76696e55 	jalx	89a5b954 <_stack+0x9958974>
800021ac:	69737265 	0x69737265
800021b0:	73277974 	0x73277974
800021b4:	00000000 	nop
800021b8:	63657845 	0x63657845
800021bc:	76697475 	jalx	89a5d1d4 <_stack+0x995a1f4>
800021c0:	664f2065 	0x664f2065
800021c4:	65636966 	0x65636966
800021c8:	61207372 	0x61207372
800021cc:	4920646e 	0x4920646e
800021d0:	6c697720 	0x6c697720
800021d4:	6874206c 	0x6874206c
800021d8:	64206e65 	0x64206e65
800021dc:	64696365 	0x64696365
800021e0:	00000065 	0x65
800021e4:	74656877 	jalx	8195a1dc <_stack+0x18571fc>
800021e8:	20726568 	addi	s2,v1,25960
800021ec:	20646e61 	addi	a0,v1,28257
800021f0:	20776f68 	addi	s7,v1,28520
800021f4:	69206f74 	0x69206f74
800021f8:	656c706d 	0x656c706d
800021fc:	746e656d 	jalx	81b995b4 <_stack+0x1a965d4>
80002200:	63757320 	0x63757320
80002204:	00000068 	0x68
80002208:	6e697270 	0x6e697270
8000220c:	6c706963 	0x6c706963
80002210:	002e7365 	0x2e7365
	...
80002220:	80001a24 	lb	zero,6692(zero)
80002224:	80001a28 	lb	zero,6696(zero)
80002228:	80001a2c 	lb	zero,6700(zero)
8000222c:	80001a30 	lb	zero,6704(zero)
80002230:	80001a34 	lb	zero,6708(zero)
80002234:	80001a38 	lb	zero,6712(zero)
80002238:	80001a3c 	lb	zero,6716(zero)
8000223c:	80001bdc 	lb	zero,7132(zero)
80002240:	80001a40 	lb	zero,6720(zero)
80002244:	80001a44 	lb	zero,6724(zero)
80002248:	80001a44 	lb	zero,6724(zero)
8000224c:	80001a48 	lb	zero,6728(zero)
80002250:	80001a48 	lb	zero,6728(zero)
80002254:	80001a4c 	lb	zero,6732(zero)
80002258:	80001a54 	lb	zero,6740(zero)
8000225c:	80001a58 	lb	zero,6744(zero)
80002260:	80001a5c 	lb	zero,6748(zero)
80002264:	80001a64 	lb	zero,6756(zero)
80002268:	80001a6c 	lb	zero,6764(zero)
8000226c:	80001a74 	lb	zero,6772(zero)
80002270:	80001a7c 	lb	zero,6780(zero)
80002274:	80001a80 	lb	zero,6784(zero)
80002278:	80001a88 	lb	zero,6792(zero)
8000227c:	80001a90 	lb	zero,6800(zero)
80002280:	80001a98 	lb	zero,6808(zero)
80002284:	80001aa0 	lb	zero,6816(zero)
80002288:	80001aa8 	lb	zero,6824(zero)
8000228c:	80001ab0 	lb	zero,6832(zero)
80002290:	80001ab8 	lb	zero,6840(zero)
80002294:	80001ac0 	lb	zero,6848(zero)
80002298:	80001ac8 	lb	zero,6856(zero)
8000229c:	80001ab8 	lb	zero,6840(zero)
800022a0:	80001ad0 	lb	zero,6864(zero)
800022a4:	80001adc 	lb	zero,6876(zero)
800022a8:	80001e6c 	lb	zero,7788(zero)
800022ac:	80001ae4 	lb	zero,6884(zero)
800022b0:	80001aec 	lb	zero,6892(zero)
800022b4:	80001af4 	lb	zero,6900(zero)
800022b8:	80001afc 	lb	zero,6908(zero)
800022bc:	80001a7c 	lb	zero,6780(zero)
800022c0:	80001b00 	lb	zero,6912(zero)
800022c4:	80001b08 	lb	zero,6920(zero)
800022c8:	80001b10 	lb	zero,6928(zero)
800022cc:	80001b18 	lb	zero,6936(zero)
800022d0:	80001b20 	lb	zero,6944(zero)
800022d4:	80001b28 	lb	zero,6952(zero)
800022d8:	80001b34 	lb	zero,6964(zero)
800022dc:	80001b3c 	lb	zero,6972(zero)
800022e0:	80001b44 	lb	zero,6980(zero)
800022e4:	80001b54 	lb	zero,6996(zero)
800022e8:	80001b58 	lb	zero,7000(zero)
800022ec:	80001b60 	lb	zero,7008(zero)
800022f0:	80001b68 	lb	zero,7016(zero)
800022f4:	80001b70 	lb	zero,7024(zero)
800022f8:	80001b78 	lb	zero,7032(zero)
800022fc:	80001b84 	lb	zero,7044(zero)
80002300:	80001b90 	lb	zero,7056(zero)
80002304:	00000000 	nop
80002308:	80001ba0 	lb	zero,7072(zero)
8000230c:	80001ba8 	lb	zero,7080(zero)
80002310:	80001bb0 	lb	zero,7088(zero)
80002314:	80001bc0 	lb	zero,7104(zero)
80002318:	80001bd0 	lb	zero,7120(zero)
8000231c:	80001bd8 	lb	zero,7128(zero)
80002320:	80001bd8 	lb	zero,7128(zero)
80002324:	80001bd8 	lb	zero,7128(zero)
80002328:	80001bd8 	lb	zero,7128(zero)
8000232c:	80001bd8 	lb	zero,7128(zero)
80002330:	80001a44 	lb	zero,6724(zero)
80002334:	80001a48 	lb	zero,6728(zero)
80002338:	80001be0 	lb	zero,7136(zero)
8000233c:	80001be4 	lb	zero,7140(zero)
80002340:	80001c0c 	lb	zero,7180(zero)
80002344:	80001c24 	lb	zero,7204(zero)
80002348:	80001c4c 	lb	zero,7244(zero)
8000234c:	80001c6c 	lb	zero,7276(zero)
80002350:	80001c90 	lb	zero,7312(zero)
80002354:	80001cac 	lb	zero,7340(zero)
80002358:	80001cd0 	lb	zero,7376(zero)
8000235c:	80001cec 	lb	zero,7404(zero)
80002360:	80001d10 	lb	zero,7440(zero)
80002364:	80001d34 	lb	zero,7476(zero)
80002368:	80001d60 	lb	zero,7520(zero)
8000236c:	80001d78 	lb	zero,7544(zero)
80002370:	80001d9c 	lb	zero,7580(zero)
80002374:	80001dc0 	lb	zero,7616(zero)
80002378:	80001de8 	lb	zero,7656(zero)
8000237c:	80001e08 	lb	zero,7688(zero)
80002380:	80001e30 	lb	zero,7728(zero)
80002384:	80001e50 	lb	zero,7760(zero)
80002388:	80001e74 	lb	zero,7796(zero)
8000238c:	80001e98 	lb	zero,7832(zero)
80002390:	80001ebc 	lb	zero,7868(zero)
80002394:	80001edc 	lb	zero,7900(zero)
80002398:	80001f00 	lb	zero,7936(zero)
8000239c:	80001f24 	lb	zero,7972(zero)
800023a0:	80001f48 	lb	zero,8008(zero)
800023a4:	80001f68 	lb	zero,8040(zero)
800023a8:	80001f84 	lb	zero,8068(zero)
800023ac:	80001fb0 	lb	zero,8112(zero)
800023b0:	80001fd4 	lb	zero,8148(zero)
800023b4:	80002000 	lb	zero,8192(zero)
800023b8:	80002024 	lb	zero,8228(zero)
800023bc:	8000204c 	lb	zero,8268(zero)
800023c0:	80002074 	lb	zero,8308(zero)
800023c4:	800020a0 	lb	zero,8352(zero)
800023c8:	800020c8 	lb	zero,8392(zero)
800023cc:	800020f4 	lb	zero,8436(zero)
800023d0:	80002114 	lb	zero,8468(zero)
800023d4:	80002140 	lb	zero,8512(zero)
800023d8:	80002168 	lb	zero,8552(zero)
800023dc:	80002194 	lb	zero,8596(zero)
800023e0:	800021b8 	lb	zero,8632(zero)
800023e4:	800021e4 	lb	zero,8676(zero)
800023e8:	80002208 	lb	zero,8712(zero)
800023ec:	00000001 	0x1
800023f0:	00000001 	0x1
800023f4:	00000000 	nop
800023f8:	00000001 	0x1
800023fc:	00000001 	0x1
80002400:	00000001 	0x1
80002404:	00000001 	0x1
80002408:	00000001 	0x1
8000240c:	00000001 	0x1
80002410:	00000000 	nop
80002414:	00000001 	0x1
80002418:	00000001 	0x1
8000241c:	00000000 	nop
80002420:	00000001 	0x1
80002424:	00000001 	0x1
80002428:	00000001 	0x1
8000242c:	00000001 	0x1
80002430:	00000000 	nop
80002434:	00000001 	0x1
80002438:	00000001 	0x1
	...
80002444:	00000001 	0x1
80002448:	00000001 	0x1
	...
80002454:	00000001 	0x1
80002458:	00000001 	0x1
8000245c:	00000001 	0x1
	...
80002468:	00000001 	0x1
8000246c:	00000001 	0x1
	...
800024ac:	00000001 	0x1
800024b0:	00000001 	0x1
800024b4:	00000001 	0x1
800024b8:	00000001 	0x1
800024bc:	00000000 	nop
800024c0:	00000001 	0x1
800024c4:	00000000 	nop
800024c8:	00000001 	0x1
800024cc:	00000000 	nop
800024d0:	800012a0 	lb	zero,4768(zero)
800024d4:	80001168 	lb	zero,4456(zero)
800024d8:	80001168 	lb	zero,4456(zero)
800024dc:	80001168 	lb	zero,4456(zero)
800024e0:	80001168 	lb	zero,4456(zero)
800024e4:	80001168 	lb	zero,4456(zero)
800024e8:	80001168 	lb	zero,4456(zero)
800024ec:	80001168 	lb	zero,4456(zero)
800024f0:	80001168 	lb	zero,4456(zero)
800024f4:	80001168 	lb	zero,4456(zero)
800024f8:	80001168 	lb	zero,4456(zero)
800024fc:	800010f4 	lb	zero,4340(zero)
80002500:	80001104 	lb	zero,4356(zero)
80002504:	80001104 	lb	zero,4356(zero)
80002508:	80001104 	lb	zero,4356(zero)
8000250c:	80001104 	lb	zero,4356(zero)
80002510:	80001104 	lb	zero,4356(zero)
80002514:	80001104 	lb	zero,4356(zero)
80002518:	80001104 	lb	zero,4356(zero)
8000251c:	80001104 	lb	zero,4356(zero)
80002520:	80001104 	lb	zero,4356(zero)
80002524:	80001168 	lb	zero,4456(zero)
80002528:	80001168 	lb	zero,4456(zero)
8000252c:	80001168 	lb	zero,4456(zero)
80002530:	80001168 	lb	zero,4456(zero)
80002534:	80001168 	lb	zero,4456(zero)
80002538:	80001168 	lb	zero,4456(zero)
8000253c:	80001168 	lb	zero,4456(zero)
80002540:	80001168 	lb	zero,4456(zero)
80002544:	80001168 	lb	zero,4456(zero)
80002548:	80001168 	lb	zero,4456(zero)
8000254c:	80001168 	lb	zero,4456(zero)
80002550:	80001168 	lb	zero,4456(zero)
80002554:	80001168 	lb	zero,4456(zero)
80002558:	80001168 	lb	zero,4456(zero)
8000255c:	80001168 	lb	zero,4456(zero)
80002560:	80001168 	lb	zero,4456(zero)
80002564:	80001168 	lb	zero,4456(zero)
80002568:	80001168 	lb	zero,4456(zero)
8000256c:	80001168 	lb	zero,4456(zero)
80002570:	80001168 	lb	zero,4456(zero)
80002574:	80001168 	lb	zero,4456(zero)
80002578:	80001168 	lb	zero,4456(zero)
8000257c:	80001168 	lb	zero,4456(zero)
80002580:	80001168 	lb	zero,4456(zero)
80002584:	80001168 	lb	zero,4456(zero)
80002588:	80001168 	lb	zero,4456(zero)
8000258c:	80001168 	lb	zero,4456(zero)
80002590:	80001168 	lb	zero,4456(zero)
80002594:	80001168 	lb	zero,4456(zero)
80002598:	80001168 	lb	zero,4456(zero)
8000259c:	80001168 	lb	zero,4456(zero)
800025a0:	80001168 	lb	zero,4456(zero)
800025a4:	80001168 	lb	zero,4456(zero)
800025a8:	80001168 	lb	zero,4456(zero)
800025ac:	80001168 	lb	zero,4456(zero)
800025b0:	80001168 	lb	zero,4456(zero)
800025b4:	80001168 	lb	zero,4456(zero)
800025b8:	80001168 	lb	zero,4456(zero)
800025bc:	80001168 	lb	zero,4456(zero)
800025c0:	80001168 	lb	zero,4456(zero)
800025c4:	8000127c 	lb	zero,4732(zero)
800025c8:	80001260 	lb	zero,4704(zero)
800025cc:	8000123c 	lb	zero,4668(zero)
800025d0:	80001168 	lb	zero,4456(zero)
800025d4:	80001168 	lb	zero,4456(zero)
800025d8:	80001168 	lb	zero,4456(zero)
800025dc:	80001168 	lb	zero,4456(zero)
800025e0:	80001168 	lb	zero,4456(zero)
800025e4:	80001168 	lb	zero,4456(zero)
800025e8:	80001168 	lb	zero,4456(zero)
800025ec:	80001218 	lb	zero,4632(zero)
800025f0:	80001168 	lb	zero,4456(zero)
800025f4:	80001168 	lb	zero,4456(zero)
800025f8:	800011f4 	lb	zero,4596(zero)
800025fc:	800011d0 	lb	zero,4560(zero)
80002600:	80001168 	lb	zero,4456(zero)
80002604:	80001168 	lb	zero,4456(zero)
80002608:	800011b4 	lb	zero,4532(zero)
8000260c:	80001168 	lb	zero,4456(zero)
80002610:	80001190 	lb	zero,4496(zero)
80002614:	80001168 	lb	zero,4456(zero)
80002618:	80001168 	lb	zero,4456(zero)
8000261c:	800011d0 	lb	zero,4560(zero)
80002620:	636f6c63 	0x636f6c63
80002624:	736e206b 	0x736e206b
80002628:	2c64253d 	sltiu	a0,v1,9533
8000262c:	3d636573 	0x3d636573
80002630:	000a6425 	0xa6425
80002634:	72656854 	0x72656854
80002638:	73692065 	0x73692065
8000263c:	206e6120 	addi	t6,v1,24864
80002640:	65637865 	0x65637865
80002644:	6f697470 	0x6f697470
80002648:	0a21216e 	j	888485b8 <_stack+0x87455d8>
8000264c:	00000000 	nop
80002650:	20656854 	addi	a1,v1,26708
80002654:	20637065 	addi	v1,v1,28773
80002658:	25207369 	addiu	zero,t1,29545
8000265c:	00000a78 	0xa78
80002660:	20656854 	addi	a1,v1,26708
80002664:	73756163 	0x73756163
80002668:	73692065 	0x73692065
8000266c:	0a782520 	j	89e09480 <_stack+0x9d064a0>
80002670:	00000000 	nop
80002674:	b0000702 	0xb0000702
	...
80002690:	00010000 	sll	zero,at,0x0
80002694:	03000001 	0x3000001
	...
