
obj/crc32/main.elf:     file format elf32-tradlittlemips
obj/crc32/main.elf


Disassembly of section .text:

80000000 <_ftext>:
_ftext():
80000000:	3c0a0040 	lui	t2,0x40
80000004:	408a6000 	mtc0	t2,c0_sr
80000008:	40806800 	mtc0	zero,c0_cause
8000000c:	3c1d8010 	lui	sp,0x8010
80000010:	27bd2fe0 	addiu	sp,sp,12256
80000014:	3c1c8001 	lui	gp,0x8001
80000018:	279caff0 	addiu	gp,gp,-20496
8000001c:	041100dc 	bal	80000390 <shell>
80000020:	00000000 	nop

80000024 <loop>:
loop():
80000024:	3c08bfd0 	lui	t0,0xbfd0
80000028:	8d090500 	lw	t1,1280(t0)
8000002c:	3c0a8000 	lui	t2,0x8000
80000030:	ad490000 	sw	t1,0(t2)
80000034:	08000009 	j	80000024 <loop>
80000038:	00000000 	nop

8000003c <exit>:
exit():
8000003c:	340900ff 	li	t1,0xff
80000040:	3c018000 	lui	at,0x8000
80000044:	a0297ffc 	sb	t1,32764(at)
	...
80000380:	0c0004c2 	jal	80001308 <exception>
80000384:	00000000 	nop
80000388:	0800000f 	j	8000003c <exit>
8000038c:	00000000 	nop

80000390 <shell>:
shell():
80000390:	27bdffd0 	addiu	sp,sp,-48
80000394:	afbf002c 	sw	ra,44(sp)
80000398:	afb50028 	sw	s5,40(sp)
8000039c:	afb40024 	sw	s4,36(sp)
800003a0:	afb30020 	sw	s3,32(sp)
800003a4:	afb2001c 	sw	s2,28(sp)
800003a8:	afb10018 	sw	s1,24(sp)
800003ac:	afb00014 	sw	s0,20(sp)
800003b0:	0c000468 	jal	800011a0 <get_count>
800003b4:	00000000 	nop
800003b8:	0040a825 	move	s5,v0
800003bc:	0c0004ad 	jal	800012b4 <get_inst>
800003c0:	00000000 	nop
800003c4:	0040a025 	move	s4,v0
800003c8:	0c0004a9 	jal	800012a4 <get_us>
800003cc:	00000000 	nop
800003d0:	00408825 	move	s1,v0
800003d4:	0c00028c 	jal	80000a30 <crc32>
800003d8:	00000000 	nop
800003dc:	00409825 	move	s3,v0
800003e0:	0c000468 	jal	800011a0 <get_count>
800003e4:	00000000 	nop
800003e8:	00408025 	move	s0,v0
800003ec:	0c0004ad 	jal	800012b4 <get_inst>
800003f0:	00000000 	nop
800003f4:	00409025 	move	s2,v0
800003f8:	0c0004a9 	jal	800012a4 <get_us>
800003fc:	00000000 	nop
80000400:	0215a823 	subu	s5,s0,s5
80000404:	00518823 	subu	s1,v0,s1
80000408:	0254a023 	subu	s4,s2,s4
8000040c:	12600014 	beqz	s3,80000460 <shell+0xd0>
80000410:	00000000 	nop
80000414:	3c048000 	lui	a0,0x8000
80000418:	24841b94 	addiu	a0,a0,7060
8000041c:	0c0004fd 	jal	800013f4 <puts>
80000420:	00000000 	nop
80000424:	3c038000 	lui	v1,0x8000
80000428:	8fbf002c 	lw	ra,44(sp)
8000042c:	8fb30020 	lw	s3,32(sp)
80000430:	02803825 	move	a3,s4
80000434:	8fb2001c 	lw	s2,28(sp)
80000438:	02203025 	move	a2,s1
8000043c:	8fb40024 	lw	s4,36(sp)
80000440:	02a02825 	move	a1,s5
80000444:	8fb10018 	lw	s1,24(sp)
80000448:	24641ba8 	addiu	a0,v1,7080
8000044c:	8fb50028 	lw	s5,40(sp)
80000450:	8fb00014 	lw	s0,20(sp)
80000454:	27bd0030 	addiu	sp,sp,48
80000458:	080003ae 	j	80000eb8 <printf>
8000045c:	00000000 	nop
80000460:	3c028000 	lui	v0,0x8000
80000464:	24441b80 	addiu	a0,v0,7040
80000468:	0c0004fd 	jal	800013f4 <puts>
8000046c:	00000000 	nop
80000470:	1000ffec 	b	80000424 <shell+0x94>
80000474:	00000000 	nop
	...

80000480 <updateCRC32>:
updateCRC32():
80000480:	00a42026 	xor	a0,a1,a0
80000484:	3c068000 	lui	a2,0x8000
80000488:	308200ff 	andi	v0,a0,0xff
8000048c:	00021880 	sll	v1,v0,0x2
80000490:	24c71c00 	addiu	a3,a2,7168
80000494:	00052a02 	srl	a1,a1,0x8
80000498:	00674021 	addu	t0,v1,a3
8000049c:	8d090000 	lw	t1,0(t0)
800004a0:	00000000 	nop
800004a4:	00a91026 	xor	v0,a1,t1
800004a8:	03e00008 	jr	ra
800004ac:	00000000 	nop

800004b0 <crc32file>:
crc32file():
800004b0:	27bdffc8 	addiu	sp,sp,-56
800004b4:	8f848010 	lw	a0,-32752(gp)
800004b8:	afbf0034 	sw	ra,52(sp)
800004bc:	afb70030 	sw	s7,48(sp)
800004c0:	00c0b825 	move	s7,a2
800004c4:	afb6002c 	sw	s6,44(sp)
800004c8:	2416ffff 	li	s6,-1
800004cc:	afb50028 	sw	s5,40(sp)
800004d0:	00a0a825 	move	s5,a1
800004d4:	afb40024 	sw	s4,36(sp)
800004d8:	3c148000 	lui	s4,0x8000
800004dc:	afb30020 	sw	s3,32(sp)
800004e0:	3c138000 	lui	s3,0x8000
800004e4:	afb2001c 	sw	s2,28(sp)
800004e8:	26941c00 	addiu	s4,s4,7168
800004ec:	afb10018 	sw	s1,24(sp)
800004f0:	26731be0 	addiu	s3,s3,7136
800004f4:	afb00014 	sw	s0,20(sp)
800004f8:	2410ffff 	li	s0,-1
800004fc:	acc00000 	sw	zero,0(a2)
80000500:	0c000524 	jal	80001490 <fopen>
80000504:	00000000 	nop
80000508:	3c048000 	lui	a0,0x8000
8000050c:	00409025 	move	s2,v0
80000510:	24841bcc 	addiu	a0,a0,7116
80000514:	0c0004fd 	jal	800013f4 <puts>
80000518:	00000000 	nop
8000051c:	8e440000 	lw	a0,0(s2)
80000520:	0c0005e0 	jal	80001780 <strlen>
80000524:	00000000 	nop
80000528:	00402825 	move	a1,v0
8000052c:	3c028000 	lui	v0,0x8000
80000530:	24441bd4 	addiu	a0,v0,7124
80000534:	0c0003ae 	jal	80000eb8 <printf>
80000538:	00000000 	nop
8000053c:	02402025 	move	a0,s2
80000540:	0c0005c5 	jal	80001714 <getc>
80000544:	00000000 	nop
80000548:	02602025 	move	a0,s3
8000054c:	00408825 	move	s1,v0
80000550:	10560059 	beq	v0,s6,800006b8 <crc32file+0x208>
80000554:	00000000 	nop
80000558:	8ee30000 	lw	v1,0(s7)
8000055c:	00000000 	nop
80000560:	24660001 	addiu	a2,v1,1
80000564:	00c02825 	move	a1,a2
80000568:	aee60000 	sw	a2,0(s7)
8000056c:	0c0003ae 	jal	80000eb8 <printf>
80000570:	00000000 	nop
80000574:	02112826 	xor	a1,s0,s1
80000578:	30a700ff 	andi	a3,a1,0xff
8000057c:	00074080 	sll	t0,a3,0x2
80000580:	00108202 	srl	s0,s0,0x8
80000584:	01144821 	addu	t1,t0,s4
80000588:	02402025 	move	a0,s2
8000058c:	8d2a0000 	lw	t2,0(t1)
80000590:	00000000 	nop
80000594:	01508026 	xor	s0,t2,s0
80000598:	0c0005c5 	jal	80001714 <getc>
8000059c:	00000000 	nop
800005a0:	00408825 	move	s1,v0
800005a4:	02602025 	move	a0,s3
800005a8:	10560043 	beq	v0,s6,800006b8 <crc32file+0x208>
800005ac:	00000000 	nop
800005b0:	8eeb0000 	lw	t3,0(s7)
800005b4:	00000000 	nop
800005b8:	256c0001 	addiu	t4,t3,1
800005bc:	01802825 	move	a1,t4
800005c0:	aeec0000 	sw	t4,0(s7)
800005c4:	0c0003ae 	jal	80000eb8 <printf>
800005c8:	00000000 	nop
800005cc:	02116826 	xor	t5,s0,s1
800005d0:	31ae00ff 	andi	t6,t5,0xff
800005d4:	000e7880 	sll	t7,t6,0x2
800005d8:	0010c202 	srl	t8,s0,0x8
800005dc:	01f4c821 	addu	t9,t7,s4
800005e0:	02402025 	move	a0,s2
800005e4:	8f220000 	lw	v0,0(t9)
800005e8:	00000000 	nop
800005ec:	00588026 	xor	s0,v0,t8
800005f0:	0c0005c5 	jal	80001714 <getc>
800005f4:	00000000 	nop
800005f8:	00408825 	move	s1,v0
800005fc:	02602025 	move	a0,s3
80000600:	1056002d 	beq	v0,s6,800006b8 <crc32file+0x208>
80000604:	00000000 	nop
80000608:	8eff0000 	lw	ra,0(s7)
8000060c:	00000000 	nop
80000610:	27e30001 	addiu	v1,ra,1
80000614:	00602825 	move	a1,v1
80000618:	aee30000 	sw	v1,0(s7)
8000061c:	0c0003ae 	jal	80000eb8 <printf>
80000620:	00000000 	nop
80000624:	02112026 	xor	a0,s0,s1
80000628:	308600ff 	andi	a2,a0,0xff
8000062c:	00062880 	sll	a1,a2,0x2
80000630:	00103a02 	srl	a3,s0,0x8
80000634:	00b44021 	addu	t0,a1,s4
80000638:	02402025 	move	a0,s2
8000063c:	8d100000 	lw	s0,0(t0)
80000640:	00000000 	nop
80000644:	02078026 	xor	s0,s0,a3
80000648:	0c0005c5 	jal	80001714 <getc>
8000064c:	00000000 	nop
80000650:	00408825 	move	s1,v0
80000654:	02602025 	move	a0,s3
80000658:	10560017 	beq	v0,s6,800006b8 <crc32file+0x208>
8000065c:	00000000 	nop
80000660:	8ee90000 	lw	t1,0(s7)
80000664:	00000000 	nop
80000668:	252a0001 	addiu	t2,t1,1
8000066c:	01402825 	move	a1,t2
80000670:	aeea0000 	sw	t2,0(s7)
80000674:	0c0003ae 	jal	80000eb8 <printf>
80000678:	00000000 	nop
8000067c:	02115826 	xor	t3,s0,s1
80000680:	316c00ff 	andi	t4,t3,0xff
80000684:	000c6880 	sll	t5,t4,0x2
80000688:	00107202 	srl	t6,s0,0x8
8000068c:	01b47821 	addu	t7,t5,s4
80000690:	02402025 	move	a0,s2
80000694:	8df80000 	lw	t8,0(t7)
80000698:	00000000 	nop
8000069c:	030e8026 	xor	s0,t8,t6
800006a0:	0c0005c5 	jal	80001714 <getc>
800006a4:	00000000 	nop
800006a8:	00408825 	move	s1,v0
800006ac:	02602025 	move	a0,s3
800006b0:	1456ffa9 	bne	v0,s6,80000558 <crc32file+0xa8>
800006b4:	00000000 	nop
800006b8:	3c178000 	lui	s7,0x8000
800006bc:	2405ffff 	li	a1,-1
800006c0:	26e41be8 	addiu	a0,s7,7144
800006c4:	3c168000 	lui	s6,0x8000
800006c8:	0c0003ae 	jal	80000eb8 <printf>
800006cc:	00000000 	nop
800006d0:	26c41bec 	addiu	a0,s6,7148
800006d4:	0c0004fd 	jal	800013f4 <puts>
800006d8:	00000000 	nop
800006dc:	02402025 	move	a0,s2
800006e0:	0c00057f 	jal	800015fc <fclose>
800006e4:	00000000 	nop
800006e8:	00109027 	nor	s2,zero,s0
800006ec:	8fbf0034 	lw	ra,52(sp)
800006f0:	00001025 	move	v0,zero
800006f4:	8fb70030 	lw	s7,48(sp)
800006f8:	8fb6002c 	lw	s6,44(sp)
800006fc:	8fb40024 	lw	s4,36(sp)
80000700:	8fb30020 	lw	s3,32(sp)
80000704:	8fb10018 	lw	s1,24(sp)
80000708:	8fb00014 	lw	s0,20(sp)
8000070c:	aeb20000 	sw	s2,0(s5)
80000710:	8fb50028 	lw	s5,40(sp)
80000714:	8fb2001c 	lw	s2,28(sp)
80000718:	27bd0038 	addiu	sp,sp,56
8000071c:	03e00008 	jr	ra
80000720:	00000000 	nop
	...

80000730 <crc32buf>:
crc32buf():
80000730:	10a000bb 	beqz	a1,80000a20 <crc32buf+0x2f0>
80000734:	00000000 	nop
80000738:	90820000 	lbu	v0,0(a0)
8000073c:	3c068000 	lui	a2,0x8000
80000740:	00852821 	addu	a1,a0,a1
80000744:	24ce1c00 	addiu	t6,a2,7168
80000748:	00021880 	sll	v1,v0,0x2
8000074c:	240dffff 	li	t5,-1
80000750:	386703fc 	xori	a3,v1,0x3fc
80000754:	01c74021 	addu	t0,t6,a3
80000758:	00044827 	nor	t1,zero,a0
8000075c:	00a95021 	addu	t2,a1,t1
80000760:	8d0b0000 	lw	t3,0(t0)
80000764:	000d7a02 	srl	t7,t5,0x8
80000768:	24830001 	addiu	v1,a0,1
8000076c:	314c0007 	andi	t4,t2,0x7
80000770:	016f1026 	xor	v0,t3,t7
80000774:	106500a7 	beq	v1,a1,80000a14 <crc32buf+0x2e4>
80000778:	00000000 	nop
8000077c:	1180005b 	beqz	t4,800008ec <crc32buf+0x1bc>
80000780:	00000000 	nop
80000784:	24180001 	li	t8,1
80000788:	1198004c 	beq	t4,t8,800008bc <crc32buf+0x18c>
8000078c:	00000000 	nop
80000790:	24190002 	li	t9,2
80000794:	1199003f 	beq	t4,t9,80000894 <crc32buf+0x164>
80000798:	00000000 	nop
8000079c:	24060003 	li	a2,3
800007a0:	11860032 	beq	t4,a2,8000086c <crc32buf+0x13c>
800007a4:	00000000 	nop
800007a8:	24070004 	li	a3,4
800007ac:	11870025 	beq	t4,a3,80000844 <crc32buf+0x114>
800007b0:	00000000 	nop
800007b4:	24080005 	li	t0,5
800007b8:	11880018 	beq	t4,t0,8000081c <crc32buf+0xec>
800007bc:	00000000 	nop
800007c0:	24090006 	li	t1,6
800007c4:	1189000b 	beq	t4,t1,800007f4 <crc32buf+0xc4>
800007c8:	00000000 	nop
800007cc:	906a0000 	lbu	t2,0(v1)
800007d0:	24830002 	addiu	v1,a0,2
800007d4:	00025a02 	srl	t3,v0,0x8
800007d8:	01422026 	xor	a0,t2,v0
800007dc:	308200ff 	andi	v0,a0,0xff
800007e0:	00026080 	sll	t4,v0,0x2
800007e4:	01cc6821 	addu	t5,t6,t4
800007e8:	8daf0000 	lw	t7,0(t5)
800007ec:	00000000 	nop
800007f0:	01eb1026 	xor	v0,t7,t3
800007f4:	90780000 	lbu	t8,0(v1)
800007f8:	0002ca02 	srl	t9,v0,0x8
800007fc:	24630001 	addiu	v1,v1,1
80000800:	03023026 	xor	a2,t8,v0
80000804:	30c700ff 	andi	a3,a2,0xff
80000808:	00074080 	sll	t0,a3,0x2
8000080c:	01c84821 	addu	t1,t6,t0
80000810:	8d2a0000 	lw	t2,0(t1)
80000814:	00000000 	nop
80000818:	01591026 	xor	v0,t2,t9
8000081c:	906b0000 	lbu	t3,0(v1)
80000820:	00022202 	srl	a0,v0,0x8
80000824:	24630001 	addiu	v1,v1,1
80000828:	01621026 	xor	v0,t3,v0
8000082c:	304c00ff 	andi	t4,v0,0xff
80000830:	000c6880 	sll	t5,t4,0x2
80000834:	01cd7821 	addu	t7,t6,t5
80000838:	8df80000 	lw	t8,0(t7)
8000083c:	00000000 	nop
80000840:	03041026 	xor	v0,t8,a0
80000844:	90790000 	lbu	t9,0(v1)
80000848:	00023202 	srl	a2,v0,0x8
8000084c:	24630001 	addiu	v1,v1,1
80000850:	03223826 	xor	a3,t9,v0
80000854:	30e800ff 	andi	t0,a3,0xff
80000858:	00084880 	sll	t1,t0,0x2
8000085c:	01c95021 	addu	t2,t6,t1
80000860:	8d4b0000 	lw	t3,0(t2)
80000864:	00000000 	nop
80000868:	01661026 	xor	v0,t3,a2
8000086c:	90640000 	lbu	a0,0(v1)
80000870:	00026202 	srl	t4,v0,0x8
80000874:	24630001 	addiu	v1,v1,1
80000878:	00821026 	xor	v0,a0,v0
8000087c:	304d00ff 	andi	t5,v0,0xff
80000880:	000d7880 	sll	t7,t5,0x2
80000884:	01cfc021 	addu	t8,t6,t7
80000888:	8f190000 	lw	t9,0(t8)
8000088c:	00000000 	nop
80000890:	032c1026 	xor	v0,t9,t4
80000894:	90660000 	lbu	a2,0(v1)
80000898:	00023a02 	srl	a3,v0,0x8
8000089c:	24630001 	addiu	v1,v1,1
800008a0:	00c24026 	xor	t0,a2,v0
800008a4:	310900ff 	andi	t1,t0,0xff
800008a8:	00095080 	sll	t2,t1,0x2
800008ac:	01ca5821 	addu	t3,t6,t2
800008b0:	8d640000 	lw	a0,0(t3)
800008b4:	00000000 	nop
800008b8:	00871026 	xor	v0,a0,a3
800008bc:	906c0000 	lbu	t4,0(v1)
800008c0:	00026a02 	srl	t5,v0,0x8
800008c4:	24630001 	addiu	v1,v1,1
800008c8:	01821026 	xor	v0,t4,v0
800008cc:	304f00ff 	andi	t7,v0,0xff
800008d0:	000fc080 	sll	t8,t7,0x2
800008d4:	01d8c821 	addu	t9,t6,t8
800008d8:	8f260000 	lw	a2,0(t9)
800008dc:	00000000 	nop
800008e0:	00cd1026 	xor	v0,a2,t5
800008e4:	1065004b 	beq	v1,a1,80000a14 <crc32buf+0x2e4>
800008e8:	00000000 	nop
800008ec:	90670000 	lbu	a3,0(v1)
800008f0:	00026a02 	srl	t5,v0,0x8
800008f4:	906b0001 	lbu	t3,1(v1)
800008f8:	24630008 	addiu	v1,v1,8
800008fc:	00e24026 	xor	t0,a3,v0
80000900:	310400ff 	andi	a0,t0,0xff
80000904:	00046080 	sll	t4,a0,0x2
80000908:	906afffa 	lbu	t2,-6(v1)
8000090c:	9069fffb 	lbu	t1,-5(v1)
80000910:	01cc3021 	addu	a2,t6,t4
80000914:	906ffffc 	lbu	t7,-4(v1)
80000918:	9078fffd 	lbu	t8,-3(v1)
8000091c:	9079fffe 	lbu	t9,-2(v1)
80000920:	8cc20000 	lw	v0,0(a2)
80000924:	9064ffff 	lbu	a0,-1(v1)
80000928:	004d3826 	xor	a3,v0,t5
8000092c:	01676826 	xor	t5,t3,a3
80000930:	31ab00ff 	andi	t3,t5,0xff
80000934:	000b4080 	sll	t0,t3,0x2
80000938:	00076202 	srl	t4,a3,0x8
8000093c:	01c83021 	addu	a2,t6,t0
80000940:	8cc20000 	lw	v0,0(a2)
80000944:	00000000 	nop
80000948:	004c3826 	xor	a3,v0,t4
8000094c:	01475026 	xor	t2,t2,a3
80000950:	314d00ff 	andi	t5,t2,0xff
80000954:	000d4080 	sll	t0,t5,0x2
80000958:	00075a02 	srl	t3,a3,0x8
8000095c:	01c86021 	addu	t4,t6,t0
80000960:	8d860000 	lw	a2,0(t4)
80000964:	00000000 	nop
80000968:	00cb1026 	xor	v0,a2,t3
8000096c:	01224826 	xor	t1,t1,v0
80000970:	312700ff 	andi	a3,t1,0xff
80000974:	00076880 	sll	t5,a3,0x2
80000978:	00025202 	srl	t2,v0,0x8
8000097c:	01cd4021 	addu	t0,t6,t5
80000980:	8d0b0000 	lw	t3,0(t0)
80000984:	00000000 	nop
80000988:	016a6026 	xor	t4,t3,t2
8000098c:	01ec7826 	xor	t7,t7,t4
80000990:	31e600ff 	andi	a2,t7,0xff
80000994:	00061080 	sll	v0,a2,0x2
80000998:	000c4a02 	srl	t1,t4,0x8
8000099c:	01c23821 	addu	a3,t6,v0
800009a0:	8ced0000 	lw	t5,0(a3)
800009a4:	00000000 	nop
800009a8:	01a95026 	xor	t2,t5,t1
800009ac:	030ac026 	xor	t8,t8,t2
800009b0:	330800ff 	andi	t0,t8,0xff
800009b4:	00085880 	sll	t3,t0,0x2
800009b8:	000a6202 	srl	t4,t2,0x8
800009bc:	01cb7821 	addu	t7,t6,t3
800009c0:	8de60000 	lw	a2,0(t7)
800009c4:	00000000 	nop
800009c8:	00cc1026 	xor	v0,a2,t4
800009cc:	0322c826 	xor	t9,t9,v0
800009d0:	332900ff 	andi	t1,t9,0xff
800009d4:	00093880 	sll	a3,t1,0x2
800009d8:	00026a02 	srl	t5,v0,0x8
800009dc:	01c75021 	addu	t2,t6,a3
800009e0:	8d580000 	lw	t8,0(t2)
800009e4:	00000000 	nop
800009e8:	030d4026 	xor	t0,t8,t5
800009ec:	00882026 	xor	a0,a0,t0
800009f0:	308b00ff 	andi	t3,a0,0xff
800009f4:	000b6080 	sll	t4,t3,0x2
800009f8:	00087a02 	srl	t7,t0,0x8
800009fc:	01cc3021 	addu	a2,t6,t4
80000a00:	8cc20000 	lw	v0,0(a2)
80000a04:	00000000 	nop
80000a08:	004f1026 	xor	v0,v0,t7
80000a0c:	1465ffb7 	bne	v1,a1,800008ec <crc32buf+0x1bc>
80000a10:	00000000 	nop
80000a14:	00021027 	nor	v0,zero,v0
80000a18:	03e00008 	jr	ra
80000a1c:	00000000 	nop
80000a20:	00001025 	move	v0,zero
80000a24:	03e00008 	jr	ra
80000a28:	00000000 	nop
80000a2c:	00000000 	nop

80000a30 <crc32>:
crc32():
80000a30:	8f848010 	lw	a0,-32752(gp)
80000a34:	27bdffc8 	addiu	sp,sp,-56
80000a38:	afbf0034 	sw	ra,52(sp)
80000a3c:	afb70030 	sw	s7,48(sp)
80000a40:	0000b825 	move	s7,zero
80000a44:	afb50028 	sw	s5,40(sp)
80000a48:	2415ffff 	li	s5,-1
80000a4c:	afb40024 	sw	s4,36(sp)
80000a50:	3c148000 	lui	s4,0x8000
80000a54:	afb30020 	sw	s3,32(sp)
80000a58:	3c138000 	lui	s3,0x8000
80000a5c:	afb2001c 	sw	s2,28(sp)
80000a60:	26941c00 	addiu	s4,s4,7168
80000a64:	afb10018 	sw	s1,24(sp)
80000a68:	26731be0 	addiu	s3,s3,7136
80000a6c:	afb00014 	sw	s0,20(sp)
80000a70:	2410ffff 	li	s0,-1
80000a74:	afb6002c 	sw	s6,44(sp)
80000a78:	0c000524 	jal	80001490 <fopen>
80000a7c:	00000000 	nop
80000a80:	3c048000 	lui	a0,0x8000
80000a84:	00409025 	move	s2,v0
80000a88:	24841bcc 	addiu	a0,a0,7116
80000a8c:	0c0004fd 	jal	800013f4 <puts>
80000a90:	00000000 	nop
80000a94:	8e440000 	lw	a0,0(s2)
80000a98:	0c0005e0 	jal	80001780 <strlen>
80000a9c:	00000000 	nop
80000aa0:	00402825 	move	a1,v0
80000aa4:	3c028000 	lui	v0,0x8000
80000aa8:	24441bd4 	addiu	a0,v0,7124
80000aac:	0c0003ae 	jal	80000eb8 <printf>
80000ab0:	00000000 	nop
80000ab4:	02402025 	move	a0,s2
80000ab8:	0c0005c5 	jal	80001714 <getc>
80000abc:	00000000 	nop
80000ac0:	02602025 	move	a0,s3
80000ac4:	00408825 	move	s1,v0
80000ac8:	1055004e 	beq	v0,s5,80000c04 <crc32+0x1d4>
80000acc:	00000000 	nop
80000ad0:	26f70001 	addiu	s7,s7,1
80000ad4:	02e02825 	move	a1,s7
80000ad8:	0c0003ae 	jal	80000eb8 <printf>
80000adc:	00000000 	nop
80000ae0:	02111826 	xor	v1,s0,s1
80000ae4:	306500ff 	andi	a1,v1,0xff
80000ae8:	00053080 	sll	a2,a1,0x2
80000aec:	00108202 	srl	s0,s0,0x8
80000af0:	00d43821 	addu	a3,a2,s4
80000af4:	02402025 	move	a0,s2
80000af8:	02e0b025 	move	s6,s7
80000afc:	8ce80000 	lw	t0,0(a3)
80000b00:	00000000 	nop
80000b04:	01108026 	xor	s0,t0,s0
80000b08:	0c0005c5 	jal	80001714 <getc>
80000b0c:	00000000 	nop
80000b10:	00408825 	move	s1,v0
80000b14:	02602025 	move	a0,s3
80000b18:	1055003a 	beq	v0,s5,80000c04 <crc32+0x1d4>
80000b1c:	00000000 	nop
80000b20:	26f70001 	addiu	s7,s7,1
80000b24:	02e02825 	move	a1,s7
80000b28:	0c0003ae 	jal	80000eb8 <printf>
80000b2c:	00000000 	nop
80000b30:	02114826 	xor	t1,s0,s1
80000b34:	312a00ff 	andi	t2,t1,0xff
80000b38:	000a5880 	sll	t3,t2,0x2
80000b3c:	00106202 	srl	t4,s0,0x8
80000b40:	01746821 	addu	t5,t3,s4
80000b44:	02402025 	move	a0,s2
80000b48:	8dae0000 	lw	t6,0(t5)
80000b4c:	00000000 	nop
80000b50:	01cc8026 	xor	s0,t6,t4
80000b54:	0c0005c5 	jal	80001714 <getc>
80000b58:	00000000 	nop
80000b5c:	00408825 	move	s1,v0
80000b60:	02602025 	move	a0,s3
80000b64:	10550027 	beq	v0,s5,80000c04 <crc32+0x1d4>
80000b68:	00000000 	nop
80000b6c:	26d70002 	addiu	s7,s6,2
80000b70:	02e02825 	move	a1,s7
80000b74:	0c0003ae 	jal	80000eb8 <printf>
80000b78:	00000000 	nop
80000b7c:	02117826 	xor	t7,s0,s1
80000b80:	31f800ff 	andi	t8,t7,0xff
80000b84:	0018c880 	sll	t9,t8,0x2
80000b88:	00102a02 	srl	a1,s0,0x8
80000b8c:	03341021 	addu	v0,t9,s4
80000b90:	02402025 	move	a0,s2
80000b94:	8c430000 	lw	v1,0(v0)
80000b98:	00000000 	nop
80000b9c:	00658026 	xor	s0,v1,a1
80000ba0:	0c0005c5 	jal	80001714 <getc>
80000ba4:	00000000 	nop
80000ba8:	00408825 	move	s1,v0
80000bac:	02602025 	move	a0,s3
80000bb0:	10550014 	beq	v0,s5,80000c04 <crc32+0x1d4>
80000bb4:	00000000 	nop
80000bb8:	26d70003 	addiu	s7,s6,3
80000bbc:	0211b026 	xor	s6,s0,s1
80000bc0:	02e02825 	move	a1,s7
80000bc4:	0c0003ae 	jal	80000eb8 <printf>
80000bc8:	00000000 	nop
80000bcc:	32c600ff 	andi	a2,s6,0xff
80000bd0:	00063880 	sll	a3,a2,0x2
80000bd4:	00108202 	srl	s0,s0,0x8
80000bd8:	00f44021 	addu	t0,a3,s4
80000bdc:	02402025 	move	a0,s2
80000be0:	8d090000 	lw	t1,0(t0)
80000be4:	00000000 	nop
80000be8:	01308026 	xor	s0,t1,s0
80000bec:	0c0005c5 	jal	80001714 <getc>
80000bf0:	00000000 	nop
80000bf4:	00408825 	move	s1,v0
80000bf8:	02602025 	move	a0,s3
80000bfc:	1455ffb4 	bne	v0,s5,80000ad0 <crc32+0xa0>
80000c00:	00000000 	nop
80000c04:	3c1f8000 	lui	ra,0x8000
80000c08:	2405ffff 	li	a1,-1
80000c0c:	27e41be8 	addiu	a0,ra,7144
80000c10:	0010a827 	nor	s5,zero,s0
80000c14:	0c0003ae 	jal	80000eb8 <printf>
80000c18:	00000000 	nop
80000c1c:	3c048000 	lui	a0,0x8000
80000c20:	24841bec 	addiu	a0,a0,7148
80000c24:	0c0004fd 	jal	800013f4 <puts>
80000c28:	00000000 	nop
80000c2c:	02402025 	move	a0,s2
80000c30:	0c00057f 	jal	800015fc <fclose>
80000c34:	00000000 	nop
80000c38:	02e03025 	move	a2,s7
80000c3c:	3c178000 	lui	s7,0x8000
80000c40:	3c1266bd 	lui	s2,0x66bd
80000c44:	26e41bf0 	addiu	a0,s7,7152
80000c48:	26537c8b 	addiu	s3,s2,31883
80000c4c:	02a02825 	move	a1,s5
80000c50:	0c0003ae 	jal	80000eb8 <printf>
80000c54:	00000000 	nop
80000c58:	02b3a021 	addu	s4,s5,s3
80000c5c:	8fbf0034 	lw	ra,52(sp)
80000c60:	0014102b 	sltu	v0,zero,s4
80000c64:	8fb70030 	lw	s7,48(sp)
80000c68:	8fb6002c 	lw	s6,44(sp)
80000c6c:	8fb50028 	lw	s5,40(sp)
80000c70:	8fb40024 	lw	s4,36(sp)
80000c74:	8fb30020 	lw	s3,32(sp)
80000c78:	8fb2001c 	lw	s2,28(sp)
80000c7c:	8fb10018 	lw	s1,24(sp)
80000c80:	8fb00014 	lw	s0,20(sp)
80000c84:	27bd0038 	addiu	sp,sp,56
80000c88:	03e00008 	jr	ra
80000c8c:	00000000 	nop

80000c90 <__divu10>:
__divu10():
80000c90:	00041082 	srl	v0,a0,0x2
80000c94:	00041842 	srl	v1,a0,0x1
80000c98:	24840006 	addiu	a0,a0,6
80000c9c:	00621821 	addu	v1,v1,v0
80000ca0:	00031102 	srl	v0,v1,0x4
80000ca4:	00621821 	addu	v1,v1,v0
80000ca8:	00031202 	srl	v0,v1,0x8
80000cac:	00621821 	addu	v1,v1,v0
80000cb0:	00031402 	srl	v0,v1,0x10
80000cb4:	00621821 	addu	v1,v1,v0
80000cb8:	000318c2 	srl	v1,v1,0x3
80000cbc:	00031040 	sll	v0,v1,0x1
80000cc0:	000328c0 	sll	a1,v1,0x3
80000cc4:	00451021 	addu	v0,v0,a1
80000cc8:	00821023 	subu	v0,a0,v0
80000ccc:	00021102 	srl	v0,v0,0x4
80000cd0:	00431021 	addu	v0,v0,v1
80000cd4:	03e00008 	jr	ra
80000cd8:	00000000 	nop

80000cdc <printnum2>:
printnum2():
80000cdc:	27bdff90 	addiu	sp,sp,-112
80000ce0:	afb0005c 	sw	s0,92(sp)
80000ce4:	00808025 	move	s0,a0
80000ce8:	afbf006c 	sw	ra,108(sp)
80000cec:	afb30068 	sw	s3,104(sp)
80000cf0:	afb20064 	sw	s2,100(sp)
80000cf4:	afb10060 	sw	s1,96(sp)
80000cf8:	10e00003 	beqz	a3,80000d08 <printnum2+0x2c>
80000cfc:	00000000 	nop
80000d00:	04800060 	bltz	a0,80000e84 <printnum2+0x1a8>
80000d04:	00000000 	nop
80000d08:	12000068 	beqz	s0,80000eac <printnum2+0x1d0>
80000d0c:	00000000 	nop
80000d10:	27a40010 	addiu	a0,sp,16
80000d14:	00008825 	move	s1,zero
80000d18:	24080002 	li	t0,2
80000d1c:	24090008 	li	t1,8
80000d20:	240a0010 	li	t2,16
80000d24:	10c80040 	beq	a2,t0,80000e28 <printnum2+0x14c>
80000d28:	00000000 	nop
80000d2c:	00101842 	srl	v1,s0,0x1
80000d30:	10c90042 	beq	a2,t1,80000e3c <printnum2+0x160>
80000d34:	00000000 	nop
80000d38:	00101082 	srl	v0,s0,0x2
80000d3c:	10ca0044 	beq	a2,t2,80000e50 <printnum2+0x174>
80000d40:	00000000 	nop
80000d44:	00621821 	addu	v1,v1,v0
80000d48:	26070006 	addiu	a3,s0,6
80000d4c:	00031102 	srl	v0,v1,0x4
80000d50:	00621821 	addu	v1,v1,v0
80000d54:	00031202 	srl	v0,v1,0x8
80000d58:	00621821 	addu	v1,v1,v0
80000d5c:	00031402 	srl	v0,v1,0x10
80000d60:	00621821 	addu	v1,v1,v0
80000d64:	000318c2 	srl	v1,v1,0x3
80000d68:	00031040 	sll	v0,v1,0x1
80000d6c:	000358c0 	sll	t3,v1,0x3
80000d70:	004b1021 	addu	v0,v0,t3
80000d74:	00e21023 	subu	v0,a3,v0
80000d78:	00021102 	srl	v0,v0,0x4
80000d7c:	00621021 	addu	v0,v1,v0
80000d80:	00021840 	sll	v1,v0,0x1
80000d84:	000238c0 	sll	a3,v0,0x3
80000d88:	00671821 	addu	v1,v1,a3
80000d8c:	02031823 	subu	v1,s0,v1
80000d90:	00408025 	move	s0,v0
80000d94:	a0830000 	sb	v1,0(a0)
80000d98:	26310001 	addiu	s1,s1,1
80000d9c:	24840001 	addiu	a0,a0,1
80000da0:	1600ffe0 	bnez	s0,80000d24 <printnum2+0x48>
80000da4:	00000000 	nop
80000da8:	00b1102a 	slt	v0,a1,s1
80000dac:	10400002 	beqz	v0,80000db8 <printnum2+0xdc>
80000db0:	00000000 	nop
80000db4:	02202825 	move	a1,s1
80000db8:	10a0002a 	beqz	a1,80000e64 <printnum2+0x188>
80000dbc:	00000000 	nop
80000dc0:	27a20010 	addiu	v0,sp,16
80000dc4:	24b0ffff 	addiu	s0,a1,-1
80000dc8:	00459021 	addu	s2,v0,a1
80000dcc:	10000008 	b	80000df0 <printnum2+0x114>
80000dd0:	00000000 	nop
80000dd4:	24040030 	li	a0,48
80000dd8:	2610ffff 	addiu	s0,s0,-1
80000ddc:	0c00050c 	jal	80001430 <putchar>
80000de0:	00000000 	nop
80000de4:	2652ffff 	addiu	s2,s2,-1
80000de8:	1260001e 	beqz	s3,80000e64 <printnum2+0x188>
80000dec:	00000000 	nop
80000df0:	26020001 	addiu	v0,s0,1
80000df4:	02009825 	move	s3,s0
80000df8:	0222102a 	slt	v0,s1,v0
80000dfc:	1440fff5 	bnez	v0,80000dd4 <printnum2+0xf8>
80000e00:	00000000 	nop
80000e04:	8242ffff 	lb	v0,-1(s2)
80000e08:	00000000 	nop
80000e0c:	2843000a 	slti	v1,v0,10
80000e10:	24440057 	addiu	a0,v0,87
80000e14:	1060fff0 	beqz	v1,80000dd8 <printnum2+0xfc>
80000e18:	00000000 	nop
80000e1c:	24440030 	addiu	a0,v0,48
80000e20:	1000ffed 	b	80000dd8 <printnum2+0xfc>
80000e24:	00000000 	nop
80000e28:	32020001 	andi	v0,s0,0x1
80000e2c:	00108042 	srl	s0,s0,0x1
80000e30:	a0820000 	sb	v0,0(a0)
80000e34:	1000ffd8 	b	80000d98 <printnum2+0xbc>
80000e38:	00000000 	nop
80000e3c:	32020007 	andi	v0,s0,0x7
80000e40:	001080c2 	srl	s0,s0,0x3
80000e44:	a0820000 	sb	v0,0(a0)
80000e48:	1000ffd3 	b	80000d98 <printnum2+0xbc>
80000e4c:	00000000 	nop
80000e50:	3202000f 	andi	v0,s0,0xf
80000e54:	00108102 	srl	s0,s0,0x4
80000e58:	a0820000 	sb	v0,0(a0)
80000e5c:	1000ffce 	b	80000d98 <printnum2+0xbc>
80000e60:	00000000 	nop
80000e64:	8fbf006c 	lw	ra,108(sp)
80000e68:	8fb30068 	lw	s3,104(sp)
80000e6c:	8fb20064 	lw	s2,100(sp)
80000e70:	8fb10060 	lw	s1,96(sp)
80000e74:	8fb0005c 	lw	s0,92(sp)
80000e78:	27bd0070 	addiu	sp,sp,112
80000e7c:	03e00008 	jr	ra
80000e80:	00000000 	nop
80000e84:	2404002d 	li	a0,45
80000e88:	afa60054 	sw	a2,84(sp)
80000e8c:	afa50050 	sw	a1,80(sp)
80000e90:	00108023 	negu	s0,s0
80000e94:	0c00050c 	jal	80001430 <putchar>
80000e98:	00000000 	nop
80000e9c:	8fa50050 	lw	a1,80(sp)
80000ea0:	8fa60054 	lw	a2,84(sp)
80000ea4:	1000ff98 	b	80000d08 <printnum2+0x2c>
80000ea8:	00000000 	nop
80000eac:	00008825 	move	s1,zero
80000eb0:	1000ffbd 	b	80000da8 <printnum2+0xcc>
80000eb4:	00000000 	nop

80000eb8 <printf>:
printf():
80000eb8:	27bdffc8 	addiu	sp,sp,-56
80000ebc:	afbf0034 	sw	ra,52(sp)
80000ec0:	27a2003c 	addiu	v0,sp,60
80000ec4:	afb50030 	sw	s5,48(sp)
80000ec8:	afb4002c 	sw	s4,44(sp)
80000ecc:	afb30028 	sw	s3,40(sp)
80000ed0:	afb20024 	sw	s2,36(sp)
80000ed4:	afb10020 	sw	s1,32(sp)
80000ed8:	afb0001c 	sw	s0,28(sp)
80000edc:	afa5003c 	sw	a1,60(sp)
80000ee0:	afa60040 	sw	a2,64(sp)
80000ee4:	afa70044 	sw	a3,68(sp)
80000ee8:	afa20010 	sw	v0,16(sp)
80000eec:	80910000 	lb	s1,0(a0)
80000ef0:	00000000 	nop
80000ef4:	12200015 	beqz	s1,80000f4c <printf+0x94>
80000ef8:	00000000 	nop
80000efc:	3c158000 	lui	s5,0x8000
80000f00:	00008025 	move	s0,zero
80000f04:	24130025 	li	s3,37
80000f08:	26b52150 	addiu	s5,s5,8528
80000f0c:	0040a025 	move	s4,v0
80000f10:	00809025 	move	s2,a0
80000f14:	12330018 	beq	s1,s3,80000f78 <printf+0xc0>
80000f18:	00000000 	nop
80000f1c:	2402000a 	li	v0,10
80000f20:	12220046 	beq	s1,v0,8000103c <printf+0x184>
80000f24:	00000000 	nop
80000f28:	02202025 	move	a0,s1
80000f2c:	0c00050c 	jal	80001430 <putchar>
80000f30:	00000000 	nop
80000f34:	26100001 	addiu	s0,s0,1
80000f38:	02501021 	addu	v0,s2,s0
80000f3c:	80510000 	lb	s1,0(v0)
80000f40:	00000000 	nop
80000f44:	1620fff3 	bnez	s1,80000f14 <printf+0x5c>
80000f48:	00000000 	nop
80000f4c:	8fbf0034 	lw	ra,52(sp)
80000f50:	00001025 	move	v0,zero
80000f54:	8fb50030 	lw	s5,48(sp)
80000f58:	8fb4002c 	lw	s4,44(sp)
80000f5c:	8fb30028 	lw	s3,40(sp)
80000f60:	8fb20024 	lw	s2,36(sp)
80000f64:	8fb10020 	lw	s1,32(sp)
80000f68:	8fb0001c 	lw	s0,28(sp)
80000f6c:	27bd0038 	addiu	sp,sp,56
80000f70:	03e00008 	jr	ra
80000f74:	00000000 	nop
80000f78:	02501021 	addu	v0,s2,s0
80000f7c:	24050001 	li	a1,1
80000f80:	80430001 	lb	v1,1(v0)
80000f84:	00000000 	nop
80000f88:	2462ffdb 	addiu	v0,v1,-37
80000f8c:	304200ff 	andi	v0,v0,0xff
80000f90:	2c440054 	sltiu	a0,v0,84
80000f94:	10800024 	beqz	a0,80001028 <printf+0x170>
80000f98:	00000000 	nop
80000f9c:	00021080 	sll	v0,v0,0x2
80000fa0:	02a21021 	addu	v0,s5,v0
80000fa4:	8c420000 	lw	v0,0(v0)
80000fa8:	00000000 	nop
80000fac:	00400008 	jr	v0
80000fb0:	00000000 	nop
80000fb4:	26100001 	addiu	s0,s0,1
80000fb8:	02501021 	addu	v0,s2,s0
80000fbc:	80430001 	lb	v1,1(v0)
80000fc0:	00000000 	nop
80000fc4:	2462ffcf 	addiu	v0,v1,-49
80000fc8:	304200ff 	andi	v0,v0,0xff
80000fcc:	2c420009 	sltiu	v0,v0,9
80000fd0:	10400069 	beqz	v0,80001178 <printf+0x2c0>
80000fd4:	00000000 	nop
80000fd8:	02503021 	addu	a2,s2,s0
80000fdc:	00002825 	move	a1,zero
80000fe0:	2467ffd0 	addiu	a3,v1,-48
80000fe4:	80c30002 	lb	v1,2(a2)
80000fe8:	00052040 	sll	a0,a1,0x1
80000fec:	000528c0 	sll	a1,a1,0x3
80000ff0:	2462ffcf 	addiu	v0,v1,-49
80000ff4:	00852821 	addu	a1,a0,a1
80000ff8:	304200ff 	andi	v0,v0,0xff
80000ffc:	2c420009 	sltiu	v0,v0,9
80001000:	00e52821 	addu	a1,a3,a1
80001004:	26100001 	addiu	s0,s0,1
80001008:	24c60001 	addiu	a2,a2,1
8000100c:	1440fff4 	bnez	v0,80000fe0 <printf+0x128>
80001010:	00000000 	nop
80001014:	2462ffdb 	addiu	v0,v1,-37
80001018:	304200ff 	andi	v0,v0,0xff
8000101c:	2c440054 	sltiu	a0,v0,84
80001020:	1480ffde 	bnez	a0,80000f9c <printf+0xe4>
80001024:	00000000 	nop
80001028:	24040025 	li	a0,37
8000102c:	0c00050c 	jal	80001430 <putchar>
80001030:	00000000 	nop
80001034:	1000ffbf 	b	80000f34 <printf+0x7c>
80001038:	00000000 	nop
8000103c:	2404000d 	li	a0,13
80001040:	0c00050c 	jal	80001430 <putchar>
80001044:	00000000 	nop
80001048:	1000ffb7 	b	80000f28 <printf+0x70>
8000104c:	00000000 	nop
80001050:	8e840000 	lw	a0,0(s4)
80001054:	00003825 	move	a3,zero
80001058:	2406000a 	li	a2,10
8000105c:	26940004 	addiu	s4,s4,4
80001060:	0c000337 	jal	80000cdc <printnum2>
80001064:	00000000 	nop
80001068:	26100001 	addiu	s0,s0,1
8000106c:	1000ffb1 	b	80000f34 <printf+0x7c>
80001070:	00000000 	nop
80001074:	8e840000 	lw	a0,0(s4)
80001078:	26100001 	addiu	s0,s0,1
8000107c:	26940004 	addiu	s4,s4,4
80001080:	0c0004d4 	jal	80001350 <putstring>
80001084:	00000000 	nop
80001088:	1000ffaa 	b	80000f34 <printf+0x7c>
8000108c:	00000000 	nop
80001090:	8e840000 	lw	a0,0(s4)
80001094:	00003825 	move	a3,zero
80001098:	24060010 	li	a2,16
8000109c:	26940004 	addiu	s4,s4,4
800010a0:	0c000337 	jal	80000cdc <printnum2>
800010a4:	00000000 	nop
800010a8:	26100001 	addiu	s0,s0,1
800010ac:	1000ffa1 	b	80000f34 <printf+0x7c>
800010b0:	00000000 	nop
800010b4:	8e840000 	lw	a0,0(s4)
800010b8:	00003825 	move	a3,zero
800010bc:	24060008 	li	a2,8
800010c0:	26940004 	addiu	s4,s4,4
800010c4:	0c000337 	jal	80000cdc <printnum2>
800010c8:	00000000 	nop
800010cc:	26100001 	addiu	s0,s0,1
800010d0:	1000ff98 	b	80000f34 <printf+0x7c>
800010d4:	00000000 	nop
800010d8:	8e840000 	lw	a0,0(s4)
800010dc:	00003825 	move	a3,zero
800010e0:	2406000a 	li	a2,10
800010e4:	26940004 	addiu	s4,s4,4
800010e8:	0c000337 	jal	80000cdc <printnum2>
800010ec:	00000000 	nop
800010f0:	26100002 	addiu	s0,s0,2
800010f4:	1000ff8f 	b	80000f34 <printf+0x7c>
800010f8:	00000000 	nop
800010fc:	8e840000 	lw	a0,0(s4)
80001100:	24070001 	li	a3,1
80001104:	2406000a 	li	a2,10
80001108:	26940004 	addiu	s4,s4,4
8000110c:	0c000337 	jal	80000cdc <printnum2>
80001110:	00000000 	nop
80001114:	26100001 	addiu	s0,s0,1
80001118:	1000ff86 	b	80000f34 <printf+0x7c>
8000111c:	00000000 	nop
80001120:	8e840000 	lw	a0,0(s4)
80001124:	26100001 	addiu	s0,s0,1
80001128:	26940004 	addiu	s4,s4,4
8000112c:	0c00050c 	jal	80001430 <putchar>
80001130:	00000000 	nop
80001134:	1000ff7f 	b	80000f34 <printf+0x7c>
80001138:	00000000 	nop
8000113c:	8e840000 	lw	a0,0(s4)
80001140:	00003825 	move	a3,zero
80001144:	24060002 	li	a2,2
80001148:	26940004 	addiu	s4,s4,4
8000114c:	0c000337 	jal	80000cdc <printnum2>
80001150:	00000000 	nop
80001154:	26100001 	addiu	s0,s0,1
80001158:	1000ff76 	b	80000f34 <printf+0x7c>
8000115c:	00000000 	nop
80001160:	24040025 	li	a0,37
80001164:	26100001 	addiu	s0,s0,1
80001168:	0c00050c 	jal	80001430 <putchar>
8000116c:	00000000 	nop
80001170:	1000ff70 	b	80000f34 <printf+0x7c>
80001174:	00000000 	nop
80001178:	00002825 	move	a1,zero
8000117c:	1000ff82 	b	80000f88 <printf+0xd0>
80001180:	00000000 	nop
	...

80001190 <_get_count>:
_get_count():
80001190:	3c02bfd0 	lui	v0,0xbfd0
80001194:	8c420500 	lw	v0,1280(v0)
80001198:	03e00008 	jr	ra
8000119c:	00000000 	nop

800011a0 <get_count>:
get_count():
800011a0:	3c02bfd0 	lui	v0,0xbfd0
800011a4:	8c420500 	lw	v0,1280(v0)
800011a8:	03e00008 	jr	ra
800011ac:	00000000 	nop

800011b0 <clock_gettime>:
clock_gettime():
800011b0:	3c02bfd0 	lui	v0,0xbfd0
800011b4:	27bdffe8 	addiu	sp,sp,-24
800011b8:	00a05825 	move	t3,a1
800011bc:	8c4c0500 	lw	t4,1280(v0)
800011c0:	3c021062 	lui	v0,0x1062
800011c4:	afbf0014 	sw	ra,20(sp)
800011c8:	3c048000 	lui	a0,0x8000
800011cc:	24424dd3 	addiu	v0,v0,19923
800011d0:	aca00000 	sw	zero,0(a1)
800011d4:	00003025 	move	a2,zero
800011d8:	01820019 	multu	t4,v0
800011dc:	000c6040 	sll	t4,t4,0x1
800011e0:	248422a0 	addiu	a0,a0,8864
800011e4:	00003810 	mfhi	a3
	...
800011f0:	01820019 	multu	t4,v0
800011f4:	00002810 	mfhi	a1
800011f8:	00073982 	srl	a3,a3,0x6
800011fc:	00073840 	sll	a3,a3,0x1
80001200:	00e20019 	multu	a3,v0
80001204:	00052982 	srl	a1,a1,0x6
80001208:	000541c0 	sll	t0,a1,0x7
8000120c:	00001810 	mfhi	v1
80001210:	00055080 	sll	t2,a1,0x2
80001214:	010a5023 	subu	t2,t0,t2
80001218:	01452821 	addu	a1,t2,a1
8000121c:	00031982 	srl	v1,v1,0x6
80001220:	000528c0 	sll	a1,a1,0x3
80001224:	00620019 	multu	v1,v0
80001228:	000341c0 	sll	t0,v1,0x7
8000122c:	00034880 	sll	t1,v1,0x2
80001230:	01852823 	subu	a1,t4,a1
80001234:	00001010 	mfhi	v0
80001238:	01094823 	subu	t1,t0,t1
8000123c:	ad650004 	sw	a1,4(t3)
80001240:	01234821 	addu	t1,t1,v1
80001244:	00021182 	srl	v0,v0,0x6
80001248:	00025080 	sll	t2,v0,0x2
8000124c:	000241c0 	sll	t0,v0,0x7
80001250:	010a4023 	subu	t0,t0,t2
80001254:	01021021 	addu	v0,t0,v0
80001258:	000940c0 	sll	t0,t1,0x3
8000125c:	000210c0 	sll	v0,v0,0x3
80001260:	00e83823 	subu	a3,a3,t0
80001264:	00621823 	subu	v1,v1,v0
80001268:	ad670008 	sw	a3,8(t3)
8000126c:	ad63000c 	sw	v1,12(t3)
80001270:	0c0003ae 	jal	80000eb8 <printf>
80001274:	00000000 	nop
80001278:	00001025 	move	v0,zero
8000127c:	8fbf0014 	lw	ra,20(sp)
80001280:	27bd0018 	addiu	sp,sp,24
80001284:	03e00008 	jr	ra
80001288:	00000000 	nop

8000128c <get_clock>:
get_clock():
8000128c:	3c02bfd0 	lui	v0,0xbfd0
80001290:	8c420500 	lw	v0,1280(v0)
80001294:	00000000 	nop
80001298:	00021040 	sll	v0,v0,0x1
8000129c:	03e00008 	jr	ra
800012a0:	00000000 	nop

800012a4 <get_us>:
get_us():
800012a4:	3c02bfd0 	lui	v0,0xbfd0
800012a8:	8c420600 	lw	v0,1536(v0)
800012ac:	03e00008 	jr	ra
800012b0:	00000000 	nop

800012b4 <get_inst>:
get_inst():
800012b4:	3c02bfd0 	lui	v0,0xbfd0
800012b8:	8c420700 	lw	v0,1792(v0)
800012bc:	03e00008 	jr	ra
800012c0:	00000000 	nop

800012c4 <get_ns>:
get_ns():
800012c4:	3c02bfd0 	lui	v0,0xbfd0
800012c8:	8c440600 	lw	a0,1536(v0)
800012cc:	00000000 	nop
800012d0:	00041080 	sll	v0,a0,0x2
800012d4:	000419c0 	sll	v1,a0,0x7
800012d8:	00621023 	subu	v0,v1,v0
800012dc:	00441021 	addu	v0,v0,a0
800012e0:	000210c0 	sll	v0,v0,0x3
800012e4:	03e00008 	jr	ra
800012e8:	00000000 	nop
800012ec:	00000000 	nop

800012f0 <get_epc>:
get_epc():
800012f0:	40027000 	mfc0	v0,c0_epc
800012f4:	03e00008 	jr	ra
800012f8:	00000000 	nop

800012fc <get_cause>:
get_cause():
800012fc:	40026800 	mfc0	v0,c0_cause
80001300:	03e00008 	jr	ra
80001304:	00000000 	nop

80001308 <exception>:
exception():
80001308:	3c048000 	lui	a0,0x8000
8000130c:	27bdffe8 	addiu	sp,sp,-24
80001310:	248422b4 	addiu	a0,a0,8884
80001314:	afbf0014 	sw	ra,20(sp)
80001318:	0c0003ae 	jal	80000eb8 <printf>
8000131c:	00000000 	nop
80001320:	3c048000 	lui	a0,0x8000
80001324:	40057000 	mfc0	a1,c0_epc
80001328:	248422d0 	addiu	a0,a0,8912
8000132c:	0c0003ae 	jal	80000eb8 <printf>
80001330:	00000000 	nop
80001334:	3c048000 	lui	a0,0x8000
80001338:	8fbf0014 	lw	ra,20(sp)
8000133c:	27bd0018 	addiu	sp,sp,24
80001340:	248422e0 	addiu	a0,a0,8928
80001344:	40056800 	mfc0	a1,c0_cause
80001348:	080003ae 	j	80000eb8 <printf>
8000134c:	00000000 	nop

80001350 <putstring>:
putstring():
80001350:	27bdffe0 	addiu	sp,sp,-32
80001354:	afbf001c 	sw	ra,28(sp)
80001358:	afb20018 	sw	s2,24(sp)
8000135c:	afb10014 	sw	s1,20(sp)
80001360:	afb00010 	sw	s0,16(sp)
80001364:	80900000 	lb	s0,0(a0)
80001368:	00000000 	nop
8000136c:	12000019 	beqz	s0,800013d4 <putstring+0x84>
80001370:	00000000 	nop
80001374:	00808825 	move	s1,a0
80001378:	2412000a 	li	s2,10
8000137c:	10000008 	b	800013a0 <putstring+0x50>
80001380:	00000000 	nop
80001384:	02002025 	move	a0,s0
80001388:	0c00050c 	jal	80001430 <putchar>
8000138c:	00000000 	nop
80001390:	82300000 	lb	s0,0(s1)
80001394:	00000000 	nop
80001398:	1200000e 	beqz	s0,800013d4 <putstring+0x84>
8000139c:	00000000 	nop
800013a0:	26310001 	addiu	s1,s1,1
800013a4:	1612fff7 	bne	s0,s2,80001384 <putstring+0x34>
800013a8:	00000000 	nop
800013ac:	2404000d 	li	a0,13
800013b0:	0c00050c 	jal	80001430 <putchar>
800013b4:	00000000 	nop
800013b8:	02002025 	move	a0,s0
800013bc:	0c00050c 	jal	80001430 <putchar>
800013c0:	00000000 	nop
800013c4:	82300000 	lb	s0,0(s1)
800013c8:	00000000 	nop
800013cc:	1600fff4 	bnez	s0,800013a0 <putstring+0x50>
800013d0:	00000000 	nop
800013d4:	8fbf001c 	lw	ra,28(sp)
800013d8:	00001025 	move	v0,zero
800013dc:	8fb20018 	lw	s2,24(sp)
800013e0:	8fb10014 	lw	s1,20(sp)
800013e4:	8fb00010 	lw	s0,16(sp)
800013e8:	27bd0020 	addiu	sp,sp,32
800013ec:	03e00008 	jr	ra
800013f0:	00000000 	nop

800013f4 <puts>:
puts():
800013f4:	27bdffe8 	addiu	sp,sp,-24
800013f8:	afbf0014 	sw	ra,20(sp)
800013fc:	0c0004d4 	jal	80001350 <putstring>
80001400:	00000000 	nop
80001404:	2404000d 	li	a0,13
80001408:	0c00050c 	jal	80001430 <putchar>
8000140c:	00000000 	nop
80001410:	2404000a 	li	a0,10
80001414:	0c00050c 	jal	80001430 <putchar>
80001418:	00000000 	nop
8000141c:	00001025 	move	v0,zero
80001420:	8fbf0014 	lw	ra,20(sp)
80001424:	27bd0018 	addiu	sp,sp,24
80001428:	03e00008 	jr	ra
8000142c:	00000000 	nop

80001430 <putchar>:
putchar():
80001430:	3c03bfd0 	lui	v1,0xbfd0
80001434:	8c6203fc 	lw	v0,1020(v1)
80001438:	00000000 	nop
8000143c:	30420001 	andi	v0,v0,0x1
80001440:	1040fffb 	beqz	v0,80001430 <putchar>
80001444:	00000000 	nop
80001448:	10800002 	beqz	a0,80001454 <putchar+0x24>
8000144c:	00000000 	nop
80001450:	ac6403f8 	sw	a0,1016(v1)
80001454:	00001025 	move	v0,zero
80001458:	03e00008 	jr	ra
8000145c:	00000000 	nop

80001460 <tgt_putchar>:
tgt_putchar():
80001460:	3c03bfd0 	lui	v1,0xbfd0
80001464:	8c6203fc 	lw	v0,1020(v1)
80001468:	00000000 	nop
8000146c:	30420001 	andi	v0,v0,0x1
80001470:	1040fffb 	beqz	v0,80001460 <tgt_putchar>
80001474:	00000000 	nop
80001478:	10800002 	beqz	a0,80001484 <tgt_putchar+0x24>
8000147c:	00000000 	nop
80001480:	ac6403f8 	sw	a0,1016(v1)
80001484:	03e00008 	jr	ra
80001488:	00000000 	nop
8000148c:	00000000 	nop

80001490 <fopen>:
fopen():
80001490:	3c028000 	lui	v0,0x8000
80001494:	00001825 	move	v1,zero
80001498:	24423010 	addiu	v0,v0,12304
8000149c:	2407000a 	li	a3,10
800014a0:	00402825 	move	a1,v0
800014a4:	8ca60000 	lw	a2,0(a1)
800014a8:	24a50008 	addiu	a1,a1,8
800014ac:	10c00004 	beqz	a2,800014c0 <fopen+0x30>
800014b0:	00000000 	nop
800014b4:	24630001 	addiu	v1,v1,1
800014b8:	1467fffa 	bne	v1,a3,800014a4 <fopen+0x14>
800014bc:	00000000 	nop
800014c0:	000318c0 	sll	v1,v1,0x3
800014c4:	00431821 	addu	v1,v0,v1
800014c8:	ac640000 	sw	a0,0(v1)
800014cc:	00601025 	move	v0,v1
800014d0:	ac600004 	sw	zero,4(v1)
800014d4:	03e00008 	jr	ra
800014d8:	00000000 	nop

800014dc <fread>:
fread():
800014dc:	27bdffd8 	addiu	sp,sp,-40
800014e0:	afb3001c 	sw	s3,28(sp)
800014e4:	afb10014 	sw	s1,20(sp)
800014e8:	00e08825 	move	s1,a3
800014ec:	afb00010 	sw	s0,16(sp)
800014f0:	00808025 	move	s0,a0
800014f4:	afb40020 	sw	s4,32(sp)
800014f8:	00c0a025 	move	s4,a2
800014fc:	afb20018 	sw	s2,24(sp)
80001500:	00a09025 	move	s2,a1
80001504:	afbf0024 	sw	ra,36(sp)
80001508:	8cf30000 	lw	s3,0(a3)
8000150c:	00000000 	nop
80001510:	02602025 	move	a0,s3
80001514:	0c0005e0 	jal	80001780 <strlen>
80001518:	00000000 	nop
8000151c:	8e230004 	lw	v1,4(s1)
80001520:	00000000 	nop
80001524:	1043002a 	beq	v0,v1,800015d0 <fread+0xf4>
80001528:	00000000 	nop
8000152c:	02540018 	mult	s2,s4
80001530:	02002025 	move	a0,s0
80001534:	00004025 	move	t0,zero
80001538:	00002812 	mflo	a1
8000153c:	1000000c 	b	80001570 <fread+0x94>
80001540:	00000000 	nop
80001544:	02631821 	addu	v1,s3,v1
80001548:	ae270004 	sw	a3,4(s1)
8000154c:	24840001 	addiu	a0,a0,1
80001550:	25080001 	addiu	t0,t0,1
80001554:	80630000 	lb	v1,0(v1)
80001558:	00000000 	nop
8000155c:	a083ffff 	sb	v1,-1(a0)
80001560:	8e230004 	lw	v1,4(s1)
80001564:	00000000 	nop
80001568:	1043000e 	beq	v0,v1,800015a4 <fread+0xc8>
8000156c:	00000000 	nop
80001570:	24670001 	addiu	a3,v1,1
80001574:	1505fff3 	bne	t0,a1,80001544 <fread+0x68>
80001578:	00000000 	nop
8000157c:	8fbf0024 	lw	ra,36(sp)
80001580:	00a01025 	move	v0,a1
80001584:	8fb40020 	lw	s4,32(sp)
80001588:	8fb3001c 	lw	s3,28(sp)
8000158c:	8fb20018 	lw	s2,24(sp)
80001590:	8fb10014 	lw	s1,20(sp)
80001594:	8fb00010 	lw	s0,16(sp)
80001598:	27bd0028 	addiu	sp,sp,40
8000159c:	03e00008 	jr	ra
800015a0:	00000000 	nop
800015a4:	8fbf0024 	lw	ra,36(sp)
800015a8:	01002825 	move	a1,t0
800015ac:	8fb40020 	lw	s4,32(sp)
800015b0:	00a01025 	move	v0,a1
800015b4:	8fb3001c 	lw	s3,28(sp)
800015b8:	8fb20018 	lw	s2,24(sp)
800015bc:	8fb10014 	lw	s1,20(sp)
800015c0:	8fb00010 	lw	s0,16(sp)
800015c4:	27bd0028 	addiu	sp,sp,40
800015c8:	03e00008 	jr	ra
800015cc:	00000000 	nop
800015d0:	8fbf0024 	lw	ra,36(sp)
800015d4:	00002825 	move	a1,zero
800015d8:	8fb40020 	lw	s4,32(sp)
800015dc:	8fb3001c 	lw	s3,28(sp)
800015e0:	00a01025 	move	v0,a1
800015e4:	8fb20018 	lw	s2,24(sp)
800015e8:	8fb10014 	lw	s1,20(sp)
800015ec:	8fb00010 	lw	s0,16(sp)
800015f0:	27bd0028 	addiu	sp,sp,40
800015f4:	03e00008 	jr	ra
800015f8:	00000000 	nop

800015fc <fclose>:
fclose():
800015fc:	ac800000 	sw	zero,0(a0)
80001600:	ac800004 	sw	zero,4(a0)
80001604:	03e00008 	jr	ra
80001608:	00000000 	nop

8000160c <fgets>:
fgets():
8000160c:	27bdffe0 	addiu	sp,sp,-32
80001610:	afb10014 	sw	s1,20(sp)
80001614:	afb00010 	sw	s0,16(sp)
80001618:	00c08025 	move	s0,a2
8000161c:	afb20018 	sw	s2,24(sp)
80001620:	00809025 	move	s2,a0
80001624:	afbf001c 	sw	ra,28(sp)
80001628:	8cd10000 	lw	s1,0(a2)
8000162c:	00000000 	nop
80001630:	02202025 	move	a0,s1
80001634:	0c0005e0 	jal	80001780 <strlen>
80001638:	00000000 	nop
8000163c:	8e030004 	lw	v1,4(s0)
80001640:	00000000 	nop
80001644:	1043001c 	beq	v0,v1,800016b8 <fgets+0xac>
80001648:	00000000 	nop
8000164c:	02232821 	addu	a1,s1,v1
80001650:	2404000a 	li	a0,10
80001654:	80a60000 	lb	a2,0(a1)
80001658:	00000000 	nop
8000165c:	10c4001e 	beq	a2,a0,800016d8 <fgets+0xcc>
80001660:	00000000 	nop
80001664:	00003025 	move	a2,zero
80001668:	2408000a 	li	t0,10
8000166c:	02402025 	move	a0,s2
80001670:	10000005 	b	80001688 <fgets+0x7c>
80001674:	00000000 	nop
80001678:	80a70000 	lb	a3,0(a1)
8000167c:	00000000 	nop
80001680:	10e80016 	beq	a3,t0,800016dc <fgets+0xd0>
80001684:	00000000 	nop
80001688:	24630001 	addiu	v1,v1,1
8000168c:	24840001 	addiu	a0,a0,1
80001690:	24c60001 	addiu	a2,a2,1
80001694:	ae030004 	sw	v1,4(s0)
80001698:	80a30000 	lb	v1,0(a1)
8000169c:	00000000 	nop
800016a0:	a083ffff 	sb	v1,-1(a0)
800016a4:	8e030004 	lw	v1,4(s0)
800016a8:	00000000 	nop
800016ac:	02232821 	addu	a1,s1,v1
800016b0:	1443fff1 	bne	v0,v1,80001678 <fgets+0x6c>
800016b4:	00000000 	nop
800016b8:	8fbf001c 	lw	ra,28(sp)
800016bc:	00001025 	move	v0,zero
800016c0:	8fb20018 	lw	s2,24(sp)
800016c4:	8fb10014 	lw	s1,20(sp)
800016c8:	8fb00010 	lw	s0,16(sp)
800016cc:	27bd0020 	addiu	sp,sp,32
800016d0:	03e00008 	jr	ra
800016d4:	00000000 	nop
800016d8:	00003025 	move	a2,zero
800016dc:	24630001 	addiu	v1,v1,1
800016e0:	02463021 	addu	a2,s2,a2
800016e4:	ae030004 	sw	v1,4(s0)
800016e8:	80a20000 	lb	v0,0(a1)
800016ec:	00000000 	nop
800016f0:	a0c20000 	sb	v0,0(a2)
800016f4:	00001025 	move	v0,zero
800016f8:	8fbf001c 	lw	ra,28(sp)
800016fc:	8fb20018 	lw	s2,24(sp)
80001700:	8fb10014 	lw	s1,20(sp)
80001704:	8fb00010 	lw	s0,16(sp)
80001708:	27bd0020 	addiu	sp,sp,32
8000170c:	03e00008 	jr	ra
80001710:	00000000 	nop

80001714 <getc>:
getc():
80001714:	27bdffe0 	addiu	sp,sp,-32
80001718:	afb00014 	sw	s0,20(sp)
8000171c:	afb10018 	sw	s1,24(sp)
80001720:	00808825 	move	s1,a0
80001724:	afbf001c 	sw	ra,28(sp)
80001728:	8c900000 	lw	s0,0(a0)
8000172c:	00000000 	nop
80001730:	02002025 	move	a0,s0
80001734:	0c0005e0 	jal	80001780 <strlen>
80001738:	00000000 	nop
8000173c:	8e230004 	lw	v1,4(s1)
80001740:	00000000 	nop
80001744:	1043000b 	beq	v0,v1,80001774 <getc+0x60>
80001748:	00000000 	nop
8000174c:	24620001 	addiu	v0,v1,1
80001750:	02038021 	addu	s0,s0,v1
80001754:	ae220004 	sw	v0,4(s1)
80001758:	92020000 	lbu	v0,0(s0)
8000175c:	8fbf001c 	lw	ra,28(sp)
80001760:	8fb10018 	lw	s1,24(sp)
80001764:	8fb00014 	lw	s0,20(sp)
80001768:	27bd0020 	addiu	sp,sp,32
8000176c:	03e00008 	jr	ra
80001770:	00000000 	nop
80001774:	2402ffff 	li	v0,-1
80001778:	1000fff8 	b	8000175c <getc+0x48>
8000177c:	00000000 	nop

80001780 <strlen>:
strlen():
80001780:	80820000 	lb	v0,0(a0)
80001784:	24830001 	addiu	v1,a0,1
80001788:	10400009 	beqz	v0,800017b0 <strlen+0x30>
8000178c:	00000000 	nop
80001790:	00641023 	subu	v0,v1,a0
80001794:	24630001 	addiu	v1,v1,1
80001798:	8065ffff 	lb	a1,-1(v1)
8000179c:	00000000 	nop
800017a0:	14a0fffb 	bnez	a1,80001790 <strlen+0x10>
800017a4:	00000000 	nop
800017a8:	03e00008 	jr	ra
800017ac:	00000000 	nop
800017b0:	00001025 	move	v0,zero
800017b4:	03e00008 	jr	ra
800017b8:	00000000 	nop

800017bc <strnlen>:
strnlen():
800017bc:	10a00014 	beqz	a1,80001810 <strnlen+0x54>
800017c0:	00000000 	nop
800017c4:	80820000 	lb	v0,0(a0)
800017c8:	24830001 	addiu	v1,a0,1
800017cc:	10400010 	beqz	v0,80001810 <strnlen+0x54>
800017d0:	00000000 	nop
800017d4:	00852821 	addu	a1,a0,a1
800017d8:	10000006 	b	800017f4 <strnlen+0x38>
800017dc:	00000000 	nop
800017e0:	24630001 	addiu	v1,v1,1
800017e4:	8066ffff 	lb	a2,-1(v1)
800017e8:	00000000 	nop
800017ec:	10c00006 	beqz	a2,80001808 <strnlen+0x4c>
800017f0:	00000000 	nop
800017f4:	00641023 	subu	v0,v1,a0
800017f8:	1465fff9 	bne	v1,a1,800017e0 <strnlen+0x24>
800017fc:	00000000 	nop
80001800:	03e00008 	jr	ra
80001804:	00000000 	nop
80001808:	03e00008 	jr	ra
8000180c:	00000000 	nop
80001810:	00001025 	move	v0,zero
80001814:	03e00008 	jr	ra
80001818:	00000000 	nop

8000181c <strcpy>:
strcpy():
8000181c:	00801025 	move	v0,a0
80001820:	00801825 	move	v1,a0
80001824:	24a50001 	addiu	a1,a1,1
80001828:	80a6ffff 	lb	a2,-1(a1)
8000182c:	24630001 	addiu	v1,v1,1
80001830:	a066ffff 	sb	a2,-1(v1)
80001834:	14c0fffb 	bnez	a2,80001824 <strcpy+0x8>
80001838:	00000000 	nop
8000183c:	03e00008 	jr	ra
80001840:	00000000 	nop

80001844 <strncpy>:
strncpy():
80001844:	00801025 	move	v0,a0
80001848:	10c0000b 	beqz	a2,80001878 <strncpy+0x34>
8000184c:	00000000 	nop
80001850:	00863021 	addu	a2,a0,a2
80001854:	00801825 	move	v1,a0
80001858:	80a70000 	lb	a3,0(a1)
8000185c:	24630001 	addiu	v1,v1,1
80001860:	a067ffff 	sb	a3,-1(v1)
80001864:	10e00002 	beqz	a3,80001870 <strncpy+0x2c>
80001868:	00000000 	nop
8000186c:	24a50001 	addiu	a1,a1,1
80001870:	14c3fff9 	bne	a2,v1,80001858 <strncpy+0x14>
80001874:	00000000 	nop
80001878:	03e00008 	jr	ra
8000187c:	00000000 	nop

80001880 <strcmp>:
strcmp():
80001880:	80830000 	lb	v1,0(a0)
80001884:	80a20000 	lb	v0,0(a1)
80001888:	1060000d 	beqz	v1,800018c0 <strcmp+0x40>
8000188c:	00000000 	nop
80001890:	1462000a 	bne	v1,v0,800018bc <strcmp+0x3c>
80001894:	00000000 	nop
80001898:	24840001 	addiu	a0,a0,1
8000189c:	80830000 	lb	v1,0(a0)
800018a0:	24a60001 	addiu	a2,a1,1
800018a4:	80a20001 	lb	v0,1(a1)
800018a8:	10600005 	beqz	v1,800018c0 <strcmp+0x40>
800018ac:	00000000 	nop
800018b0:	00c02825 	move	a1,a2
800018b4:	1062fff8 	beq	v1,v0,80001898 <strcmp+0x18>
800018b8:	00000000 	nop
800018bc:	306300ff 	andi	v1,v1,0xff
800018c0:	304200ff 	andi	v0,v0,0xff
800018c4:	00621023 	subu	v0,v1,v0
800018c8:	03e00008 	jr	ra
800018cc:	00000000 	nop

800018d0 <strncmp>:
strncmp():
800018d0:	10c00017 	beqz	a2,80001930 <strncmp+0x60>
800018d4:	00000000 	nop
800018d8:	80830000 	lb	v1,0(a0)
800018dc:	80a70000 	lb	a3,0(a1)
800018e0:	10600017 	beqz	v1,80001940 <strncmp+0x70>
800018e4:	00000000 	nop
800018e8:	14e30015 	bne	a3,v1,80001940 <strncmp+0x70>
800018ec:	00000000 	nop
800018f0:	24820001 	addiu	v0,a0,1
800018f4:	00863021 	addu	a2,a0,a2
800018f8:	1000000a 	b	80001924 <strncmp+0x54>
800018fc:	00000000 	nop
80001900:	80430000 	lb	v1,0(v0)
80001904:	24420001 	addiu	v0,v0,1
80001908:	1060000c 	beqz	v1,8000193c <strncmp+0x6c>
8000190c:	00000000 	nop
80001910:	00e02825 	move	a1,a3
80001914:	80e70000 	lb	a3,0(a3)
80001918:	00000000 	nop
8000191c:	14670008 	bne	v1,a3,80001940 <strncmp+0x70>
80001920:	00000000 	nop
80001924:	24a70001 	addiu	a3,a1,1
80001928:	14c2fff5 	bne	a2,v0,80001900 <strncmp+0x30>
8000192c:	00000000 	nop
80001930:	00001025 	move	v0,zero
80001934:	03e00008 	jr	ra
80001938:	00000000 	nop
8000193c:	80a70001 	lb	a3,1(a1)
80001940:	306300ff 	andi	v1,v1,0xff
80001944:	30e200ff 	andi	v0,a3,0xff
80001948:	00621023 	subu	v0,v1,v0
8000194c:	03e00008 	jr	ra
80001950:	00000000 	nop

80001954 <strchr>:
strchr():
80001954:	80820000 	lb	v0,0(a0)
80001958:	00052e00 	sll	a1,a1,0x18
8000195c:	00052e03 	sra	a1,a1,0x18
80001960:	1040000d 	beqz	v0,80001998 <strchr+0x44>
80001964:	00000000 	nop
80001968:	10450008 	beq	v0,a1,8000198c <strchr+0x38>
8000196c:	00000000 	nop
80001970:	24840001 	addiu	a0,a0,1
80001974:	80820000 	lb	v0,0(a0)
80001978:	00000000 	nop
8000197c:	1440fffa 	bnez	v0,80001968 <strchr+0x14>
80001980:	00000000 	nop
80001984:	03e00008 	jr	ra
80001988:	00000000 	nop
8000198c:	00801025 	move	v0,a0
80001990:	03e00008 	jr	ra
80001994:	00000000 	nop
80001998:	00001025 	move	v0,zero
8000199c:	03e00008 	jr	ra
800019a0:	00000000 	nop

800019a4 <strfind>:
strfind():
800019a4:	80830000 	lb	v1,0(a0)
800019a8:	00052e00 	sll	a1,a1,0x18
800019ac:	00801025 	move	v0,a0
800019b0:	00052e03 	sra	a1,a1,0x18
800019b4:	1060000c 	beqz	v1,800019e8 <strfind+0x44>
800019b8:	00000000 	nop
800019bc:	14a30005 	bne	a1,v1,800019d4 <strfind+0x30>
800019c0:	00000000 	nop
800019c4:	1000000a 	b	800019f0 <strfind+0x4c>
800019c8:	00000000 	nop
800019cc:	10650006 	beq	v1,a1,800019e8 <strfind+0x44>
800019d0:	00000000 	nop
800019d4:	24420001 	addiu	v0,v0,1
800019d8:	80430000 	lb	v1,0(v0)
800019dc:	00000000 	nop
800019e0:	1460fffa 	bnez	v1,800019cc <strfind+0x28>
800019e4:	00000000 	nop
800019e8:	03e00008 	jr	ra
800019ec:	00000000 	nop
800019f0:	03e00008 	jr	ra
800019f4:	00000000 	nop

800019f8 <memset>:
memset():
800019f8:	00052e00 	sll	a1,a1,0x18
800019fc:	00801025 	move	v0,a0
80001a00:	00052e03 	sra	a1,a1,0x18
80001a04:	10c00007 	beqz	a2,80001a24 <memset+0x2c>
80001a08:	00000000 	nop
80001a0c:	00863021 	addu	a2,a0,a2
80001a10:	00801825 	move	v1,a0
80001a14:	24630001 	addiu	v1,v1,1
80001a18:	a065ffff 	sb	a1,-1(v1)
80001a1c:	14c3fffd 	bne	a2,v1,80001a14 <memset+0x1c>
80001a20:	00000000 	nop
80001a24:	03e00008 	jr	ra
80001a28:	00000000 	nop

80001a2c <memcpy>:
memcpy():
80001a2c:	00801025 	move	v0,a0
80001a30:	10c00009 	beqz	a2,80001a58 <memcpy+0x2c>
80001a34:	00000000 	nop
80001a38:	00a63021 	addu	a2,a1,a2
80001a3c:	00801825 	move	v1,a0
80001a40:	24a50001 	addiu	a1,a1,1
80001a44:	80a7ffff 	lb	a3,-1(a1)
80001a48:	24630001 	addiu	v1,v1,1
80001a4c:	a067ffff 	sb	a3,-1(v1)
80001a50:	14c5fffb 	bne	a2,a1,80001a40 <memcpy+0x14>
80001a54:	00000000 	nop
80001a58:	03e00008 	jr	ra
80001a5c:	00000000 	nop

80001a60 <memmove>:
memmove():
80001a60:	00a4182b 	sltu	v1,a1,a0
80001a64:	00801025 	move	v0,a0
80001a68:	10600011 	beqz	v1,80001ab0 <memmove+0x50>
80001a6c:	00000000 	nop
80001a70:	00a61821 	addu	v1,a1,a2
80001a74:	0083202b 	sltu	a0,a0,v1
80001a78:	1080000d 	beqz	a0,80001ab0 <memmove+0x50>
80001a7c:	00000000 	nop
80001a80:	00462821 	addu	a1,v0,a2
80001a84:	10c00014 	beqz	a2,80001ad8 <memmove+0x78>
80001a88:	00000000 	nop
80001a8c:	00663023 	subu	a2,v1,a2
80001a90:	2463ffff 	addiu	v1,v1,-1
80001a94:	80670000 	lb	a3,0(v1)
80001a98:	24a5ffff 	addiu	a1,a1,-1
80001a9c:	a0a70000 	sb	a3,0(a1)
80001aa0:	1466fffb 	bne	v1,a2,80001a90 <memmove+0x30>
80001aa4:	00000000 	nop
80001aa8:	03e00008 	jr	ra
80001aac:	00000000 	nop
80001ab0:	10c0000b 	beqz	a2,80001ae0 <memmove+0x80>
80001ab4:	00000000 	nop
80001ab8:	00a63021 	addu	a2,a1,a2
80001abc:	00401825 	move	v1,v0
80001ac0:	24a50001 	addiu	a1,a1,1
80001ac4:	80a7ffff 	lb	a3,-1(a1)
80001ac8:	24630001 	addiu	v1,v1,1
80001acc:	a067ffff 	sb	a3,-1(v1)
80001ad0:	14a6fffb 	bne	a1,a2,80001ac0 <memmove+0x60>
80001ad4:	00000000 	nop
80001ad8:	03e00008 	jr	ra
80001adc:	00000000 	nop
80001ae0:	03e00008 	jr	ra
80001ae4:	00000000 	nop

80001ae8 <memcmp>:
memcmp():
80001ae8:	10c00013 	beqz	a2,80001b38 <memcmp+0x50>
80001aec:	00000000 	nop
80001af0:	80830000 	lb	v1,0(a0)
80001af4:	80a70000 	lb	a3,0(a1)
80001af8:	00000000 	nop
80001afc:	14e30011 	bne	a3,v1,80001b44 <memcmp+0x5c>
80001b00:	00000000 	nop
80001b04:	24a20001 	addiu	v0,a1,1
80001b08:	00a63021 	addu	a2,a1,a2
80001b0c:	10000007 	b	80001b2c <memcmp+0x44>
80001b10:	00000000 	nop
80001b14:	24420001 	addiu	v0,v0,1
80001b18:	80830000 	lb	v1,0(a0)
80001b1c:	8047ffff 	lb	a3,-1(v0)
80001b20:	00000000 	nop
80001b24:	14670007 	bne	v1,a3,80001b44 <memcmp+0x5c>
80001b28:	00000000 	nop
80001b2c:	24840001 	addiu	a0,a0,1
80001b30:	14c2fff8 	bne	a2,v0,80001b14 <memcmp+0x2c>
80001b34:	00000000 	nop
80001b38:	00001025 	move	v0,zero
80001b3c:	03e00008 	jr	ra
80001b40:	00000000 	nop
80001b44:	306300ff 	andi	v1,v1,0xff
80001b48:	30e200ff 	andi	v0,a3,0xff
80001b4c:	00621023 	subu	v0,v1,v0
80001b50:	03e00008 	jr	ra
80001b54:	00000000 	nop

80001b58 <bzero>:
bzero():
80001b58:	00851021 	addu	v0,a0,a1
80001b5c:	10a00005 	beqz	a1,80001b74 <bzero+0x1c>
80001b60:	00000000 	nop
80001b64:	24840001 	addiu	a0,a0,1
80001b68:	a080ffff 	sb	zero,-1(a0)
80001b6c:	1444fffd 	bne	v0,a0,80001b64 <bzero+0xc>
80001b70:	00000000 	nop
80001b74:	03e00008 	jr	ra
80001b78:	00000000 	nop
80001b7c:	00000000 	nop
80001b80:	20656854 	addi	a1,v1,26708
80001b84:	75736572 	jalx	85cd95c8 <_stack+0x5bd65e8>
80001b88:	6920746c 	0x6920746c
80001b8c:	69722073 	0x69722073
80001b90:	00746867 	0x746867
80001b94:	20656854 	addi	a1,v1,26708
80001b98:	75736572 	jalx	85cd95c8 <_stack+0x5bd65e8>
80001b9c:	6920746c 	0x6920746c
80001ba0:	72772073 	0x72772073
80001ba4:	00676e6f 	0x676e6f
80001ba8:	656d6954 	0x656d6954
80001bac:	7525203a 	jalx	849480e8 <_stack+0x4845108>
80001bb0:	63796320 	0x63796320
80001bb4:	2c73656c 	sltiu	s3,v1,25964
80001bb8:	20752520 	addi	s5,v1,9504
80001bbc:	202c7375 	addi	t4,at,29557
80001bc0:	69207525 	0x69207525
80001bc4:	0a74736e 	j	89d1cdb8 <_stack+0x9c19dd8>
80001bc8:	00000000 	nop
80001bcc:	72617473 	0x72617473
80001bd0:	00000074 	0x74
80001bd4:	3a6e656c 	xori	t6,s3,0x656c
80001bd8:	0a752520 	j	89d49480 <_stack+0x9c464a0>
80001bdc:	00000000 	nop
80001be0:	0a646c25 	j	8991b094 <_stack+0x98180b4>
80001be4:	00000000 	nop
80001be8:	000a7825 	or	t7,zero,t2
80001bec:	00646e65 	0x646e65
80001bf0:	6c383025 	0x6c383025
80001bf4:	25202c58 	addiu	zero,t1,11352
80001bf8:	646c3830 	0x646c3830
80001bfc:	0000000a 	0xa

80001c00 <crc_32_tab>:
80001c00:	00000000 77073096 ee0e612c 990951ba     .....0.w,a...Q..
80001c10:	076dc419 706af48f e963a535 9e6495a3     ..m...jp5.c...d.
80001c20:	0edb8832 79dcb8a4 e0d5e91e 97d2d988     2......y........
80001c30:	09b64c2b 7eb17cbd e7b82d07 90bf1d91     +L...|.~.-......
80001c40:	1db71064 6ab020f2 f3b97148 84be41de     d.... .jHq...A..
80001c50:	1adad47d 6ddde4eb f4d4b551 83d385c7     }......mQ.......
80001c60:	136c9856 646ba8c0 fd62f97a 8a65c9ec     V.l...kdz.b...e.
80001c70:	14015c4f 63066cd9 fa0f3d63 8d080df5     O\...l.cc=......
80001c80:	3b6e20c8 4c69105e d56041e4 a2677172     . n;^.iL.A`.rqg.
80001c90:	3c03e4d1 4b04d447 d20d85fd a50ab56b     ...<G..K....k...
80001ca0:	35b5a8fa 42b2986c dbbbc9d6 acbcf940     ...5l..B....@...
80001cb0:	32d86ce3 45df5c75 dcd60dcf abd13d59     .l.2u\.E....Y=..
80001cc0:	26d930ac 51de003a c8d75180 bfd06116     .0.&:..Q.Q...a..
80001cd0:	21b4f4b5 56b3c423 cfba9599 b8bda50f     ...!#..V........
80001ce0:	2802b89e 5f058808 c60cd9b2 b10be924     ...(..._....$...
80001cf0:	2f6f7c87 58684c11 c1611dab b6662d3d     .|o/.LhX..a.=-f.
80001d00:	76dc4190 01db7106 98d220bc efd5102a     .A.v.q... ..*...
80001d10:	71b18589 06b6b51f 9fbfe4a5 e8b8d433     ...q........3...
80001d20:	7807c9a2 0f00f934 9609a88e e10e9818     ...x4...........
80001d30:	7f6a0dbb 086d3d2d 91646c97 e6635c01     ..j.-=m..ld..\c.
80001d40:	6b6b51f4 1c6c6162 856530d8 f262004e     .Qkkbal..0e.N.b.
80001d50:	6c0695ed 1b01a57b 8208f4c1 f50fc457     ...l{.......W...
80001d60:	65b0d9c6 12b7e950 8bbeb8ea fcb9887c     ...eP.......|...
80001d70:	62dd1ddf 15da2d49 8cd37cf3 fbd44c65     ...bI-...|..eL..
80001d80:	4db26158 3ab551ce a3bc0074 d4bb30e2     Xa.M.Q.:t....0..
80001d90:	4adfa541 3dd895d7 a4d1c46d d3d6f4fb     A..J...=m.......
80001da0:	4369e96a 346ed9fc ad678846 da60b8d0     j.iC..n4F.g...`.
80001db0:	44042d73 33031de5 aa0a4c5f dd0d7cc9     s-.D...3_L...|..
80001dc0:	5005713c 270241aa be0b1010 c90c2086     <q.P.A.'..... ..
80001dd0:	5768b525 206f85b3 b966d409 ce61e49f     %.hW..o ..f...a.
80001de0:	5edef90e 29d9c998 b0d09822 c7d7a8b4     ...^...)".......
80001df0:	59b33d17 2eb40d81 b7bd5c3b c0ba6cad     .=.Y....;\...l..
80001e00:	edb88320 9abfb3b6 03b6e20c 74b1d29a      ..............t
80001e10:	ead54739 9dd277af 04db2615 73dc1683     9G...w...&.....s
80001e20:	e3630b12 94643b84 0d6d6a3e 7a6a5aa8     ..c..;d.>jm..Zjz
80001e30:	e40ecf0b 9309ff9d 0a00ae27 7d079eb1     ........'......}
80001e40:	f00f9344 8708a3d2 1e01f268 6906c2fe     D.......h......i
80001e50:	f762575d 806567cb 196c3671 6e6b06e7     ]Wb..ge.q6l...kn
80001e60:	fed41b76 89d32be0 10da7a5a 67dd4acc     v....+..Zz...J.g
80001e70:	f9b9df6f 8ebeeff9 17b7be43 60b08ed5     o.......C......`
80001e80:	d6d6a3e8 a1d1937e 38d8c2c4 4fdff252     ....~......8R..O
80001e90:	d1bb67f1 a6bc5767 3fb506dd 48b2364b     .g..gW.....?K6.H
80001ea0:	d80d2bda af0a1b4c 36034af6 41047a60     .+..L....J.6`z.A
80001eb0:	df60efc3 a867df55 316e8eef 4669be79     ..`.U.g...n1y.iF
80001ec0:	cb61b38c bc66831a 256fd2a0 5268e236     ..a...f...o%6.hR
80001ed0:	cc0c7795 bb0b4703 220216b9 5505262f     .w...G....."/&.U
80001ee0:	c5ba3bbe b2bd0b28 2bb45a92 5cb36a04     .;..(....Z.+.j.\
80001ef0:	c2d7ffa7 b5d0cf31 2cd99e8b 5bdeae1d     ....1......,...[
80001f00:	9b64c2b0 ec63f226 756aa39c 026d930a     ..d.&.c...ju..m.
80001f10:	9c0906a9 eb0e363f 72076785 05005713     ....?6...g.r.W..
80001f20:	95bf4a82 e2b87a14 7bb12bae 0cb61b38     .J...z...+.{8...
80001f30:	92d28e9b e5d5be0d 7cdcefb7 0bdbdf21     ...........|!...
80001f40:	86d3d2d4 f1d4e242 68ddb3f8 1fda836e     ....B......hn...
80001f50:	81be16cd f6b9265b 6fb077e1 18b74777     ....[&...w.owG..
80001f60:	88085ae6 ff0f6a70 66063bca 11010b5c     .Z..pj...;.f\...
80001f70:	8f659eff f862ae69 616bffd3 166ccf45     ..e.i.b...kaE.l.
80001f80:	a00ae278 d70dd2ee 4e048354 3903b3c2     x.......T..N...9
80001f90:	a7672661 d06016f7 4969474d 3e6e77db     a&g...`.MGiI.wn>
80001fa0:	aed16a4a d9d65adc 40df0b66 37d83bf0     Jj...Z..f..@.;.7
80001fb0:	a9bcae53 debb9ec5 47b2cf7f 30b5ffe9     S..........G...0
80001fc0:	bdbdf21c cabac28a 53b39330 24b4a3a6     ........0..S...$
80001fd0:	bad03605 cdd70693 54de5729 23d967bf     .6......)W.T.g.#
80001fe0:	b3667a2e c4614ab8 5d681b02 2a6f2b94     .zf..Ja...h].+o*
80001ff0:	b40bbe37 c30c8ea1 5a05df1b 2d02ef8d     7..........Z...-
80002000:	faeff99c fa8dfa45 f9d8faa5 f98afab8     ....E...........
80002010:	f933faae f8c4fa8b f899fa28 f850f9b6     ..3.....(.....P.
80002020:	f823f95a f7f6f8e5 f7d8f87a f7b9f838     Z.#.....z...8...
80002030:	f7b1f7f8 f7a7f7e0 f7edf809 f801f84d     ............M...
80002040:	f879f8c6 f8c4f957 f935f9da f9b4fa89     ..y.W.....5.....
80002050:	fa28fb3c fa9efbce fb3ffc94 fbd6fd62     <.(.......?.b...
80002060:	fc69fe06 fd07fed9 fd9effb4 fdf1015a     ..i.........Z...
80002070:	fe6d0114 fed701be ff1b0225 ff55028f     ..m.....%.....U.
80002080:	ffd402e5 ffc30315 0116035e 01240398     ........^.....$.
80002090:	012a03b0 fffe03f4 fffd044f ffc10494     ..*.....O.......
800020a0:	ff9d04fb ff690593 ff3f062b ff0406c1     ......i.+.?.....
800020b0:	fefa0791 feb7088b fe8d0956 fe480a05     ........V.....H.
800020c0:	fe270adf fe040b9c fde30c0f fde40c84     ..'.............
800020d0:	fe120cf0 fe260d2e fe980d69 febb0d9a     ......&.i.......
800020e0:	ff450d9e ff880d81 fff60d45 016b0ce9     ..E.....E.....k.
800020f0:	01ee0c6d 017a0bcb 02180b35 028a0ab7     m.....z.5.......
80002100:	033e0a3c 039c09de 0448098c 04b1092f     <.>.......H./...
80002110:	05260902 058708f9 05e008e4 05db0905     ..&.............
80002120:	066b096c 062009ef 06760a9a 06710b47     l.k... ...v.G.q.
80002130:	06680bdb 062e0c89 06250d32 05f00da1     ..h.....2.%.....
	...
80002150:	80001160 80001028 80001028 80001028     `...(...(...(...
80002160:	80001028 80001028 80001028 80001028     (...(...(...(...
80002170:	80001028 80001028 80001028 80000fb4     (...(...(.......
80002180:	80000fc4 80000fc4 80000fc4 80000fc4     ................
80002190:	80000fc4 80000fc4 80000fc4 80000fc4     ................
800021a0:	80000fc4 80001028 80001028 80001028     ....(...(...(...
800021b0:	80001028 80001028 80001028 80001028     (...(...(...(...
800021c0:	80001028 80001028 80001028 80001028     (...(...(...(...
800021d0:	80001028 80001028 80001028 80001028     (...(...(...(...
800021e0:	80001028 80001028 80001028 80001028     (...(...(...(...
800021f0:	80001028 80001028 80001028 80001028     (...(...(...(...
80002200:	80001028 80001028 80001028 80001028     (...(...(...(...
80002210:	80001028 80001028 80001028 80001028     (...(...(...(...
80002220:	80001028 80001028 80001028 80001028     (...(...(...(...
80002230:	80001028 80001028 80001028 80001028     (...(...(...(...
80002240:	80001028 8000113c 80001120 800010fc     (...<... .......
80002250:	80001028 80001028 80001028 80001028     (...(...(...(...
80002260:	80001028 80001028 80001028 800010d8     (...(...(.......
80002270:	80001028 80001028 800010b4 80001090     (...(...........
80002280:	80001028 80001028 80001074 80001028     (...(...t...(...
80002290:	80001050 80001028 80001028 80001090     P...(...(.......
800022a0:	636f6c63 736e206b 2c64253d 3d636573     clock ns=%d,sec=
800022b0:	000a6425 72656854 73692065 206e6120     %d..There is an 
800022c0:	65637865 6f697470 0a21216e 00000000     exception!!.....
800022d0:	20656854 20637065 25207369 00000a78     The epc is %x...
800022e0:	20656854 73756163 73692065 0a782520     The cause is %x.
800022f0:	00000000 b0000702 00000000 00000000     ................
	...
80002310:	00010000 03000001 00000000 00000000     ................
	...
