
obj/dhrystone/main.elf:     file format elf32-tradlittlemips
obj/dhrystone/main.elf


Disassembly of section .text:

80000000 <_ftext>:
_ftext():
80000000:	3c0a0040 	lui	t2,0x40
80000004:	408a6000 	mtc0	t2,c0_sr
80000008:	40806800 	mtc0	zero,c0_cause
8000000c:	3c1d8010 	lui	sp,0x8010
80000010:	27bd2fe0 	addiu	sp,sp,12256
80000014:	3c1c8001 	lui	gp,0x8001
80000018:	279caff0 	addiu	gp,gp,-20496
8000001c:	041100dc 	bal	80000390 <shell>
80000020:	00000000 	nop

80000024 <loop>:
loop():
80000024:	3c08bfd0 	lui	t0,0xbfd0
80000028:	8d090500 	lw	t1,1280(t0)
8000002c:	3c0a8000 	lui	t2,0x8000
80000030:	ad490000 	sw	t1,0(t2)
80000034:	08000009 	j	80000024 <loop>
80000038:	00000000 	nop

8000003c <exit>:
exit():
8000003c:	340900ff 	li	t1,0xff
80000040:	3c018000 	lui	at,0x8000
80000044:	a0297ffc 	sb	t1,32764(at)
	...
80000380:	0c00069e 	jal	80001a78 <exception>
80000384:	00000000 	nop
80000388:	0800000f 	j	8000003c <exit>
8000038c:	00000000 	nop

80000390 <shell>:
shell():
80000390:	27bdffd8 	addiu	sp,sp,-40
80000394:	afbf0024 	sw	ra,36(sp)
80000398:	afb40020 	sw	s4,32(sp)
8000039c:	afb3001c 	sw	s3,28(sp)
800003a0:	afb20018 	sw	s2,24(sp)
800003a4:	afb10014 	sw	s1,20(sp)
800003a8:	afb00010 	sw	s0,16(sp)
800003ac:	0c000644 	jal	80001910 <get_count>
800003b0:	00000000 	nop
800003b4:	00408025 	move	s0,v0
800003b8:	0c000689 	jal	80001a24 <get_inst>
800003bc:	00000000 	nop
800003c0:	00409825 	move	s3,v0
800003c4:	0c000685 	jal	80001a14 <get_us>
800003c8:	00000000 	nop
800003cc:	24040064 	li	a0,100
800003d0:	00409025 	move	s2,v0
800003d4:	0c000110 	jal	80000440 <dhrystone>
800003d8:	00000000 	nop
800003dc:	0c000644 	jal	80001910 <get_count>
800003e0:	00000000 	nop
800003e4:	00408825 	move	s1,v0
800003e8:	0c000689 	jal	80001a24 <get_inst>
800003ec:	00000000 	nop
800003f0:	0040a025 	move	s4,v0
800003f4:	0c000685 	jal	80001a14 <get_us>
800003f8:	00000000 	nop
800003fc:	3c048000 	lui	a0,0x8000
80000400:	8fbf0024 	lw	ra,36(sp)
80000404:	02933823 	subu	a3,s4,s3
80000408:	8fb40020 	lw	s4,32(sp)
8000040c:	02302823 	subu	a1,s1,s0
80000410:	8fb3001c 	lw	s3,28(sp)
80000414:	8fb10014 	lw	s1,20(sp)
80000418:	00523023 	subu	a2,v0,s2
8000041c:	8fb00010 	lw	s0,16(sp)
80000420:	24842000 	addiu	a0,a0,8192
80000424:	8fb20018 	lw	s2,24(sp)
80000428:	27bd0028 	addiu	sp,sp,40
8000042c:	0800058a 	j	80001628 <printf>
80000430:	00000000 	nop
	...

80000440 <dhrystone>:
dhrystone():
80000440:	27bdff58 	addiu	sp,sp,-168
80000444:	3c028000 	lui	v0,0x8000
80000448:	afb40090 	sw	s4,144(sp)
8000044c:	0080a025 	move	s4,a0
80000450:	afb00080 	sw	s0,128(sp)
80000454:	244425b0 	addiu	a0,v0,9648
80000458:	3c108000 	lui	s0,0x8000
8000045c:	afbf00a4 	sw	ra,164(sp)
80000460:	afb7009c 	sw	s7,156(sp)
80000464:	afb60098 	sw	s6,152(sp)
80000468:	2416000a 	li	s6,10
8000046c:	afb20088 	sw	s2,136(sp)
80000470:	00409025 	move	s2,v0
80000474:	afbe00a0 	sw	s8,160(sp)
80000478:	afb50094 	sw	s5,148(sp)
8000047c:	afb3008c 	sw	s3,140(sp)
80000480:	afb10084 	sw	s1,132(sp)
80000484:	afa2005c 	sw	v0,92(sp)
80000488:	0c00058a 	jal	80001628 <printf>
8000048c:	00000000 	nop
80000490:	26042024 	addiu	a0,s0,8228
80000494:	0c00058a 	jal	80001628 <printf>
80000498:	00000000 	nop
8000049c:	264425b0 	addiu	a0,s2,9648
800004a0:	0c00058a 	jal	80001628 <printf>
800004a4:	00000000 	nop
800004a8:	3c068000 	lui	a2,0x8000
800004ac:	3c058000 	lui	a1,0x8000
800004b0:	3c038000 	lui	v1,0x8000
800004b4:	3c0a8000 	lui	t2,0x8000
800004b8:	24c75770 	addiu	a3,a2,22384
800004bc:	24a85740 	addiu	t0,a1,22336
800004c0:	afa30060 	sw	v1,96(sp)
800004c4:	24090002 	li	t1,2
800004c8:	ace00004 	sw	zero,4(a3)
800004cc:	240b0028 	li	t3,40
800004d0:	af878034 	sw	a3,-32716(gp)
800004d4:	24652054 	addiu	a1,v1,8276
800004d8:	af888028 	sw	t0,-32728(gp)
800004dc:	25445780 	addiu	a0,t2,22400
800004e0:	ace90008 	sw	t1,8(a3)
800004e4:	acc85770 	sw	t0,22384(a2)
800004e8:	aceb000c 	sw	t3,12(a3)
800004ec:	0c000727 	jal	80001c9c <strcpy>
800004f0:	00000000 	nop
800004f4:	3c0c8000 	lui	t4,0x8000
800004f8:	27a40030 	addiu	a0,sp,48
800004fc:	25852074 	addiu	a1,t4,8308
80000500:	afac0068 	sw	t4,104(sp)
80000504:	0c000727 	jal	80001c9c <strcpy>
80000508:	00000000 	nop
8000050c:	3c0d8000 	lui	t5,0x8000
80000510:	264425b0 	addiu	a0,s2,9648
80000514:	25af3030 	addiu	t7,t5,12336
80000518:	afad0058 	sw	t5,88(sp)
8000051c:	adf6065c 	sw	s6,1628(t7)
80000520:	afaf0064 	sw	t7,100(sp)
80000524:	0c00058a 	jal	80001628 <printf>
80000528:	00000000 	nop
8000052c:	26042024 	addiu	a0,s0,8228
80000530:	0c00058a 	jal	80001628 <printf>
80000534:	00000000 	nop
80000538:	264425b0 	addiu	a0,s2,9648
8000053c:	0c00058a 	jal	80001628 <printf>
80000540:	00000000 	nop
80000544:	8f978010 	lw	s7,-32752(gp)
80000548:	00000000 	nop
8000054c:	12e0027c 	beqz	s7,80000f40 <dhrystone+0xb00>
80000550:	00000000 	nop
80000554:	3c1e8000 	lui	s8,0x8000
80000558:	27c42094 	addiu	a0,s8,8340
8000055c:	0c00058a 	jal	80001628 <printf>
80000560:	00000000 	nop
80000564:	264425b0 	addiu	a0,s2,9648
80000568:	0c00058a 	jal	80001628 <printf>
8000056c:	00000000 	nop
80000570:	3c1f8000 	lui	ra,0x8000
80000574:	02802825 	move	a1,s4
80000578:	27e420f0 	addiu	a0,ra,8432
8000057c:	0c00058a 	jal	80001628 <printf>
80000580:	00000000 	nop
80000584:	0c00068d 	jal	80001a34 <get_ns>
80000588:	00000000 	nop
8000058c:	af828020 	sw	v0,-32736(gp)
80000590:	1a80027e 	blez	s4,80000f8c <dhrystone+0xb4c>
80000594:	00000000 	nop
80000598:	3c158000 	lui	s5,0x8000
8000059c:	24100001 	li	s0,1
800005a0:	3c168000 	lui	s6,0x8000
800005a4:	27b20010 	addiu	s2,sp,16
800005a8:	3c178000 	lui	s7,0x8000
800005ac:	24130001 	li	s3,1
800005b0:	26b52140 	addiu	s5,s5,8512
800005b4:	24060042 	li	a2,66
800005b8:	af938038 	sw	s3,-32712(gp)
800005bc:	24110041 	li	s1,65
800005c0:	26c52120 	addiu	a1,s6,8480
800005c4:	02402025 	move	a0,s2
800005c8:	a3868031 	sb	a2,-32719(gp)
800005cc:	a3918030 	sb	s1,-32720(gp)
800005d0:	0c000727 	jal	80001c9c <strcpy>
800005d4:	00000000 	nop
800005d8:	27a40030 	addiu	a0,sp,48
800005dc:	02402825 	move	a1,s2
800005e0:	afb30050 	sw	s3,80(sp)
800005e4:	0c0004dc 	jal	80001370 <Func_2>
800005e8:	00000000 	nop
800005ec:	24070007 	li	a3,7
800005f0:	2c430001 	sltiu	v1,v0,1
800005f4:	24050003 	li	a1,3
800005f8:	24040002 	li	a0,2
800005fc:	af838038 	sw	v1,-32712(gp)
80000600:	27a60054 	addiu	a2,sp,84
80000604:	afa70054 	sw	a3,84(sp)
80000608:	0c0004a4 	jal	80001290 <Proc_7>
8000060c:	00000000 	nop
80000610:	24060003 	li	a2,3
80000614:	8fa40058 	lw	a0,88(sp)
80000618:	8fa70054 	lw	a3,84(sp)
8000061c:	24853030 	addiu	a1,a0,12336
80000620:	26e457a0 	addiu	a0,s7,22432
80000624:	0c0004ac 	jal	800012b0 <Proc_8>
80000628:	00000000 	nop
8000062c:	8f918034 	lw	s1,-32716(gp)
80000630:	00000000 	nop
80000634:	262a0030 	addiu	t2,s1,48
80000638:	8e3e0000 	lw	s8,0(s1)
8000063c:	02205825 	move	t3,s1
80000640:	03c06025 	move	t4,s8
80000644:	8d690000 	lw	t1,0(t3)
80000648:	256b0010 	addiu	t3,t3,16
8000064c:	258c0010 	addiu	t4,t4,16
80000650:	8d68fff4 	lw	t0,-12(t3)
80000654:	8d6dfff8 	lw	t5,-8(t3)
80000658:	8d65fffc 	lw	a1,-4(t3)
8000065c:	ad89fff0 	sw	t1,-16(t4)
80000660:	ad88fff4 	sw	t0,-12(t4)
80000664:	ad8dfff8 	sw	t5,-8(t4)
80000668:	ad85fffc 	sw	a1,-4(t4)
8000066c:	156afff5 	bne	t3,t2,80000644 <dhrystone+0x204>
80000670:	00000000 	nop
80000674:	240e0005 	li	t6,5
80000678:	8f85802c 	lw	a1,-32724(gp)
8000067c:	2404000a 	li	a0,10
80000680:	ae2e000c 	sw	t6,12(s1)
80000684:	afce000c 	sw	t6,12(s8)
80000688:	8e2f0000 	lw	t7,0(s1)
8000068c:	00000000 	nop
80000690:	afcf0000 	sw	t7,0(s8)
80000694:	8e380000 	lw	t8,0(s1)
80000698:	00000000 	nop
8000069c:	afd80000 	sw	t8,0(s8)
800006a0:	8f998034 	lw	t9,-32716(gp)
800006a4:	00000000 	nop
800006a8:	2726000c 	addiu	a2,t9,12
800006ac:	0c0004a4 	jal	80001290 <Proc_7>
800006b0:	00000000 	nop
800006b4:	8fc20004 	lw	v0,4(s8)
800006b8:	00000000 	nop
800006bc:	10400209 	beqz	v0,80000ee4 <dhrystone+0xaa4>
800006c0:	00000000 	nop
800006c4:	8e270000 	lw	a3,0(s1)
800006c8:	00000000 	nop
800006cc:	24ff0030 	addiu	ra,a3,48
800006d0:	8ce30000 	lw	v1,0(a3)
800006d4:	24e70010 	addiu	a3,a3,16
800006d8:	26310010 	addiu	s1,s1,16
800006dc:	8ce6fff4 	lw	a2,-12(a3)
800006e0:	8ceafff8 	lw	t2,-8(a3)
800006e4:	8ce4fffc 	lw	a0,-4(a3)
800006e8:	ae23fff0 	sw	v1,-16(s1)
800006ec:	ae26fff4 	sw	a2,-12(s1)
800006f0:	ae2afff8 	sw	t2,-8(s1)
800006f4:	ae24fffc 	sw	a0,-4(s1)
800006f8:	14fffff5 	bne	a3,ra,800006d0 <dhrystone+0x290>
800006fc:	00000000 	nop
80000700:	839e8031 	lb	s8,-32719(gp)
80000704:	00000000 	nop
80000708:	2bcc0041 	slti	t4,s8,65
8000070c:	15800209 	bnez	t4,80000f34 <dhrystone+0xaf4>
80000710:	00000000 	nop
80000714:	241e0041 	li	s8,65
80000718:	24110003 	li	s1,3
8000071c:	1000000b 	b	8000074c <dhrystone+0x30c>
80000720:	00000000 	nop
	...
80000730:	27ce0001 	addiu	t6,s8,1
80000734:	838f8031 	lb	t7,-32719(gp)
80000738:	000ec600 	sll	t8,t6,0x18
8000073c:	0018f603 	sra	s8,t8,0x18
80000740:	01fec82a 	slt	t9,t7,s8
80000744:	1720001a 	bnez	t9,800007b0 <dhrystone+0x370>
80000748:	00000000 	nop
8000074c:	24050043 	li	a1,67
80000750:	03c02025 	move	a0,s8
80000754:	0c0004cc 	jal	80001330 <Func_1>
80000758:	00000000 	nop
8000075c:	8fa50050 	lw	a1,80(sp)
80000760:	00000000 	nop
80000764:	1445fff2 	bne	v0,a1,80000730 <dhrystone+0x2f0>
80000768:	00000000 	nop
8000076c:	00002025 	move	a0,zero
80000770:	27a50050 	addiu	a1,sp,80
80000774:	02008825 	move	s1,s0
80000778:	0c000484 	jal	80001210 <Proc_6>
8000077c:	00000000 	nop
80000780:	02a02825 	move	a1,s5
80000784:	02402025 	move	a0,s2
80000788:	0c000727 	jal	80001c9c <strcpy>
8000078c:	00000000 	nop
80000790:	27ce0001 	addiu	t6,s8,1
80000794:	838f8031 	lb	t7,-32719(gp)
80000798:	000ec600 	sll	t8,t6,0x18
8000079c:	af90802c 	sw	s0,-32724(gp)
800007a0:	0018f603 	sra	s8,t8,0x18
800007a4:	01fec82a 	slt	t9,t7,s8
800007a8:	1320ffe8 	beqz	t9,8000074c <dhrystone+0x30c>
800007ac:	00000000 	nop
800007b0:	00111040 	sll	v0,s1,0x1
800007b4:	00516821 	addu	t5,v0,s1
800007b8:	8fbf0054 	lw	ra,84(sp)
800007bc:	24030041 	li	v1,65
800007c0:	83878030 	lb	a3,-32720(gp)
800007c4:	17e00002 	bnez	ra,800007d0 <dhrystone+0x390>
800007c8:	01bf001a 	div	zero,t5,ra
800007cc:	0007000d 	break	0x7
800007d0:	00003012 	mflo	a2
800007d4:	10e301be 	beq	a3,v1,80000ed0 <dhrystone+0xa90>
800007d8:	00000000 	nop
800007dc:	00008812 	mflo	s1
800007e0:	26100001 	addiu	s0,s0,1
800007e4:	0290482a 	slt	t1,s4,s0
800007e8:	1120ff72 	beqz	t1,800005b4 <dhrystone+0x174>
800007ec:	00000000 	nop
800007f0:	01bf9823 	subu	s3,t5,ra
800007f4:	0013a8c0 	sll	s5,s3,0x3
800007f8:	02b35823 	subu	t3,s5,s3
800007fc:	0166a823 	subu	s5,t3,a2
80000800:	0c00068d 	jal	80001a34 <get_ns>
80000804:	00000000 	nop
80000808:	3c088000 	lui	t0,0x8000
8000080c:	af828024 	sw	v0,-32732(gp)
80000810:	3c108000 	lui	s0,0x8000
80000814:	25042160 	addiu	a0,t0,8544
80000818:	26f757a0 	addiu	s7,s7,22432
8000081c:	0c00058a 	jal	80001628 <printf>
80000820:	00000000 	nop
80000824:	2693000a 	addiu	s3,s4,10
80000828:	8fbe005c 	lw	s8,92(sp)
8000082c:	00000000 	nop
80000830:	27c425b0 	addiu	a0,s8,9648
80000834:	0c00058a 	jal	80001628 <printf>
80000838:	00000000 	nop
8000083c:	3c0d8000 	lui	t5,0x8000
80000840:	25a42170 	addiu	a0,t5,8560
80000844:	0c00058a 	jal	80001628 <printf>
80000848:	00000000 	nop
8000084c:	27c425b0 	addiu	a0,s8,9648
80000850:	afbe005c 	sw	s8,92(sp)
80000854:	3c1e8000 	lui	s8,0x8000
80000858:	0c00058a 	jal	80001628 <printf>
8000085c:	00000000 	nop
80000860:	3c0e8000 	lui	t6,0x8000
80000864:	8f85802c 	lw	a1,-32724(gp)
80000868:	25c421a8 	addiu	a0,t6,8616
8000086c:	0c00058a 	jal	80001628 <printf>
80000870:	00000000 	nop
80000874:	260421c4 	addiu	a0,s0,8644
80000878:	24050005 	li	a1,5
8000087c:	0c00058a 	jal	80001628 <printf>
80000880:	00000000 	nop
80000884:	3c0f8000 	lui	t7,0x8000
80000888:	8f858038 	lw	a1,-32712(gp)
8000088c:	25e421e0 	addiu	a0,t7,8672
80000890:	0c00058a 	jal	80001628 <printf>
80000894:	00000000 	nop
80000898:	260421c4 	addiu	a0,s0,8644
8000089c:	24050001 	li	a1,1
800008a0:	0c00058a 	jal	80001628 <printf>
800008a4:	00000000 	nop
800008a8:	3c188000 	lui	t8,0x8000
800008ac:	83858030 	lb	a1,-32720(gp)
800008b0:	270421fc 	addiu	a0,t8,8700
800008b4:	0c00058a 	jal	80001628 <printf>
800008b8:	00000000 	nop
800008bc:	27c42218 	addiu	a0,s8,8728
800008c0:	24050041 	li	a1,65
800008c4:	0c00058a 	jal	80001628 <printf>
800008c8:	00000000 	nop
800008cc:	3c198000 	lui	t9,0x8000
800008d0:	83858031 	lb	a1,-32719(gp)
800008d4:	27242234 	addiu	a0,t9,8756
800008d8:	0c00058a 	jal	80001628 <printf>
800008dc:	00000000 	nop
800008e0:	27c42218 	addiu	a0,s8,8728
800008e4:	24050042 	li	a1,66
800008e8:	3c1e8000 	lui	s8,0x8000
800008ec:	0c00058a 	jal	80001628 <printf>
800008f0:	00000000 	nop
800008f4:	3c028000 	lui	v0,0x8000
800008f8:	8ee50020 	lw	a1,32(s7)
800008fc:	24442250 	addiu	a0,v0,8784
80000900:	0c00058a 	jal	80001628 <printf>
80000904:	00000000 	nop
80000908:	260421c4 	addiu	a0,s0,8644
8000090c:	24050007 	li	a1,7
80000910:	0c00058a 	jal	80001628 <printf>
80000914:	00000000 	nop
80000918:	3c078000 	lui	a3,0x8000
8000091c:	8fa30064 	lw	v1,100(sp)
80000920:	24e4226c 	addiu	a0,a3,8812
80000924:	8c65065c 	lw	a1,1628(v1)
80000928:	0c00058a 	jal	80001628 <printf>
8000092c:	00000000 	nop
80000930:	260421c4 	addiu	a0,s0,8644
80000934:	02602825 	move	a1,s3
80000938:	0c00058a 	jal	80001628 <printf>
8000093c:	00000000 	nop
80000940:	3c068000 	lui	a2,0x8000
80000944:	24c42288 	addiu	a0,a2,8840
80000948:	0c00058a 	jal	80001628 <printf>
8000094c:	00000000 	nop
80000950:	3c0a8000 	lui	t2,0x8000
80000954:	8f898034 	lw	t1,-32716(gp)
80000958:	25442294 	addiu	a0,t2,8852
8000095c:	afaa0078 	sw	t2,120(sp)
80000960:	8d250000 	lw	a1,0(t1)
80000964:	0c00058a 	jal	80001628 <printf>
80000968:	00000000 	nop
8000096c:	3c048000 	lui	a0,0x8000
80000970:	248422b0 	addiu	a0,a0,8880
80000974:	0c00058a 	jal	80001628 <printf>
80000978:	00000000 	nop
8000097c:	3c0b8000 	lui	t3,0x8000
80000980:	8f888034 	lw	t0,-32716(gp)
80000984:	256422e4 	addiu	a0,t3,8932
80000988:	afab0074 	sw	t3,116(sp)
8000098c:	8d050004 	lw	a1,4(t0)
80000990:	0c00058a 	jal	80001628 <printf>
80000994:	00000000 	nop
80000998:	260421c4 	addiu	a0,s0,8644
8000099c:	00002825 	move	a1,zero
800009a0:	0c00058a 	jal	80001628 <printf>
800009a4:	00000000 	nop
800009a8:	3c0c8000 	lui	t4,0x8000
800009ac:	8f8d8034 	lw	t5,-32716(gp)
800009b0:	25842300 	addiu	a0,t4,8960
800009b4:	afac0070 	sw	t4,112(sp)
800009b8:	8da50008 	lw	a1,8(t5)
800009bc:	0c00058a 	jal	80001628 <printf>
800009c0:	00000000 	nop
800009c4:	260421c4 	addiu	a0,s0,8644
800009c8:	24050002 	li	a1,2
800009cc:	0c00058a 	jal	80001628 <printf>
800009d0:	00000000 	nop
800009d4:	3c058000 	lui	a1,0x8000
800009d8:	8f8e8034 	lw	t6,-32716(gp)
800009dc:	24a4231c 	addiu	a0,a1,8988
800009e0:	afa5006c 	sw	a1,108(sp)
800009e4:	8dc5000c 	lw	a1,12(t6)
800009e8:	0c00058a 	jal	80001628 <printf>
800009ec:	00000000 	nop
800009f0:	260421c4 	addiu	a0,s0,8644
800009f4:	24050011 	li	a1,17
800009f8:	0c00058a 	jal	80001628 <printf>
800009fc:	00000000 	nop
80000a00:	3c0f8000 	lui	t7,0x8000
80000a04:	8f988034 	lw	t8,-32716(gp)
80000a08:	25e42338 	addiu	a0,t7,9016
80000a0c:	afaf0058 	sw	t7,88(sp)
80000a10:	27050010 	addiu	a1,t8,16
80000a14:	0c00058a 	jal	80001628 <printf>
80000a18:	00000000 	nop
80000a1c:	27c42354 	addiu	a0,s8,9044
80000a20:	0c00058a 	jal	80001628 <printf>
80000a24:	00000000 	nop
80000a28:	3c198000 	lui	t9,0x8000
80000a2c:	2724238c 	addiu	a0,t9,9100
80000a30:	0c00058a 	jal	80001628 <printf>
80000a34:	00000000 	nop
80000a38:	8f838028 	lw	v1,-32728(gp)
80000a3c:	8fa20078 	lw	v0,120(sp)
80000a40:	8c650000 	lw	a1,0(v1)
80000a44:	24442294 	addiu	a0,v0,8852
80000a48:	0c00058a 	jal	80001628 <printf>
80000a4c:	00000000 	nop
80000a50:	3c078000 	lui	a3,0x8000
80000a54:	24e423a0 	addiu	a0,a3,9120
80000a58:	0c00058a 	jal	80001628 <printf>
80000a5c:	00000000 	nop
80000a60:	8f8a8028 	lw	t2,-32728(gp)
80000a64:	8fa60074 	lw	a2,116(sp)
80000a68:	8d450004 	lw	a1,4(t2)
80000a6c:	24c422e4 	addiu	a0,a2,8932
80000a70:	0c00058a 	jal	80001628 <printf>
80000a74:	00000000 	nop
80000a78:	260421c4 	addiu	a0,s0,8644
80000a7c:	00002825 	move	a1,zero
80000a80:	0c00058a 	jal	80001628 <printf>
80000a84:	00000000 	nop
80000a88:	8f8b8028 	lw	t3,-32728(gp)
80000a8c:	8fa90070 	lw	t1,112(sp)
80000a90:	8d650008 	lw	a1,8(t3)
80000a94:	25242300 	addiu	a0,t1,8960
80000a98:	0c00058a 	jal	80001628 <printf>
80000a9c:	00000000 	nop
80000aa0:	260421c4 	addiu	a0,s0,8644
80000aa4:	24050001 	li	a1,1
80000aa8:	0c00058a 	jal	80001628 <printf>
80000aac:	00000000 	nop
80000ab0:	8f888028 	lw	t0,-32728(gp)
80000ab4:	8fa4006c 	lw	a0,108(sp)
80000ab8:	8d05000c 	lw	a1,12(t0)
80000abc:	2484231c 	addiu	a0,a0,8988
80000ac0:	0c00058a 	jal	80001628 <printf>
80000ac4:	00000000 	nop
80000ac8:	260421c4 	addiu	a0,s0,8644
80000acc:	24050012 	li	a1,18
80000ad0:	0c00058a 	jal	80001628 <printf>
80000ad4:	00000000 	nop
80000ad8:	8fac0058 	lw	t4,88(sp)
80000adc:	8f8d8028 	lw	t5,-32728(gp)
80000ae0:	25842338 	addiu	a0,t4,9016
80000ae4:	25a50010 	addiu	a1,t5,16
80000ae8:	0c00058a 	jal	80001628 <printf>
80000aec:	00000000 	nop
80000af0:	27c42354 	addiu	a0,s8,9044
80000af4:	3c1e8000 	lui	s8,0x8000
80000af8:	0c00058a 	jal	80001628 <printf>
80000afc:	00000000 	nop
80000b00:	3c0e8000 	lui	t6,0x8000
80000b04:	02202825 	move	a1,s1
80000b08:	25c423e0 	addiu	a0,t6,9184
80000b0c:	0c00058a 	jal	80001628 <printf>
80000b10:	00000000 	nop
80000b14:	260421c4 	addiu	a0,s0,8644
80000b18:	24050005 	li	a1,5
80000b1c:	0c00058a 	jal	80001628 <printf>
80000b20:	00000000 	nop
80000b24:	3c0f8000 	lui	t7,0x8000
80000b28:	02a02825 	move	a1,s5
80000b2c:	25e423fc 	addiu	a0,t7,9212
80000b30:	0c00058a 	jal	80001628 <printf>
80000b34:	00000000 	nop
80000b38:	260421c4 	addiu	a0,s0,8644
80000b3c:	2405000d 	li	a1,13
80000b40:	0c00058a 	jal	80001628 <printf>
80000b44:	00000000 	nop
80000b48:	3c188000 	lui	t8,0x8000
80000b4c:	8fa50054 	lw	a1,84(sp)
80000b50:	27042418 	addiu	a0,t8,9240
80000b54:	0c00058a 	jal	80001628 <printf>
80000b58:	00000000 	nop
80000b5c:	260421c4 	addiu	a0,s0,8644
80000b60:	24050007 	li	a1,7
80000b64:	0c00058a 	jal	80001628 <printf>
80000b68:	00000000 	nop
80000b6c:	27c42434 	addiu	a0,s8,9268
80000b70:	8fa50050 	lw	a1,80(sp)
80000b74:	0c00058a 	jal	80001628 <printf>
80000b78:	00000000 	nop
80000b7c:	260421c4 	addiu	a0,s0,8644
80000b80:	24050001 	li	a1,1
80000b84:	3c108000 	lui	s0,0x8000
80000b88:	0c00058a 	jal	80001628 <printf>
80000b8c:	00000000 	nop
80000b90:	27a50030 	addiu	a1,sp,48
80000b94:	26042450 	addiu	a0,s0,9296
80000b98:	0c00058a 	jal	80001628 <printf>
80000b9c:	00000000 	nop
80000ba0:	3c058000 	lui	a1,0x8000
80000ba4:	24a4246c 	addiu	a0,a1,9324
80000ba8:	0c00058a 	jal	80001628 <printf>
80000bac:	00000000 	nop
80000bb0:	3c198000 	lui	t9,0x8000
80000bb4:	02402825 	move	a1,s2
80000bb8:	272424a4 	addiu	a0,t9,9380
80000bbc:	0c00058a 	jal	80001628 <printf>
80000bc0:	00000000 	nop
80000bc4:	3c028000 	lui	v0,0x8000
80000bc8:	244424c0 	addiu	a0,v0,9408
80000bcc:	0c00058a 	jal	80001628 <printf>
80000bd0:	00000000 	nop
80000bd4:	8fa3005c 	lw	v1,92(sp)
80000bd8:	00000000 	nop
80000bdc:	246425b0 	addiu	a0,v1,9648
80000be0:	0c00058a 	jal	80001628 <printf>
80000be4:	00000000 	nop
80000be8:	24070001 	li	a3,1
80000bec:	8f868038 	lw	a2,-32712(gp)
80000bf0:	8f8a802c 	lw	t2,-32724(gp)
80000bf4:	10c700f9 	beq	a2,a3,80000fdc <dhrystone+0xb9c>
80000bf8:	00000000 	nop
80000bfc:	24100001 	li	s0,1
80000c00:	83898030 	lb	t1,-32720(gp)
80000c04:	240b0041 	li	t3,65
80000c08:	112b0002 	beq	t1,t3,80000c14 <dhrystone+0x7d4>
80000c0c:	00000000 	nop
80000c10:	24100001 	li	s0,1
80000c14:	83848031 	lb	a0,-32719(gp)
80000c18:	24080042 	li	t0,66
80000c1c:	10880002 	beq	a0,t0,80000c28 <dhrystone+0x7e8>
80000c20:	00000000 	nop
80000c24:	24100001 	li	s0,1
80000c28:	8ef70020 	lw	s7,32(s7)
80000c2c:	240c0007 	li	t4,7
80000c30:	12ec0002 	beq	s7,t4,80000c3c <dhrystone+0x7fc>
80000c34:	00000000 	nop
80000c38:	24100001 	li	s0,1
80000c3c:	8fad0064 	lw	t5,100(sp)
80000c40:	00000000 	nop
80000c44:	8dae065c 	lw	t6,1628(t5)
80000c48:	00000000 	nop
80000c4c:	126e0002 	beq	s3,t6,80000c58 <dhrystone+0x818>
80000c50:	00000000 	nop
80000c54:	24100001 	li	s0,1
80000c58:	8f938034 	lw	s3,-32716(gp)
80000c5c:	8f988028 	lw	t8,-32728(gp)
80000c60:	8e6f0000 	lw	t7,0(s3)
80000c64:	8f1e0000 	lw	s8,0(t8)
80000c68:	00000000 	nop
80000c6c:	11fe0002 	beq	t7,s8,80000c78 <dhrystone+0x838>
80000c70:	00000000 	nop
80000c74:	24100001 	li	s0,1
80000c78:	8e650004 	lw	a1,4(s3)
80000c7c:	00000000 	nop
80000c80:	10a00002 	beqz	a1,80000c8c <dhrystone+0x84c>
80000c84:	00000000 	nop
80000c88:	24100001 	li	s0,1
80000c8c:	8e790008 	lw	t9,8(s3)
80000c90:	24020002 	li	v0,2
80000c94:	13220002 	beq	t9,v0,80000ca0 <dhrystone+0x860>
80000c98:	00000000 	nop
80000c9c:	24100001 	li	s0,1
80000ca0:	8e63000c 	lw	v1,12(s3)
80000ca4:	24070011 	li	a3,17
80000ca8:	10670002 	beq	v1,a3,80000cb4 <dhrystone+0x874>
80000cac:	00000000 	nop
80000cb0:	24100001 	li	s0,1
80000cb4:	8fa60060 	lw	a2,96(sp)
80000cb8:	26640010 	addiu	a0,s3,16
80000cbc:	24c52054 	addiu	a1,a2,8276
80000cc0:	0c000740 	jal	80001d00 <strcmp>
80000cc4:	00000000 	nop
80000cc8:	10400002 	beqz	v0,80000cd4 <dhrystone+0x894>
80000ccc:	00000000 	nop
80000cd0:	24100001 	li	s0,1
80000cd4:	8f8a8028 	lw	t2,-32728(gp)
80000cd8:	00000000 	nop
80000cdc:	8d5f0004 	lw	ra,4(t2)
80000ce0:	00000000 	nop
80000ce4:	13e00002 	beqz	ra,80000cf0 <dhrystone+0x8b0>
80000ce8:	00000000 	nop
80000cec:	24100001 	li	s0,1
80000cf0:	8d490008 	lw	t1,8(t2)
80000cf4:	240b0001 	li	t3,1
80000cf8:	112b0002 	beq	t1,t3,80000d04 <dhrystone+0x8c4>
80000cfc:	00000000 	nop
80000d00:	24100001 	li	s0,1
80000d04:	8d44000c 	lw	a0,12(t2)
80000d08:	24080012 	li	t0,18
80000d0c:	10880002 	beq	a0,t0,80000d18 <dhrystone+0x8d8>
80000d10:	00000000 	nop
80000d14:	24100001 	li	s0,1
80000d18:	8fb70060 	lw	s7,96(sp)
80000d1c:	25440010 	addiu	a0,t2,16
80000d20:	26e52054 	addiu	a1,s7,8276
80000d24:	0c000740 	jal	80001d00 <strcmp>
80000d28:	00000000 	nop
80000d2c:	10400002 	beqz	v0,80000d38 <dhrystone+0x8f8>
80000d30:	00000000 	nop
80000d34:	24100001 	li	s0,1
80000d38:	240c0005 	li	t4,5
80000d3c:	122c0002 	beq	s1,t4,80000d48 <dhrystone+0x908>
80000d40:	00000000 	nop
80000d44:	24100001 	li	s0,1
80000d48:	2411000d 	li	s1,13
80000d4c:	12b10002 	beq	s5,s1,80000d58 <dhrystone+0x918>
80000d50:	00000000 	nop
80000d54:	24100001 	li	s0,1
80000d58:	8fb50054 	lw	s5,84(sp)
80000d5c:	240d0007 	li	t5,7
80000d60:	12ad0002 	beq	s5,t5,80000d6c <dhrystone+0x92c>
80000d64:	00000000 	nop
80000d68:	24100001 	li	s0,1
80000d6c:	8fae0050 	lw	t6,80(sp)
80000d70:	24130001 	li	s3,1
80000d74:	11d30002 	beq	t6,s3,80000d80 <dhrystone+0x940>
80000d78:	00000000 	nop
80000d7c:	24100001 	li	s0,1
80000d80:	8faf0068 	lw	t7,104(sp)
80000d84:	27a40030 	addiu	a0,sp,48
80000d88:	25e52074 	addiu	a1,t7,8308
80000d8c:	0c000740 	jal	80001d00 <strcmp>
80000d90:	00000000 	nop
80000d94:	10400002 	beqz	v0,80000da0 <dhrystone+0x960>
80000d98:	00000000 	nop
80000d9c:	24100001 	li	s0,1
80000da0:	26c52120 	addiu	a1,s6,8480
80000da4:	02402025 	move	a0,s2
80000da8:	0c000740 	jal	80001d00 <strcmp>
80000dac:	00000000 	nop
80000db0:	10400002 	beqz	v0,80000dbc <dhrystone+0x97c>
80000db4:	00000000 	nop
80000db8:	24100001 	li	s0,1
80000dbc:	8f988024 	lw	t8,-32732(gp)
80000dc0:	3c128000 	lui	s2,0x8000
80000dc4:	8f968020 	lw	s6,-32736(gp)
80000dc8:	264424f8 	addiu	a0,s2,9464
80000dcc:	0316f023 	subu	s8,t8,s6
80000dd0:	02c02825 	move	a1,s6
80000dd4:	af9e801c 	sw	s8,-32740(gp)
80000dd8:	0c00058a 	jal	80001628 <printf>
80000ddc:	00000000 	nop
80000de0:	3c198000 	lui	t9,0x8000
80000de4:	8f858024 	lw	a1,-32732(gp)
80000de8:	27242508 	addiu	a0,t9,9480
80000dec:	0c00058a 	jal	80001628 <printf>
80000df0:	00000000 	nop
80000df4:	3c028000 	lui	v0,0x8000
80000df8:	8f85801c 	lw	a1,-32740(gp)
80000dfc:	24442518 	addiu	a0,v0,9496
80000e00:	0c00058a 	jal	80001628 <printf>
80000e04:	00000000 	nop
80000e08:	8f87801c 	lw	a3,-32740(gp)
80000e0c:	00000000 	nop
80000e10:	28e50078 	slti	a1,a3,120
80000e14:	14a00062 	bnez	a1,80000fa0 <dhrystone+0xb60>
80000e18:	00000000 	nop
80000e1c:	16800002 	bnez	s4,80000e28 <dhrystone+0x9e8>
80000e20:	00f4001a 	div	zero,a3,s4
80000e24:	0007000d 	break	0x7
80000e28:	3c0a000f 	lui	t2,0xf
80000e2c:	3c038000 	lui	v1,0x8000
80000e30:	255f4240 	addiu	ra,t2,16960
80000e34:	24642580 	addiu	a0,v1,9600
80000e38:	00003012 	mflo	a2
	...
80000e44:	029f0018 	mult	s4,ra
80000e48:	0000a012 	mflo	s4
80000e4c:	af868014 	sw	a2,-32748(gp)
80000e50:	00000000 	nop
80000e54:	14e00002 	bnez	a3,80000e60 <dhrystone+0xa20>
80000e58:	0287001a 	div	zero,s4,a3
80000e5c:	0007000d 	break	0x7
80000e60:	00004812 	mflo	t1
80000e64:	af898018 	sw	t1,-32744(gp)
80000e68:	0c00058a 	jal	80001628 <printf>
80000e6c:	00000000 	nop
80000e70:	3c0b8000 	lui	t3,0x8000
80000e74:	8f858018 	lw	a1,-32744(gp)
80000e78:	256425ac 	addiu	a0,t3,9644
80000e7c:	0c00058a 	jal	80001628 <printf>
80000e80:	00000000 	nop
80000e84:	8fa4005c 	lw	a0,92(sp)
80000e88:	00000000 	nop
80000e8c:	248425b0 	addiu	a0,a0,9648
80000e90:	0c00058a 	jal	80001628 <printf>
80000e94:	00000000 	nop
80000e98:	8fbf00a4 	lw	ra,164(sp)
80000e9c:	02001025 	move	v0,s0
80000ea0:	8fbe00a0 	lw	s8,160(sp)
80000ea4:	8fb7009c 	lw	s7,156(sp)
80000ea8:	8fb60098 	lw	s6,152(sp)
80000eac:	8fb50094 	lw	s5,148(sp)
80000eb0:	8fb40090 	lw	s4,144(sp)
80000eb4:	8fb3008c 	lw	s3,140(sp)
80000eb8:	8fb20088 	lw	s2,136(sp)
80000ebc:	8fb10084 	lw	s1,132(sp)
80000ec0:	8fb00080 	lw	s0,128(sp)
80000ec4:	27bd00a8 	addiu	sp,sp,168
80000ec8:	03e00008 	jr	ra
80000ecc:	00000000 	nop
80000ed0:	8f84802c 	lw	a0,-32724(gp)
80000ed4:	24ca0009 	addiu	t2,a2,9
80000ed8:	01448823 	subu	s1,t2,a0
80000edc:	1000fe40 	b	800007e0 <dhrystone+0x3a0>
80000ee0:	00000000 	nop
80000ee4:	24090006 	li	t1,6
80000ee8:	27c50008 	addiu	a1,s8,8
80000eec:	afc9000c 	sw	t1,12(s8)
80000ef0:	8e240008 	lw	a0,8(s1)
80000ef4:	0c000484 	jal	80001210 <Proc_6>
80000ef8:	00000000 	nop
80000efc:	27c6000c 	addiu	a2,s8,12
80000f00:	8f8b8034 	lw	t3,-32716(gp)
80000f04:	2405000a 	li	a1,10
80000f08:	8fc4000c 	lw	a0,12(s8)
80000f0c:	8d680000 	lw	t0,0(t3)
80000f10:	00000000 	nop
80000f14:	afc80000 	sw	t0,0(s8)
80000f18:	0c0004a4 	jal	80001290 <Proc_7>
80000f1c:	00000000 	nop
80000f20:	839e8031 	lb	s8,-32719(gp)
80000f24:	00000000 	nop
80000f28:	2bcc0041 	slti	t4,s8,65
80000f2c:	1180fdf9 	beqz	t4,80000714 <dhrystone+0x2d4>
80000f30:	00000000 	nop
80000f34:	240d0009 	li	t5,9
80000f38:	1000fe1f 	b	800007b8 <dhrystone+0x378>
80000f3c:	00000000 	nop
80000f40:	3c188000 	lui	t8,0x8000
80000f44:	270420c0 	addiu	a0,t8,8384
80000f48:	0c00058a 	jal	80001628 <printf>
80000f4c:	00000000 	nop
80000f50:	8fb9005c 	lw	t9,92(sp)
80000f54:	00000000 	nop
80000f58:	272425b0 	addiu	a0,t9,9648
80000f5c:	0c00058a 	jal	80001628 <printf>
80000f60:	00000000 	nop
80000f64:	3c1f8000 	lui	ra,0x8000
80000f68:	02802825 	move	a1,s4
80000f6c:	27e420f0 	addiu	a0,ra,8432
80000f70:	0c00058a 	jal	80001628 <printf>
80000f74:	00000000 	nop
80000f78:	0c00068d 	jal	80001a34 <get_ns>
80000f7c:	00000000 	nop
80000f80:	af828020 	sw	v0,-32736(gp)
80000f84:	1e80fd84 	bgtz	s4,80000598 <dhrystone+0x158>
80000f88:	00000000 	nop
80000f8c:	3c168000 	lui	s6,0x8000
80000f90:	27b20010 	addiu	s2,sp,16
80000f94:	3c178000 	lui	s7,0x8000
80000f98:	1000fe19 	b	80000800 <dhrystone+0x3c0>
80000f9c:	00000000 	nop
80000fa0:	3c088000 	lui	t0,0x8000
80000fa4:	3c178000 	lui	s7,0x8000
80000fa8:	25042528 	addiu	a0,t0,9512
80000fac:	0c00058a 	jal	80001628 <printf>
80000fb0:	00000000 	nop
80000fb4:	26e42560 	addiu	a0,s7,9568
80000fb8:	0c00058a 	jal	80001628 <printf>
80000fbc:	00000000 	nop
80000fc0:	8fac005c 	lw	t4,92(sp)
80000fc4:	00000000 	nop
80000fc8:	258425b0 	addiu	a0,t4,9648
80000fcc:	0c00058a 	jal	80001628 <printf>
80000fd0:	00000000 	nop
80000fd4:	1000ffb0 	b	80000e98 <dhrystone+0xa58>
80000fd8:	00000000 	nop
80000fdc:	395f0005 	xori	ra,t2,0x5
80000fe0:	001f802b 	sltu	s0,zero,ra
80000fe4:	1000ff06 	b	80000c00 <dhrystone+0x7c0>
80000fe8:	00000000 	nop
80000fec:	00000000 	nop

80000ff0 <Proc_1>:
Proc_1():
80000ff0:	27bdffe0 	addiu	sp,sp,-32
80000ff4:	8f868034 	lw	a2,-32716(gp)
80000ff8:	afb10018 	sw	s1,24(sp)
80000ffc:	afb00014 	sw	s0,20(sp)
80001000:	00808025 	move	s0,a0
80001004:	afbf001c 	sw	ra,28(sp)
80001008:	00c01025 	move	v0,a2
8000100c:	8c910000 	lw	s1,0(a0)
80001010:	24c40030 	addiu	a0,a2,48
80001014:	02201825 	move	v1,s1
80001018:	8c490000 	lw	t1,0(v0)
8000101c:	24420010 	addiu	v0,v0,16
80001020:	24630010 	addiu	v1,v1,16
80001024:	8c48fff4 	lw	t0,-12(v0)
80001028:	8c47fff8 	lw	a3,-8(v0)
8000102c:	8c45fffc 	lw	a1,-4(v0)
80001030:	ac69fff0 	sw	t1,-16(v1)
80001034:	ac68fff4 	sw	t0,-12(v1)
80001038:	ac67fff8 	sw	a3,-8(v1)
8000103c:	ac65fffc 	sw	a1,-4(v1)
80001040:	1444fff5 	bne	v0,a0,80001018 <Proc_1+0x28>
80001044:	00000000 	nop
80001048:	240a0005 	li	t2,5
8000104c:	8f85802c 	lw	a1,-32724(gp)
80001050:	2404000a 	li	a0,10
80001054:	ae0a000c 	sw	t2,12(s0)
80001058:	ae2a000c 	sw	t2,12(s1)
8000105c:	8e0b0000 	lw	t3,0(s0)
80001060:	00000000 	nop
80001064:	ae2b0000 	sw	t3,0(s1)
80001068:	8ccc0000 	lw	t4,0(a2)
8000106c:	00000000 	nop
80001070:	ae2c0000 	sw	t4,0(s1)
80001074:	8f8d8034 	lw	t5,-32716(gp)
80001078:	00000000 	nop
8000107c:	25a6000c 	addiu	a2,t5,12
80001080:	0c0004a4 	jal	80001290 <Proc_7>
80001084:	00000000 	nop
80001088:	8e2e0004 	lw	t6,4(s1)
8000108c:	00000000 	nop
80001090:	11c00017 	beqz	t6,800010f0 <Proc_1+0x100>
80001094:	00000000 	nop
80001098:	8e190000 	lw	t9,0(s0)
8000109c:	00000000 	nop
800010a0:	272f0030 	addiu	t7,t9,48
800010a4:	8f380000 	lw	t8,0(t9)
800010a8:	27390010 	addiu	t9,t9,16
800010ac:	26100010 	addiu	s0,s0,16
800010b0:	8f3ffff4 	lw	ra,-12(t9)
800010b4:	8f26fff8 	lw	a2,-8(t9)
800010b8:	8f31fffc 	lw	s1,-4(t9)
800010bc:	ae18fff0 	sw	t8,-16(s0)
800010c0:	ae1ffff4 	sw	ra,-12(s0)
800010c4:	ae06fff8 	sw	a2,-8(s0)
800010c8:	ae11fffc 	sw	s1,-4(s0)
800010cc:	172ffff5 	bne	t9,t7,800010a4 <Proc_1+0xb4>
800010d0:	00000000 	nop
800010d4:	8fbf001c 	lw	ra,28(sp)
800010d8:	8fb10018 	lw	s1,24(sp)
800010dc:	8fb00014 	lw	s0,20(sp)
800010e0:	27bd0020 	addiu	sp,sp,32
800010e4:	03e00008 	jr	ra
800010e8:	00000000 	nop
800010ec:	00000000 	nop
800010f0:	24040006 	li	a0,6
800010f4:	26250008 	addiu	a1,s1,8
800010f8:	ae24000c 	sw	a0,12(s1)
800010fc:	8e040008 	lw	a0,8(s0)
80001100:	0c000484 	jal	80001210 <Proc_6>
80001104:	00000000 	nop
80001108:	2626000c 	addiu	a2,s1,12
8000110c:	8f898034 	lw	t1,-32716(gp)
80001110:	2405000a 	li	a1,10
80001114:	8e24000c 	lw	a0,12(s1)
80001118:	8fbf001c 	lw	ra,28(sp)
8000111c:	8fb00014 	lw	s0,20(sp)
80001120:	8d220000 	lw	v0,0(t1)
80001124:	00000000 	nop
80001128:	ae220000 	sw	v0,0(s1)
8000112c:	8fb10018 	lw	s1,24(sp)
80001130:	27bd0020 	addiu	sp,sp,32
80001134:	080004a4 	j	80001290 <Proc_7>
80001138:	00000000 	nop
8000113c:	00000000 	nop

80001140 <Proc_2>:
Proc_2():
80001140:	83838030 	lb	v1,-32720(gp)
80001144:	24020041 	li	v0,65
80001148:	10620005 	beq	v1,v0,80001160 <Proc_2+0x20>
8000114c:	00000000 	nop
80001150:	03e00008 	jr	ra
80001154:	00000000 	nop
	...
80001160:	8c850000 	lw	a1,0(a0)
80001164:	8f87802c 	lw	a3,-32724(gp)
80001168:	24a60009 	addiu	a2,a1,9
8000116c:	00c74023 	subu	t0,a2,a3
80001170:	ac880000 	sw	t0,0(a0)
80001174:	03e00008 	jr	ra
80001178:	00000000 	nop
8000117c:	00000000 	nop

80001180 <Proc_3>:
Proc_3():
80001180:	8f868034 	lw	a2,-32716(gp)
80001184:	00000000 	nop
80001188:	10c00005 	beqz	a2,800011a0 <Proc_3+0x20>
8000118c:	00000000 	nop
80001190:	8cc20000 	lw	v0,0(a2)
80001194:	00000000 	nop
80001198:	ac820000 	sw	v0,0(a0)
8000119c:	8f868034 	lw	a2,-32716(gp)
800011a0:	8f85802c 	lw	a1,-32724(gp)
800011a4:	24c6000c 	addiu	a2,a2,12
800011a8:	2404000a 	li	a0,10
800011ac:	080004a4 	j	80001290 <Proc_7>
800011b0:	00000000 	nop
	...

800011c0 <Proc_4>:
Proc_4():
800011c0:	83838030 	lb	v1,-32720(gp)
800011c4:	24040042 	li	a0,66
800011c8:	8f878038 	lw	a3,-32712(gp)
800011cc:	38650041 	xori	a1,v1,0x41
800011d0:	a3848031 	sb	a0,-32719(gp)
800011d4:	2ca60001 	sltiu	a2,a1,1
800011d8:	00e64025 	or	t0,a3,a2
800011dc:	af888038 	sw	t0,-32712(gp)
800011e0:	03e00008 	jr	ra
800011e4:	00000000 	nop
	...

800011f0 <Proc_5>:
Proc_5():
800011f0:	24030041 	li	v1,65
800011f4:	af808038 	sw	zero,-32712(gp)
800011f8:	a3838030 	sb	v1,-32720(gp)
800011fc:	03e00008 	jr	ra
80001200:	00000000 	nop
	...

80001210 <Proc_6>:
Proc_6():
80001210:	24020002 	li	v0,2
80001214:	1082001a 	beq	a0,v0,80001280 <Proc_6+0x70>
80001218:	00000000 	nop
8000121c:	24030001 	li	v1,1
80001220:	24060003 	li	a2,3
80001224:	1083000a 	beq	a0,v1,80001250 <Proc_6+0x40>
80001228:	00000000 	nop
8000122c:	1080000d 	beqz	a0,80001264 <Proc_6+0x54>
80001230:	00000000 	nop
80001234:	24070004 	li	a3,4
80001238:	1487000d 	bne	a0,a3,80001270 <Proc_6+0x60>
8000123c:	00000000 	nop
80001240:	aca20000 	sw	v0,0(a1)
80001244:	03e00008 	jr	ra
80001248:	00000000 	nop
8000124c:	00000000 	nop
80001250:	8f82802c 	lw	v0,-32724(gp)
80001254:	00000000 	nop
80001258:	28420065 	slti	v0,v0,101
8000125c:	14400004 	bnez	v0,80001270 <Proc_6+0x60>
80001260:	00000000 	nop
80001264:	aca00000 	sw	zero,0(a1)
80001268:	03e00008 	jr	ra
8000126c:	00000000 	nop
80001270:	aca60000 	sw	a2,0(a1)
80001274:	03e00008 	jr	ra
80001278:	00000000 	nop
8000127c:	00000000 	nop
80001280:	24020001 	li	v0,1
80001284:	aca20000 	sw	v0,0(a1)
80001288:	03e00008 	jr	ra
8000128c:	00000000 	nop

80001290 <Proc_7>:
Proc_7():
80001290:	24840002 	addiu	a0,a0,2
80001294:	00852821 	addu	a1,a0,a1
80001298:	acc50000 	sw	a1,0(a2)
8000129c:	03e00008 	jr	ra
800012a0:	00000000 	nop
	...

800012b0 <Proc_8>:
Proc_8():
800012b0:	24ca0005 	addiu	t2,a2,5
800012b4:	00063080 	sll	a2,a2,0x2
800012b8:	000a40c0 	sll	t0,t2,0x3
800012bc:	000a1940 	sll	v1,t2,0x5
800012c0:	000a4880 	sll	t1,t2,0x2
800012c4:	01035821 	addu	t3,t0,v1
800012c8:	00892021 	addu	a0,a0,t1
800012cc:	000b6080 	sll	t4,t3,0x2
800012d0:	ac870000 	sw	a3,0(a0)
800012d4:	24080005 	li	t0,5
800012d8:	016c6821 	addu	t5,t3,t4
800012dc:	ac8a0078 	sw	t2,120(a0)
800012e0:	ac870004 	sw	a3,4(a0)
800012e4:	01a67021 	addu	t6,t5,a2
800012e8:	25af0fa0 	addiu	t7,t5,4000
800012ec:	00aec021 	addu	t8,a1,t6
800012f0:	00af3821 	addu	a3,a1,t7
800012f4:	af0a0014 	sw	t2,20(t8)
800012f8:	af0a0018 	sw	t2,24(t8)
800012fc:	00e6c821 	addu	t9,a3,a2
80001300:	8f050010 	lw	a1,16(t8)
80001304:	00000000 	nop
80001308:	24aa0001 	addiu	t2,a1,1
8000130c:	af0a0010 	sw	t2,16(t8)
80001310:	8c860000 	lw	a2,0(a0)
80001314:	af88802c 	sw	t0,-32724(gp)
80001318:	af260014 	sw	a2,20(t9)
8000131c:	03e00008 	jr	ra
80001320:	00000000 	nop
	...

80001330 <Func_1>:
Func_1():
80001330:	00042600 	sll	a0,a0,0x18
80001334:	00052e00 	sll	a1,a1,0x18
80001338:	00041603 	sra	v0,a0,0x18
8000133c:	00051e03 	sra	v1,a1,0x18
80001340:	10430007 	beq	v0,v1,80001360 <Func_1+0x30>
80001344:	00000000 	nop
80001348:	00001025 	move	v0,zero
8000134c:	03e00008 	jr	ra
80001350:	00000000 	nop
	...
80001360:	a3828030 	sb	v0,-32720(gp)
80001364:	24020001 	li	v0,1
80001368:	03e00008 	jr	ra
8000136c:	00000000 	nop

80001370 <Func_2>:
Func_2():
80001370:	80830002 	lb	v1,2(a0)
80001374:	80a20003 	lb	v0,3(a1)
80001378:	00000000 	nop
8000137c:	10620018 	beq	v1,v0,800013e0 <Func_2+0x70>
80001380:	00000000 	nop
80001384:	27bdffe8 	addiu	sp,sp,-24
80001388:	afbf0014 	sw	ra,20(sp)
8000138c:	0c000740 	jal	80001d00 <strcmp>
80001390:	00000000 	nop
80001394:	1840000a 	blez	v0,800013c0 <Func_2+0x50>
80001398:	00000000 	nop
8000139c:	8fbf0014 	lw	ra,20(sp)
800013a0:	2404000a 	li	a0,10
800013a4:	24020001 	li	v0,1
800013a8:	27bd0018 	addiu	sp,sp,24
800013ac:	af84802c 	sw	a0,-32724(gp)
800013b0:	03e00008 	jr	ra
800013b4:	00000000 	nop
	...
800013c0:	8fbf0014 	lw	ra,20(sp)
800013c4:	00001025 	move	v0,zero
800013c8:	27bd0018 	addiu	sp,sp,24
800013cc:	03e00008 	jr	ra
800013d0:	00000000 	nop
	...
800013e0:	1000ffff 	b	800013e0 <Func_2+0x70>
800013e4:	00000000 	nop
	...

800013f0 <Func_3>:
Func_3():
800013f0:	38820002 	xori	v0,a0,0x2
800013f4:	2c420001 	sltiu	v0,v0,1
800013f8:	03e00008 	jr	ra
800013fc:	00000000 	nop

80001400 <__divu10>:
__divu10():
80001400:	00041082 	srl	v0,a0,0x2
80001404:	00041842 	srl	v1,a0,0x1
80001408:	24840006 	addiu	a0,a0,6
8000140c:	00621821 	addu	v1,v1,v0
80001410:	00031102 	srl	v0,v1,0x4
80001414:	00621821 	addu	v1,v1,v0
80001418:	00031202 	srl	v0,v1,0x8
8000141c:	00621821 	addu	v1,v1,v0
80001420:	00031402 	srl	v0,v1,0x10
80001424:	00621821 	addu	v1,v1,v0
80001428:	000318c2 	srl	v1,v1,0x3
8000142c:	00031040 	sll	v0,v1,0x1
80001430:	000328c0 	sll	a1,v1,0x3
80001434:	00451021 	addu	v0,v0,a1
80001438:	00821023 	subu	v0,a0,v0
8000143c:	00021102 	srl	v0,v0,0x4
80001440:	00431021 	addu	v0,v0,v1
80001444:	03e00008 	jr	ra
80001448:	00000000 	nop

8000144c <printnum2>:
printnum2():
8000144c:	27bdff90 	addiu	sp,sp,-112
80001450:	afb0005c 	sw	s0,92(sp)
80001454:	00808025 	move	s0,a0
80001458:	afbf006c 	sw	ra,108(sp)
8000145c:	afb30068 	sw	s3,104(sp)
80001460:	afb20064 	sw	s2,100(sp)
80001464:	afb10060 	sw	s1,96(sp)
80001468:	10e00003 	beqz	a3,80001478 <printnum2+0x2c>
8000146c:	00000000 	nop
80001470:	04800060 	bltz	a0,800015f4 <printnum2+0x1a8>
80001474:	00000000 	nop
80001478:	12000068 	beqz	s0,8000161c <printnum2+0x1d0>
8000147c:	00000000 	nop
80001480:	27a40010 	addiu	a0,sp,16
80001484:	00008825 	move	s1,zero
80001488:	24080002 	li	t0,2
8000148c:	24090008 	li	t1,8
80001490:	240a0010 	li	t2,16
80001494:	10c80040 	beq	a2,t0,80001598 <printnum2+0x14c>
80001498:	00000000 	nop
8000149c:	00101842 	srl	v1,s0,0x1
800014a0:	10c90042 	beq	a2,t1,800015ac <printnum2+0x160>
800014a4:	00000000 	nop
800014a8:	00101082 	srl	v0,s0,0x2
800014ac:	10ca0044 	beq	a2,t2,800015c0 <printnum2+0x174>
800014b0:	00000000 	nop
800014b4:	00621821 	addu	v1,v1,v0
800014b8:	26070006 	addiu	a3,s0,6
800014bc:	00031102 	srl	v0,v1,0x4
800014c0:	00621821 	addu	v1,v1,v0
800014c4:	00031202 	srl	v0,v1,0x8
800014c8:	00621821 	addu	v1,v1,v0
800014cc:	00031402 	srl	v0,v1,0x10
800014d0:	00621821 	addu	v1,v1,v0
800014d4:	000318c2 	srl	v1,v1,0x3
800014d8:	00031040 	sll	v0,v1,0x1
800014dc:	000358c0 	sll	t3,v1,0x3
800014e0:	004b1021 	addu	v0,v0,t3
800014e4:	00e21023 	subu	v0,a3,v0
800014e8:	00021102 	srl	v0,v0,0x4
800014ec:	00621021 	addu	v0,v1,v0
800014f0:	00021840 	sll	v1,v0,0x1
800014f4:	000238c0 	sll	a3,v0,0x3
800014f8:	00671821 	addu	v1,v1,a3
800014fc:	02031823 	subu	v1,s0,v1
80001500:	00408025 	move	s0,v0
80001504:	a0830000 	sb	v1,0(a0)
80001508:	26310001 	addiu	s1,s1,1
8000150c:	24840001 	addiu	a0,a0,1
80001510:	1600ffe0 	bnez	s0,80001494 <printnum2+0x48>
80001514:	00000000 	nop
80001518:	00b1102a 	slt	v0,a1,s1
8000151c:	10400002 	beqz	v0,80001528 <printnum2+0xdc>
80001520:	00000000 	nop
80001524:	02202825 	move	a1,s1
80001528:	10a0002a 	beqz	a1,800015d4 <printnum2+0x188>
8000152c:	00000000 	nop
80001530:	27a20010 	addiu	v0,sp,16
80001534:	24b0ffff 	addiu	s0,a1,-1
80001538:	00459021 	addu	s2,v0,a1
8000153c:	10000008 	b	80001560 <printnum2+0x114>
80001540:	00000000 	nop
80001544:	24040030 	li	a0,48
80001548:	2610ffff 	addiu	s0,s0,-1
8000154c:	0c0006e8 	jal	80001ba0 <putchar>
80001550:	00000000 	nop
80001554:	2652ffff 	addiu	s2,s2,-1
80001558:	1260001e 	beqz	s3,800015d4 <printnum2+0x188>
8000155c:	00000000 	nop
80001560:	26020001 	addiu	v0,s0,1
80001564:	02009825 	move	s3,s0
80001568:	0222102a 	slt	v0,s1,v0
8000156c:	1440fff5 	bnez	v0,80001544 <printnum2+0xf8>
80001570:	00000000 	nop
80001574:	8242ffff 	lb	v0,-1(s2)
80001578:	00000000 	nop
8000157c:	2843000a 	slti	v1,v0,10
80001580:	24440057 	addiu	a0,v0,87
80001584:	1060fff0 	beqz	v1,80001548 <printnum2+0xfc>
80001588:	00000000 	nop
8000158c:	24440030 	addiu	a0,v0,48
80001590:	1000ffed 	b	80001548 <printnum2+0xfc>
80001594:	00000000 	nop
80001598:	32020001 	andi	v0,s0,0x1
8000159c:	00108042 	srl	s0,s0,0x1
800015a0:	a0820000 	sb	v0,0(a0)
800015a4:	1000ffd8 	b	80001508 <printnum2+0xbc>
800015a8:	00000000 	nop
800015ac:	32020007 	andi	v0,s0,0x7
800015b0:	001080c2 	srl	s0,s0,0x3
800015b4:	a0820000 	sb	v0,0(a0)
800015b8:	1000ffd3 	b	80001508 <printnum2+0xbc>
800015bc:	00000000 	nop
800015c0:	3202000f 	andi	v0,s0,0xf
800015c4:	00108102 	srl	s0,s0,0x4
800015c8:	a0820000 	sb	v0,0(a0)
800015cc:	1000ffce 	b	80001508 <printnum2+0xbc>
800015d0:	00000000 	nop
800015d4:	8fbf006c 	lw	ra,108(sp)
800015d8:	8fb30068 	lw	s3,104(sp)
800015dc:	8fb20064 	lw	s2,100(sp)
800015e0:	8fb10060 	lw	s1,96(sp)
800015e4:	8fb0005c 	lw	s0,92(sp)
800015e8:	27bd0070 	addiu	sp,sp,112
800015ec:	03e00008 	jr	ra
800015f0:	00000000 	nop
800015f4:	2404002d 	li	a0,45
800015f8:	afa60054 	sw	a2,84(sp)
800015fc:	afa50050 	sw	a1,80(sp)
80001600:	00108023 	negu	s0,s0
80001604:	0c0006e8 	jal	80001ba0 <putchar>
80001608:	00000000 	nop
8000160c:	8fa50050 	lw	a1,80(sp)
80001610:	8fa60054 	lw	a2,84(sp)
80001614:	1000ff98 	b	80001478 <printnum2+0x2c>
80001618:	00000000 	nop
8000161c:	00008825 	move	s1,zero
80001620:	1000ffbd 	b	80001518 <printnum2+0xcc>
80001624:	00000000 	nop

80001628 <printf>:
printf():
80001628:	27bdffc8 	addiu	sp,sp,-56
8000162c:	afbf0034 	sw	ra,52(sp)
80001630:	27a2003c 	addiu	v0,sp,60
80001634:	afb50030 	sw	s5,48(sp)
80001638:	afb4002c 	sw	s4,44(sp)
8000163c:	afb30028 	sw	s3,40(sp)
80001640:	afb20024 	sw	s2,36(sp)
80001644:	afb10020 	sw	s1,32(sp)
80001648:	afb0001c 	sw	s0,28(sp)
8000164c:	afa5003c 	sw	a1,60(sp)
80001650:	afa60040 	sw	a2,64(sp)
80001654:	afa70044 	sw	a3,68(sp)
80001658:	afa20010 	sw	v0,16(sp)
8000165c:	80910000 	lb	s1,0(a0)
80001660:	00000000 	nop
80001664:	12200015 	beqz	s1,800016bc <printf+0x94>
80001668:	00000000 	nop
8000166c:	3c158000 	lui	s5,0x8000
80001670:	00008025 	move	s0,zero
80001674:	24130025 	li	s3,37
80001678:	26b525c0 	addiu	s5,s5,9664
8000167c:	0040a025 	move	s4,v0
80001680:	00809025 	move	s2,a0
80001684:	12330018 	beq	s1,s3,800016e8 <printf+0xc0>
80001688:	00000000 	nop
8000168c:	2402000a 	li	v0,10
80001690:	12220046 	beq	s1,v0,800017ac <printf+0x184>
80001694:	00000000 	nop
80001698:	02202025 	move	a0,s1
8000169c:	0c0006e8 	jal	80001ba0 <putchar>
800016a0:	00000000 	nop
800016a4:	26100001 	addiu	s0,s0,1
800016a8:	02501021 	addu	v0,s2,s0
800016ac:	80510000 	lb	s1,0(v0)
800016b0:	00000000 	nop
800016b4:	1620fff3 	bnez	s1,80001684 <printf+0x5c>
800016b8:	00000000 	nop
800016bc:	8fbf0034 	lw	ra,52(sp)
800016c0:	00001025 	move	v0,zero
800016c4:	8fb50030 	lw	s5,48(sp)
800016c8:	8fb4002c 	lw	s4,44(sp)
800016cc:	8fb30028 	lw	s3,40(sp)
800016d0:	8fb20024 	lw	s2,36(sp)
800016d4:	8fb10020 	lw	s1,32(sp)
800016d8:	8fb0001c 	lw	s0,28(sp)
800016dc:	27bd0038 	addiu	sp,sp,56
800016e0:	03e00008 	jr	ra
800016e4:	00000000 	nop
800016e8:	02501021 	addu	v0,s2,s0
800016ec:	24050001 	li	a1,1
800016f0:	80430001 	lb	v1,1(v0)
800016f4:	00000000 	nop
800016f8:	2462ffdb 	addiu	v0,v1,-37
800016fc:	304200ff 	andi	v0,v0,0xff
80001700:	2c440054 	sltiu	a0,v0,84
80001704:	10800024 	beqz	a0,80001798 <printf+0x170>
80001708:	00000000 	nop
8000170c:	00021080 	sll	v0,v0,0x2
80001710:	02a21021 	addu	v0,s5,v0
80001714:	8c420000 	lw	v0,0(v0)
80001718:	00000000 	nop
8000171c:	00400008 	jr	v0
80001720:	00000000 	nop
80001724:	26100001 	addiu	s0,s0,1
80001728:	02501021 	addu	v0,s2,s0
8000172c:	80430001 	lb	v1,1(v0)
80001730:	00000000 	nop
80001734:	2462ffcf 	addiu	v0,v1,-49
80001738:	304200ff 	andi	v0,v0,0xff
8000173c:	2c420009 	sltiu	v0,v0,9
80001740:	10400069 	beqz	v0,800018e8 <printf+0x2c0>
80001744:	00000000 	nop
80001748:	02503021 	addu	a2,s2,s0
8000174c:	00002825 	move	a1,zero
80001750:	2467ffd0 	addiu	a3,v1,-48
80001754:	80c30002 	lb	v1,2(a2)
80001758:	00052040 	sll	a0,a1,0x1
8000175c:	000528c0 	sll	a1,a1,0x3
80001760:	2462ffcf 	addiu	v0,v1,-49
80001764:	00852821 	addu	a1,a0,a1
80001768:	304200ff 	andi	v0,v0,0xff
8000176c:	2c420009 	sltiu	v0,v0,9
80001770:	00e52821 	addu	a1,a3,a1
80001774:	26100001 	addiu	s0,s0,1
80001778:	24c60001 	addiu	a2,a2,1
8000177c:	1440fff4 	bnez	v0,80001750 <printf+0x128>
80001780:	00000000 	nop
80001784:	2462ffdb 	addiu	v0,v1,-37
80001788:	304200ff 	andi	v0,v0,0xff
8000178c:	2c440054 	sltiu	a0,v0,84
80001790:	1480ffde 	bnez	a0,8000170c <printf+0xe4>
80001794:	00000000 	nop
80001798:	24040025 	li	a0,37
8000179c:	0c0006e8 	jal	80001ba0 <putchar>
800017a0:	00000000 	nop
800017a4:	1000ffbf 	b	800016a4 <printf+0x7c>
800017a8:	00000000 	nop
800017ac:	2404000d 	li	a0,13
800017b0:	0c0006e8 	jal	80001ba0 <putchar>
800017b4:	00000000 	nop
800017b8:	1000ffb7 	b	80001698 <printf+0x70>
800017bc:	00000000 	nop
800017c0:	8e840000 	lw	a0,0(s4)
800017c4:	00003825 	move	a3,zero
800017c8:	2406000a 	li	a2,10
800017cc:	26940004 	addiu	s4,s4,4
800017d0:	0c000513 	jal	8000144c <printnum2>
800017d4:	00000000 	nop
800017d8:	26100001 	addiu	s0,s0,1
800017dc:	1000ffb1 	b	800016a4 <printf+0x7c>
800017e0:	00000000 	nop
800017e4:	8e840000 	lw	a0,0(s4)
800017e8:	26100001 	addiu	s0,s0,1
800017ec:	26940004 	addiu	s4,s4,4
800017f0:	0c0006b0 	jal	80001ac0 <putstring>
800017f4:	00000000 	nop
800017f8:	1000ffaa 	b	800016a4 <printf+0x7c>
800017fc:	00000000 	nop
80001800:	8e840000 	lw	a0,0(s4)
80001804:	00003825 	move	a3,zero
80001808:	24060010 	li	a2,16
8000180c:	26940004 	addiu	s4,s4,4
80001810:	0c000513 	jal	8000144c <printnum2>
80001814:	00000000 	nop
80001818:	26100001 	addiu	s0,s0,1
8000181c:	1000ffa1 	b	800016a4 <printf+0x7c>
80001820:	00000000 	nop
80001824:	8e840000 	lw	a0,0(s4)
80001828:	00003825 	move	a3,zero
8000182c:	24060008 	li	a2,8
80001830:	26940004 	addiu	s4,s4,4
80001834:	0c000513 	jal	8000144c <printnum2>
80001838:	00000000 	nop
8000183c:	26100001 	addiu	s0,s0,1
80001840:	1000ff98 	b	800016a4 <printf+0x7c>
80001844:	00000000 	nop
80001848:	8e840000 	lw	a0,0(s4)
8000184c:	00003825 	move	a3,zero
80001850:	2406000a 	li	a2,10
80001854:	26940004 	addiu	s4,s4,4
80001858:	0c000513 	jal	8000144c <printnum2>
8000185c:	00000000 	nop
80001860:	26100002 	addiu	s0,s0,2
80001864:	1000ff8f 	b	800016a4 <printf+0x7c>
80001868:	00000000 	nop
8000186c:	8e840000 	lw	a0,0(s4)
80001870:	24070001 	li	a3,1
80001874:	2406000a 	li	a2,10
80001878:	26940004 	addiu	s4,s4,4
8000187c:	0c000513 	jal	8000144c <printnum2>
80001880:	00000000 	nop
80001884:	26100001 	addiu	s0,s0,1
80001888:	1000ff86 	b	800016a4 <printf+0x7c>
8000188c:	00000000 	nop
80001890:	8e840000 	lw	a0,0(s4)
80001894:	26100001 	addiu	s0,s0,1
80001898:	26940004 	addiu	s4,s4,4
8000189c:	0c0006e8 	jal	80001ba0 <putchar>
800018a0:	00000000 	nop
800018a4:	1000ff7f 	b	800016a4 <printf+0x7c>
800018a8:	00000000 	nop
800018ac:	8e840000 	lw	a0,0(s4)
800018b0:	00003825 	move	a3,zero
800018b4:	24060002 	li	a2,2
800018b8:	26940004 	addiu	s4,s4,4
800018bc:	0c000513 	jal	8000144c <printnum2>
800018c0:	00000000 	nop
800018c4:	26100001 	addiu	s0,s0,1
800018c8:	1000ff76 	b	800016a4 <printf+0x7c>
800018cc:	00000000 	nop
800018d0:	24040025 	li	a0,37
800018d4:	26100001 	addiu	s0,s0,1
800018d8:	0c0006e8 	jal	80001ba0 <putchar>
800018dc:	00000000 	nop
800018e0:	1000ff70 	b	800016a4 <printf+0x7c>
800018e4:	00000000 	nop
800018e8:	00002825 	move	a1,zero
800018ec:	1000ff82 	b	800016f8 <printf+0xd0>
800018f0:	00000000 	nop
	...

80001900 <_get_count>:
_get_count():
80001900:	3c02bfd0 	lui	v0,0xbfd0
80001904:	8c420500 	lw	v0,1280(v0)
80001908:	03e00008 	jr	ra
8000190c:	00000000 	nop

80001910 <get_count>:
get_count():
80001910:	3c02bfd0 	lui	v0,0xbfd0
80001914:	8c420500 	lw	v0,1280(v0)
80001918:	03e00008 	jr	ra
8000191c:	00000000 	nop

80001920 <clock_gettime>:
clock_gettime():
80001920:	3c02bfd0 	lui	v0,0xbfd0
80001924:	27bdffe8 	addiu	sp,sp,-24
80001928:	00a05825 	move	t3,a1
8000192c:	8c4c0500 	lw	t4,1280(v0)
80001930:	3c021062 	lui	v0,0x1062
80001934:	afbf0014 	sw	ra,20(sp)
80001938:	3c048000 	lui	a0,0x8000
8000193c:	24424dd3 	addiu	v0,v0,19923
80001940:	aca00000 	sw	zero,0(a1)
80001944:	00003025 	move	a2,zero
80001948:	01820019 	multu	t4,v0
8000194c:	000c6040 	sll	t4,t4,0x1
80001950:	24842710 	addiu	a0,a0,10000
80001954:	00003810 	mfhi	a3
	...
80001960:	01820019 	multu	t4,v0
80001964:	00002810 	mfhi	a1
80001968:	00073982 	srl	a3,a3,0x6
8000196c:	00073840 	sll	a3,a3,0x1
80001970:	00e20019 	multu	a3,v0
80001974:	00052982 	srl	a1,a1,0x6
80001978:	000541c0 	sll	t0,a1,0x7
8000197c:	00001810 	mfhi	v1
80001980:	00055080 	sll	t2,a1,0x2
80001984:	010a5023 	subu	t2,t0,t2
80001988:	01452821 	addu	a1,t2,a1
8000198c:	00031982 	srl	v1,v1,0x6
80001990:	000528c0 	sll	a1,a1,0x3
80001994:	00620019 	multu	v1,v0
80001998:	000341c0 	sll	t0,v1,0x7
8000199c:	00034880 	sll	t1,v1,0x2
800019a0:	01852823 	subu	a1,t4,a1
800019a4:	00001010 	mfhi	v0
800019a8:	01094823 	subu	t1,t0,t1
800019ac:	ad650004 	sw	a1,4(t3)
800019b0:	01234821 	addu	t1,t1,v1
800019b4:	00021182 	srl	v0,v0,0x6
800019b8:	00025080 	sll	t2,v0,0x2
800019bc:	000241c0 	sll	t0,v0,0x7
800019c0:	010a4023 	subu	t0,t0,t2
800019c4:	01021021 	addu	v0,t0,v0
800019c8:	000940c0 	sll	t0,t1,0x3
800019cc:	000210c0 	sll	v0,v0,0x3
800019d0:	00e83823 	subu	a3,a3,t0
800019d4:	00621823 	subu	v1,v1,v0
800019d8:	ad670008 	sw	a3,8(t3)
800019dc:	ad63000c 	sw	v1,12(t3)
800019e0:	0c00058a 	jal	80001628 <printf>
800019e4:	00000000 	nop
800019e8:	00001025 	move	v0,zero
800019ec:	8fbf0014 	lw	ra,20(sp)
800019f0:	27bd0018 	addiu	sp,sp,24
800019f4:	03e00008 	jr	ra
800019f8:	00000000 	nop

800019fc <get_clock>:
get_clock():
800019fc:	3c02bfd0 	lui	v0,0xbfd0
80001a00:	8c420500 	lw	v0,1280(v0)
80001a04:	00000000 	nop
80001a08:	00021040 	sll	v0,v0,0x1
80001a0c:	03e00008 	jr	ra
80001a10:	00000000 	nop

80001a14 <get_us>:
get_us():
80001a14:	3c02bfd0 	lui	v0,0xbfd0
80001a18:	8c420600 	lw	v0,1536(v0)
80001a1c:	03e00008 	jr	ra
80001a20:	00000000 	nop

80001a24 <get_inst>:
get_inst():
80001a24:	3c02bfd0 	lui	v0,0xbfd0
80001a28:	8c420700 	lw	v0,1792(v0)
80001a2c:	03e00008 	jr	ra
80001a30:	00000000 	nop

80001a34 <get_ns>:
get_ns():
80001a34:	3c02bfd0 	lui	v0,0xbfd0
80001a38:	8c440600 	lw	a0,1536(v0)
80001a3c:	00000000 	nop
80001a40:	00041080 	sll	v0,a0,0x2
80001a44:	000419c0 	sll	v1,a0,0x7
80001a48:	00621023 	subu	v0,v1,v0
80001a4c:	00441021 	addu	v0,v0,a0
80001a50:	000210c0 	sll	v0,v0,0x3
80001a54:	03e00008 	jr	ra
80001a58:	00000000 	nop
80001a5c:	00000000 	nop

80001a60 <get_epc>:
get_epc():
80001a60:	40027000 	mfc0	v0,c0_epc
80001a64:	03e00008 	jr	ra
80001a68:	00000000 	nop

80001a6c <get_cause>:
get_cause():
80001a6c:	40026800 	mfc0	v0,c0_cause
80001a70:	03e00008 	jr	ra
80001a74:	00000000 	nop

80001a78 <exception>:
exception():
80001a78:	3c048000 	lui	a0,0x8000
80001a7c:	27bdffe8 	addiu	sp,sp,-24
80001a80:	24842724 	addiu	a0,a0,10020
80001a84:	afbf0014 	sw	ra,20(sp)
80001a88:	0c00058a 	jal	80001628 <printf>
80001a8c:	00000000 	nop
80001a90:	3c048000 	lui	a0,0x8000
80001a94:	40057000 	mfc0	a1,c0_epc
80001a98:	24842740 	addiu	a0,a0,10048
80001a9c:	0c00058a 	jal	80001628 <printf>
80001aa0:	00000000 	nop
80001aa4:	3c048000 	lui	a0,0x8000
80001aa8:	8fbf0014 	lw	ra,20(sp)
80001aac:	27bd0018 	addiu	sp,sp,24
80001ab0:	24842750 	addiu	a0,a0,10064
80001ab4:	40056800 	mfc0	a1,c0_cause
80001ab8:	0800058a 	j	80001628 <printf>
80001abc:	00000000 	nop

80001ac0 <putstring>:
putstring():
80001ac0:	27bdffe0 	addiu	sp,sp,-32
80001ac4:	afbf001c 	sw	ra,28(sp)
80001ac8:	afb20018 	sw	s2,24(sp)
80001acc:	afb10014 	sw	s1,20(sp)
80001ad0:	afb00010 	sw	s0,16(sp)
80001ad4:	80900000 	lb	s0,0(a0)
80001ad8:	00000000 	nop
80001adc:	12000019 	beqz	s0,80001b44 <putstring+0x84>
80001ae0:	00000000 	nop
80001ae4:	00808825 	move	s1,a0
80001ae8:	2412000a 	li	s2,10
80001aec:	10000008 	b	80001b10 <putstring+0x50>
80001af0:	00000000 	nop
80001af4:	02002025 	move	a0,s0
80001af8:	0c0006e8 	jal	80001ba0 <putchar>
80001afc:	00000000 	nop
80001b00:	82300000 	lb	s0,0(s1)
80001b04:	00000000 	nop
80001b08:	1200000e 	beqz	s0,80001b44 <putstring+0x84>
80001b0c:	00000000 	nop
80001b10:	26310001 	addiu	s1,s1,1
80001b14:	1612fff7 	bne	s0,s2,80001af4 <putstring+0x34>
80001b18:	00000000 	nop
80001b1c:	2404000d 	li	a0,13
80001b20:	0c0006e8 	jal	80001ba0 <putchar>
80001b24:	00000000 	nop
80001b28:	02002025 	move	a0,s0
80001b2c:	0c0006e8 	jal	80001ba0 <putchar>
80001b30:	00000000 	nop
80001b34:	82300000 	lb	s0,0(s1)
80001b38:	00000000 	nop
80001b3c:	1600fff4 	bnez	s0,80001b10 <putstring+0x50>
80001b40:	00000000 	nop
80001b44:	8fbf001c 	lw	ra,28(sp)
80001b48:	00001025 	move	v0,zero
80001b4c:	8fb20018 	lw	s2,24(sp)
80001b50:	8fb10014 	lw	s1,20(sp)
80001b54:	8fb00010 	lw	s0,16(sp)
80001b58:	27bd0020 	addiu	sp,sp,32
80001b5c:	03e00008 	jr	ra
80001b60:	00000000 	nop

80001b64 <puts>:
puts():
80001b64:	27bdffe8 	addiu	sp,sp,-24
80001b68:	afbf0014 	sw	ra,20(sp)
80001b6c:	0c0006b0 	jal	80001ac0 <putstring>
80001b70:	00000000 	nop
80001b74:	2404000d 	li	a0,13
80001b78:	0c0006e8 	jal	80001ba0 <putchar>
80001b7c:	00000000 	nop
80001b80:	2404000a 	li	a0,10
80001b84:	0c0006e8 	jal	80001ba0 <putchar>
80001b88:	00000000 	nop
80001b8c:	00001025 	move	v0,zero
80001b90:	8fbf0014 	lw	ra,20(sp)
80001b94:	27bd0018 	addiu	sp,sp,24
80001b98:	03e00008 	jr	ra
80001b9c:	00000000 	nop

80001ba0 <putchar>:
putchar():
80001ba0:	3c03bfd0 	lui	v1,0xbfd0
80001ba4:	8c6203fc 	lw	v0,1020(v1)
80001ba8:	00000000 	nop
80001bac:	30420001 	andi	v0,v0,0x1
80001bb0:	1040fffb 	beqz	v0,80001ba0 <putchar>
80001bb4:	00000000 	nop
80001bb8:	10800002 	beqz	a0,80001bc4 <putchar+0x24>
80001bbc:	00000000 	nop
80001bc0:	ac6403f8 	sw	a0,1016(v1)
80001bc4:	00001025 	move	v0,zero
80001bc8:	03e00008 	jr	ra
80001bcc:	00000000 	nop

80001bd0 <tgt_putchar>:
tgt_putchar():
80001bd0:	3c03bfd0 	lui	v1,0xbfd0
80001bd4:	8c6203fc 	lw	v0,1020(v1)
80001bd8:	00000000 	nop
80001bdc:	30420001 	andi	v0,v0,0x1
80001be0:	1040fffb 	beqz	v0,80001bd0 <tgt_putchar>
80001be4:	00000000 	nop
80001be8:	10800002 	beqz	a0,80001bf4 <tgt_putchar+0x24>
80001bec:	00000000 	nop
80001bf0:	ac6403f8 	sw	a0,1016(v1)
80001bf4:	03e00008 	jr	ra
80001bf8:	00000000 	nop
80001bfc:	00000000 	nop

80001c00 <strlen>:
strlen():
80001c00:	80820000 	lb	v0,0(a0)
80001c04:	24830001 	addiu	v1,a0,1
80001c08:	10400009 	beqz	v0,80001c30 <strlen+0x30>
80001c0c:	00000000 	nop
80001c10:	00641023 	subu	v0,v1,a0
80001c14:	24630001 	addiu	v1,v1,1
80001c18:	8065ffff 	lb	a1,-1(v1)
80001c1c:	00000000 	nop
80001c20:	14a0fffb 	bnez	a1,80001c10 <strlen+0x10>
80001c24:	00000000 	nop
80001c28:	03e00008 	jr	ra
80001c2c:	00000000 	nop
80001c30:	00001025 	move	v0,zero
80001c34:	03e00008 	jr	ra
80001c38:	00000000 	nop

80001c3c <strnlen>:
strnlen():
80001c3c:	10a00014 	beqz	a1,80001c90 <strnlen+0x54>
80001c40:	00000000 	nop
80001c44:	80820000 	lb	v0,0(a0)
80001c48:	24830001 	addiu	v1,a0,1
80001c4c:	10400010 	beqz	v0,80001c90 <strnlen+0x54>
80001c50:	00000000 	nop
80001c54:	00852821 	addu	a1,a0,a1
80001c58:	10000006 	b	80001c74 <strnlen+0x38>
80001c5c:	00000000 	nop
80001c60:	24630001 	addiu	v1,v1,1
80001c64:	8066ffff 	lb	a2,-1(v1)
80001c68:	00000000 	nop
80001c6c:	10c00006 	beqz	a2,80001c88 <strnlen+0x4c>
80001c70:	00000000 	nop
80001c74:	00641023 	subu	v0,v1,a0
80001c78:	1465fff9 	bne	v1,a1,80001c60 <strnlen+0x24>
80001c7c:	00000000 	nop
80001c80:	03e00008 	jr	ra
80001c84:	00000000 	nop
80001c88:	03e00008 	jr	ra
80001c8c:	00000000 	nop
80001c90:	00001025 	move	v0,zero
80001c94:	03e00008 	jr	ra
80001c98:	00000000 	nop

80001c9c <strcpy>:
strcpy():
80001c9c:	00801025 	move	v0,a0
80001ca0:	00801825 	move	v1,a0
80001ca4:	24a50001 	addiu	a1,a1,1
80001ca8:	80a6ffff 	lb	a2,-1(a1)
80001cac:	24630001 	addiu	v1,v1,1
80001cb0:	a066ffff 	sb	a2,-1(v1)
80001cb4:	14c0fffb 	bnez	a2,80001ca4 <strcpy+0x8>
80001cb8:	00000000 	nop
80001cbc:	03e00008 	jr	ra
80001cc0:	00000000 	nop

80001cc4 <strncpy>:
strncpy():
80001cc4:	00801025 	move	v0,a0
80001cc8:	10c0000b 	beqz	a2,80001cf8 <strncpy+0x34>
80001ccc:	00000000 	nop
80001cd0:	00863021 	addu	a2,a0,a2
80001cd4:	00801825 	move	v1,a0
80001cd8:	80a70000 	lb	a3,0(a1)
80001cdc:	24630001 	addiu	v1,v1,1
80001ce0:	a067ffff 	sb	a3,-1(v1)
80001ce4:	10e00002 	beqz	a3,80001cf0 <strncpy+0x2c>
80001ce8:	00000000 	nop
80001cec:	24a50001 	addiu	a1,a1,1
80001cf0:	14c3fff9 	bne	a2,v1,80001cd8 <strncpy+0x14>
80001cf4:	00000000 	nop
80001cf8:	03e00008 	jr	ra
80001cfc:	00000000 	nop

80001d00 <strcmp>:
strcmp():
80001d00:	80830000 	lb	v1,0(a0)
80001d04:	80a20000 	lb	v0,0(a1)
80001d08:	1060000d 	beqz	v1,80001d40 <strcmp+0x40>
80001d0c:	00000000 	nop
80001d10:	1462000a 	bne	v1,v0,80001d3c <strcmp+0x3c>
80001d14:	00000000 	nop
80001d18:	24840001 	addiu	a0,a0,1
80001d1c:	80830000 	lb	v1,0(a0)
80001d20:	24a60001 	addiu	a2,a1,1
80001d24:	80a20001 	lb	v0,1(a1)
80001d28:	10600005 	beqz	v1,80001d40 <strcmp+0x40>
80001d2c:	00000000 	nop
80001d30:	00c02825 	move	a1,a2
80001d34:	1062fff8 	beq	v1,v0,80001d18 <strcmp+0x18>
80001d38:	00000000 	nop
80001d3c:	306300ff 	andi	v1,v1,0xff
80001d40:	304200ff 	andi	v0,v0,0xff
80001d44:	00621023 	subu	v0,v1,v0
80001d48:	03e00008 	jr	ra
80001d4c:	00000000 	nop

80001d50 <strncmp>:
strncmp():
80001d50:	10c00017 	beqz	a2,80001db0 <strncmp+0x60>
80001d54:	00000000 	nop
80001d58:	80830000 	lb	v1,0(a0)
80001d5c:	80a70000 	lb	a3,0(a1)
80001d60:	10600017 	beqz	v1,80001dc0 <strncmp+0x70>
80001d64:	00000000 	nop
80001d68:	14e30015 	bne	a3,v1,80001dc0 <strncmp+0x70>
80001d6c:	00000000 	nop
80001d70:	24820001 	addiu	v0,a0,1
80001d74:	00863021 	addu	a2,a0,a2
80001d78:	1000000a 	b	80001da4 <strncmp+0x54>
80001d7c:	00000000 	nop
80001d80:	80430000 	lb	v1,0(v0)
80001d84:	24420001 	addiu	v0,v0,1
80001d88:	1060000c 	beqz	v1,80001dbc <strncmp+0x6c>
80001d8c:	00000000 	nop
80001d90:	00e02825 	move	a1,a3
80001d94:	80e70000 	lb	a3,0(a3)
80001d98:	00000000 	nop
80001d9c:	14670008 	bne	v1,a3,80001dc0 <strncmp+0x70>
80001da0:	00000000 	nop
80001da4:	24a70001 	addiu	a3,a1,1
80001da8:	14c2fff5 	bne	a2,v0,80001d80 <strncmp+0x30>
80001dac:	00000000 	nop
80001db0:	00001025 	move	v0,zero
80001db4:	03e00008 	jr	ra
80001db8:	00000000 	nop
80001dbc:	80a70001 	lb	a3,1(a1)
80001dc0:	306300ff 	andi	v1,v1,0xff
80001dc4:	30e200ff 	andi	v0,a3,0xff
80001dc8:	00621023 	subu	v0,v1,v0
80001dcc:	03e00008 	jr	ra
80001dd0:	00000000 	nop

80001dd4 <strchr>:
strchr():
80001dd4:	80820000 	lb	v0,0(a0)
80001dd8:	00052e00 	sll	a1,a1,0x18
80001ddc:	00052e03 	sra	a1,a1,0x18
80001de0:	1040000d 	beqz	v0,80001e18 <strchr+0x44>
80001de4:	00000000 	nop
80001de8:	10450008 	beq	v0,a1,80001e0c <strchr+0x38>
80001dec:	00000000 	nop
80001df0:	24840001 	addiu	a0,a0,1
80001df4:	80820000 	lb	v0,0(a0)
80001df8:	00000000 	nop
80001dfc:	1440fffa 	bnez	v0,80001de8 <strchr+0x14>
80001e00:	00000000 	nop
80001e04:	03e00008 	jr	ra
80001e08:	00000000 	nop
80001e0c:	00801025 	move	v0,a0
80001e10:	03e00008 	jr	ra
80001e14:	00000000 	nop
80001e18:	00001025 	move	v0,zero
80001e1c:	03e00008 	jr	ra
80001e20:	00000000 	nop

80001e24 <strfind>:
strfind():
80001e24:	80830000 	lb	v1,0(a0)
80001e28:	00052e00 	sll	a1,a1,0x18
80001e2c:	00801025 	move	v0,a0
80001e30:	00052e03 	sra	a1,a1,0x18
80001e34:	1060000c 	beqz	v1,80001e68 <strfind+0x44>
80001e38:	00000000 	nop
80001e3c:	14a30005 	bne	a1,v1,80001e54 <strfind+0x30>
80001e40:	00000000 	nop
80001e44:	1000000a 	b	80001e70 <strfind+0x4c>
80001e48:	00000000 	nop
80001e4c:	10650006 	beq	v1,a1,80001e68 <strfind+0x44>
80001e50:	00000000 	nop
80001e54:	24420001 	addiu	v0,v0,1
80001e58:	80430000 	lb	v1,0(v0)
80001e5c:	00000000 	nop
80001e60:	1460fffa 	bnez	v1,80001e4c <strfind+0x28>
80001e64:	00000000 	nop
80001e68:	03e00008 	jr	ra
80001e6c:	00000000 	nop
80001e70:	03e00008 	jr	ra
80001e74:	00000000 	nop

80001e78 <memset>:
memset():
80001e78:	00052e00 	sll	a1,a1,0x18
80001e7c:	00801025 	move	v0,a0
80001e80:	00052e03 	sra	a1,a1,0x18
80001e84:	10c00007 	beqz	a2,80001ea4 <memset+0x2c>
80001e88:	00000000 	nop
80001e8c:	00863021 	addu	a2,a0,a2
80001e90:	00801825 	move	v1,a0
80001e94:	24630001 	addiu	v1,v1,1
80001e98:	a065ffff 	sb	a1,-1(v1)
80001e9c:	14c3fffd 	bne	a2,v1,80001e94 <memset+0x1c>
80001ea0:	00000000 	nop
80001ea4:	03e00008 	jr	ra
80001ea8:	00000000 	nop

80001eac <memcpy>:
memcpy():
80001eac:	00801025 	move	v0,a0
80001eb0:	10c00009 	beqz	a2,80001ed8 <memcpy+0x2c>
80001eb4:	00000000 	nop
80001eb8:	00a63021 	addu	a2,a1,a2
80001ebc:	00801825 	move	v1,a0
80001ec0:	24a50001 	addiu	a1,a1,1
80001ec4:	80a7ffff 	lb	a3,-1(a1)
80001ec8:	24630001 	addiu	v1,v1,1
80001ecc:	a067ffff 	sb	a3,-1(v1)
80001ed0:	14c5fffb 	bne	a2,a1,80001ec0 <memcpy+0x14>
80001ed4:	00000000 	nop
80001ed8:	03e00008 	jr	ra
80001edc:	00000000 	nop

80001ee0 <memmove>:
memmove():
80001ee0:	00a4182b 	sltu	v1,a1,a0
80001ee4:	00801025 	move	v0,a0
80001ee8:	10600011 	beqz	v1,80001f30 <memmove+0x50>
80001eec:	00000000 	nop
80001ef0:	00a61821 	addu	v1,a1,a2
80001ef4:	0083202b 	sltu	a0,a0,v1
80001ef8:	1080000d 	beqz	a0,80001f30 <memmove+0x50>
80001efc:	00000000 	nop
80001f00:	00462821 	addu	a1,v0,a2
80001f04:	10c00014 	beqz	a2,80001f58 <memmove+0x78>
80001f08:	00000000 	nop
80001f0c:	00663023 	subu	a2,v1,a2
80001f10:	2463ffff 	addiu	v1,v1,-1
80001f14:	80670000 	lb	a3,0(v1)
80001f18:	24a5ffff 	addiu	a1,a1,-1
80001f1c:	a0a70000 	sb	a3,0(a1)
80001f20:	1466fffb 	bne	v1,a2,80001f10 <memmove+0x30>
80001f24:	00000000 	nop
80001f28:	03e00008 	jr	ra
80001f2c:	00000000 	nop
80001f30:	10c0000b 	beqz	a2,80001f60 <memmove+0x80>
80001f34:	00000000 	nop
80001f38:	00a63021 	addu	a2,a1,a2
80001f3c:	00401825 	move	v1,v0
80001f40:	24a50001 	addiu	a1,a1,1
80001f44:	80a7ffff 	lb	a3,-1(a1)
80001f48:	24630001 	addiu	v1,v1,1
80001f4c:	a067ffff 	sb	a3,-1(v1)
80001f50:	14a6fffb 	bne	a1,a2,80001f40 <memmove+0x60>
80001f54:	00000000 	nop
80001f58:	03e00008 	jr	ra
80001f5c:	00000000 	nop
80001f60:	03e00008 	jr	ra
80001f64:	00000000 	nop

80001f68 <memcmp>:
memcmp():
80001f68:	10c00013 	beqz	a2,80001fb8 <memcmp+0x50>
80001f6c:	00000000 	nop
80001f70:	80830000 	lb	v1,0(a0)
80001f74:	80a70000 	lb	a3,0(a1)
80001f78:	00000000 	nop
80001f7c:	14e30011 	bne	a3,v1,80001fc4 <memcmp+0x5c>
80001f80:	00000000 	nop
80001f84:	24a20001 	addiu	v0,a1,1
80001f88:	00a63021 	addu	a2,a1,a2
80001f8c:	10000007 	b	80001fac <memcmp+0x44>
80001f90:	00000000 	nop
80001f94:	24420001 	addiu	v0,v0,1
80001f98:	80830000 	lb	v1,0(a0)
80001f9c:	8047ffff 	lb	a3,-1(v0)
80001fa0:	00000000 	nop
80001fa4:	14670007 	bne	v1,a3,80001fc4 <memcmp+0x5c>
80001fa8:	00000000 	nop
80001fac:	24840001 	addiu	a0,a0,1
80001fb0:	14c2fff8 	bne	a2,v0,80001f94 <memcmp+0x2c>
80001fb4:	00000000 	nop
80001fb8:	00001025 	move	v0,zero
80001fbc:	03e00008 	jr	ra
80001fc0:	00000000 	nop
80001fc4:	306300ff 	andi	v1,v1,0xff
80001fc8:	30e200ff 	andi	v0,a3,0xff
80001fcc:	00621023 	subu	v0,v1,v0
80001fd0:	03e00008 	jr	ra
80001fd4:	00000000 	nop

80001fd8 <bzero>:
bzero():
80001fd8:	00851021 	addu	v0,a0,a1
80001fdc:	10a00005 	beqz	a1,80001ff4 <bzero+0x1c>
80001fe0:	00000000 	nop
80001fe4:	24840001 	addiu	a0,a0,1
80001fe8:	a080ffff 	sb	zero,-1(a0)
80001fec:	1444fffd 	bne	v0,a0,80001fe4 <bzero+0xc>
80001ff0:	00000000 	nop
80001ff4:	03e00008 	jr	ra
80001ff8:	00000000 	nop
80001ffc:	00000000 	nop
80002000:	656d6954 	0x656d6954
80002004:	7525203a 	jalx	849480e8 <_stack+0x4845108>
80002008:	63796320 	0x63796320
8000200c:	2c73656c 	sltiu	s3,v1,25964
80002010:	20752520 	addi	s5,v1,9504
80002014:	202c7375 	addi	t4,at,29557
80002018:	69207525 	0x69207525
8000201c:	0a74736e 	j	89d1cdb8 <_stack+0x9c19dd8>
80002020:	00000000 	nop
80002024:	79726844 	0x79726844
80002028:	6e6f7473 	0x6e6f7473
8000202c:	65422065 	0x65422065
80002030:	6d68636e 	0x6d68636e
80002034:	2c6b7261 	sltiu	t3,v1,29281
80002038:	72655620 	0x72655620
8000203c:	6e6f6973 	0x6e6f6973
80002040:	312e3220 	andi	t6,t1,0x3220
80002044:	614c2820 	0x614c2820
80002048:	6175676e 	0x6175676e
8000204c:	203a6567 	addi	k0,at,25959
80002050:	000a2943 	sra	a1,t2,0x5
80002054:	59524844 	0x59524844
80002058:	4e4f5453 	c3	0x4f5453
8000205c:	52502045 	0x52502045
80002060:	4152474f 	0x4152474f
80002064:	53202c4d 	0x53202c4d
80002068:	20454d4f 	addi	a1,v0,19791
8000206c:	49525453 	0x49525453
80002070:	0000474e 	0x474e
80002074:	59524844 	0x59524844
80002078:	4e4f5453 	c3	0x4f5453
8000207c:	52502045 	0x52502045
80002080:	4152474f 	0x4152474f
80002084:	31202c4d 	andi	zero,t1,0x2c4d
80002088:	20545327 	addi	s4,v0,21287
8000208c:	49525453 	0x49525453
80002090:	0000474e 	0x474e
80002094:	676f7250 	0x676f7250
80002098:	206d6172 	addi	t5,v1,24946
8000209c:	706d6f63 	0x706d6f63
800020a0:	64656c69 	0x64656c69
800020a4:	74697720 	jalx	81a5dc80 <_stack+0x195aca0>
800020a8:	72272068 	0x72272068
800020ac:	73696765 	0x73696765
800020b0:	27726574 	addiu	s2,k1,25972
800020b4:	74746120 	jalx	81d18480 <_stack+0x1c154a0>
800020b8:	75626972 	jalx	8589a5c8 <_stack+0x57975e8>
800020bc:	000a6574 	0xa6574
800020c0:	676f7250 	0x676f7250
800020c4:	206d6172 	addi	t5,v1,24946
800020c8:	706d6f63 	0x706d6f63
800020cc:	64656c69 	0x64656c69
800020d0:	74697720 	jalx	81a5dc80 <_stack+0x195aca0>
800020d4:	74756f68 	jalx	81d5bda0 <_stack+0x1c58dc0>
800020d8:	65722720 	0x65722720
800020dc:	74736967 	jalx	81cda59c <_stack+0x1bd75bc>
800020e0:	20277265 	addi	a3,at,29285
800020e4:	72747461 	0x72747461
800020e8:	74756269 	jalx	81d589a4 <_stack+0x1c559c4>
800020ec:	00000a65 	0xa65
800020f0:	63657845 	0x63657845
800020f4:	6f697475 	0x6f697475
800020f8:	7473206e 	jalx	81cc81b8 <_stack+0x1bc51d8>
800020fc:	73747261 	0x73747261
80002100:	6425202c 	0x6425202c
80002104:	6e757220 	0x6e757220
80002108:	68742073 	0x68742073
8000210c:	67756f72 	0x67756f72
80002110:	68442068 	0x68442068
80002114:	74737972 	jalx	81cde5c8 <_stack+0x1bdb5e8>
80002118:	0a656e6f 	j	8995b9bc <_stack+0x98589dc>
8000211c:	00000000 	nop
80002120:	59524844 	0x59524844
80002124:	4e4f5453 	c3	0x4f5453
80002128:	52502045 	0x52502045
8000212c:	4152474f 	0x4152474f
80002130:	32202c4d 	andi	zero,s1,0x2c4d
80002134:	20444e27 	addi	a0,v0,20007
80002138:	49525453 	0x49525453
8000213c:	0000474e 	0x474e
80002140:	59524844 	0x59524844
80002144:	4e4f5453 	c3	0x4f5453
80002148:	52502045 	0x52502045
8000214c:	4152474f 	0x4152474f
80002150:	33202c4d 	andi	zero,t9,0x2c4d
80002154:	20445227 	addi	a0,v0,21031
80002158:	49525453 	0x49525453
8000215c:	0000474e 	0x474e
80002160:	63657845 	0x63657845
80002164:	6f697475 	0x6f697475
80002168:	6e65206e 	0x6e65206e
8000216c:	000a7364 	0xa7364
80002170:	616e6946 	0x616e6946
80002174:	6176206c 	0x6176206c
80002178:	7365756c 	0x7365756c
8000217c:	20666f20 	addi	a2,v1,28448
80002180:	20656874 	addi	a1,v1,26740
80002184:	69726176 	0x69726176
80002188:	656c6261 	0x656c6261
8000218c:	73752073 	0x73752073
80002190:	69206465 	0x69206465
80002194:	6874206e 	0x6874206e
80002198:	65622065 	0x65622065
8000219c:	6d68636e 	0x6d68636e
800021a0:	3a6b7261 	xori	t3,s3,0x7261
800021a4:	0000000a 	0xa
800021a8:	5f746e49 	0x5f746e49
800021ac:	626f6c47 	0x626f6c47
800021b0:	2020203a 	addi	zero,at,8250
800021b4:	20202020 	addi	zero,at,8224
800021b8:	20202020 	addi	zero,at,8224
800021bc:	0a642520 	j	89909480 <_stack+0x98064a0>
800021c0:	00000000 	nop
800021c4:	20202020 	addi	zero,at,8224
800021c8:	20202020 	addi	zero,at,8224
800021cc:	756f6873 	jalx	85bda1cc <_stack+0x5ad71ec>
800021d0:	6220646c 	0x6220646c
800021d4:	20203a65 	addi	zero,at,14949
800021d8:	0a642520 	j	89909480 <_stack+0x98064a0>
800021dc:	00000000 	nop
800021e0:	6c6f6f42 	0x6c6f6f42
800021e4:	6f6c475f 	0x6f6c475f
800021e8:	20203a62 	addi	zero,at,14946
800021ec:	20202020 	addi	zero,at,8224
800021f0:	20202020 	addi	zero,at,8224
800021f4:	0a642520 	j	89909480 <_stack+0x98064a0>
800021f8:	00000000 	nop
800021fc:	315f6843 	andi	ra,t2,0x6843
80002200:	6f6c475f 	0x6f6c475f
80002204:	20203a62 	addi	zero,at,14946
80002208:	20202020 	addi	zero,at,8224
8000220c:	20202020 	addi	zero,at,8224
80002210:	0a632520 	j	898c9480 <_stack+0x97c64a0>
80002214:	00000000 	nop
80002218:	20202020 	addi	zero,at,8224
8000221c:	20202020 	addi	zero,at,8224
80002220:	756f6873 	jalx	85bda1cc <_stack+0x5ad71ec>
80002224:	6220646c 	0x6220646c
80002228:	20203a65 	addi	zero,at,14949
8000222c:	0a632520 	j	898c9480 <_stack+0x97c64a0>
80002230:	00000000 	nop
80002234:	325f6843 	andi	ra,s2,0x6843
80002238:	6f6c475f 	0x6f6c475f
8000223c:	20203a62 	addi	zero,at,14946
80002240:	20202020 	addi	zero,at,8224
80002244:	20202020 	addi	zero,at,8224
80002248:	0a632520 	j	898c9480 <_stack+0x97c64a0>
8000224c:	00000000 	nop
80002250:	5f727241 	0x5f727241
80002254:	6c475f31 	0x6c475f31
80002258:	385b626f 	xori	k1,v0,0x626f
8000225c:	20203a5d 	addi	zero,at,14941
80002260:	20202020 	addi	zero,at,8224
80002264:	0a642520 	j	89909480 <_stack+0x98064a0>
80002268:	00000000 	nop
8000226c:	5f727241 	0x5f727241
80002270:	6c475f32 	0x6c475f32
80002274:	385b626f 	xori	k1,v0,0x626f
80002278:	5d375b5d 	0x5d375b5d
8000227c:	2020203a 	addi	zero,at,8250
80002280:	0a642520 	j	89909480 <_stack+0x98064a0>
80002284:	00000000 	nop
80002288:	5f727450 	0x5f727450
8000228c:	626f6c47 	0x626f6c47
80002290:	000a3e2d 	0xa3e2d
80002294:	74502020 	jalx	81408080 <_stack+0x13050a0>
80002298:	6f435f72 	0x6f435f72
8000229c:	203a706d 	addi	k0,at,28781
800022a0:	20202020 	addi	zero,at,8224
800022a4:	20202020 	addi	zero,at,8224
800022a8:	0a642520 	j	89909480 <_stack+0x98064a0>
800022ac:	00000000 	nop
800022b0:	20202020 	addi	zero,at,8224
800022b4:	20202020 	addi	zero,at,8224
800022b8:	756f6873 	jalx	85bda1cc <_stack+0x5ad71ec>
800022bc:	6220646c 	0x6220646c
800022c0:	20203a65 	addi	zero,at,14949
800022c4:	6d692820 	0x6d692820
800022c8:	6d656c70 	0x6d656c70
800022cc:	61746e65 	0x61746e65
800022d0:	6e6f6974 	0x6e6f6974
800022d4:	7065642d 	0x7065642d
800022d8:	65646e65 	0x65646e65
800022dc:	0a29746e 	j	88a5d1b8 <_stack+0x895a1d8>
800022e0:	00000000 	nop
800022e4:	69442020 	0x69442020
800022e8:	3a726373 	xori	s2,s3,0x6373
800022ec:	20202020 	addi	zero,at,8224
800022f0:	20202020 	addi	zero,at,8224
800022f4:	20202020 	addi	zero,at,8224
800022f8:	0a642520 	j	89909480 <_stack+0x98064a0>
800022fc:	00000000 	nop
80002300:	6e452020 	0x6e452020
80002304:	435f6d75 	c0	0x15f6d75
80002308:	3a706d6f 	xori	s0,s3,0x6d6f
8000230c:	20202020 	addi	zero,at,8224
80002310:	20202020 	addi	zero,at,8224
80002314:	0a642520 	j	89909480 <_stack+0x98064a0>
80002318:	00000000 	nop
8000231c:	6e492020 	0x6e492020
80002320:	6f435f74 	0x6f435f74
80002324:	203a706d 	addi	k0,at,28781
80002328:	20202020 	addi	zero,at,8224
8000232c:	20202020 	addi	zero,at,8224
80002330:	0a642520 	j	89909480 <_stack+0x98064a0>
80002334:	00000000 	nop
80002338:	74532020 	jalx	814c8080 <_stack+0x13c50a0>
8000233c:	6f435f72 	0x6f435f72
80002340:	203a706d 	addi	k0,at,28781
80002344:	20202020 	addi	zero,at,8224
80002348:	20202020 	addi	zero,at,8224
8000234c:	0a732520 	j	89cc9480 <_stack+0x9bc64a0>
80002350:	00000000 	nop
80002354:	20202020 	addi	zero,at,8224
80002358:	20202020 	addi	zero,at,8224
8000235c:	756f6873 	jalx	85bda1cc <_stack+0x5ad71ec>
80002360:	6220646c 	0x6220646c
80002364:	20203a65 	addi	zero,at,14949
80002368:	52484420 	0x52484420
8000236c:	4f545359 	c3	0x1545359
80002370:	5020454e 	0x5020454e
80002374:	52474f52 	0x52474f52
80002378:	202c4d41 	addi	t4,at,19777
8000237c:	454d4f53 	0x454d4f53
80002380:	52545320 	0x52545320
80002384:	0a474e49 	j	891d3924 <_stack+0x90d0944>
80002388:	00000000 	nop
8000238c:	7478654e 	jalx	81e19538 <_stack+0x1d16558>
80002390:	7274505f 	0x7274505f
80002394:	6f6c475f 	0x6f6c475f
80002398:	0a3e2d62 	j	88f8b588 <_stack+0x8e885a8>
8000239c:	00000000 	nop
800023a0:	20202020 	addi	zero,at,8224
800023a4:	20202020 	addi	zero,at,8224
800023a8:	756f6873 	jalx	85bda1cc <_stack+0x5ad71ec>
800023ac:	6220646c 	0x6220646c
800023b0:	20203a65 	addi	zero,at,14949
800023b4:	6d692820 	0x6d692820
800023b8:	6d656c70 	0x6d656c70
800023bc:	61746e65 	0x61746e65
800023c0:	6e6f6974 	0x6e6f6974
800023c4:	7065642d 	0x7065642d
800023c8:	65646e65 	0x65646e65
800023cc:	2c29746e 	sltiu	t1,at,29806
800023d0:	6d617320 	0x6d617320
800023d4:	73612065 	0x73612065
800023d8:	6f626120 	0x6f626120
800023dc:	000a6576 	0xa6576
800023e0:	5f746e49 	0x5f746e49
800023e4:	6f4c5f31 	0x6f4c5f31
800023e8:	20203a63 	addi	zero,at,14947
800023ec:	20202020 	addi	zero,at,8224
800023f0:	20202020 	addi	zero,at,8224
800023f4:	0a642520 	j	89909480 <_stack+0x98064a0>
800023f8:	00000000 	nop
800023fc:	5f746e49 	0x5f746e49
80002400:	6f4c5f32 	0x6f4c5f32
80002404:	20203a63 	addi	zero,at,14947
80002408:	20202020 	addi	zero,at,8224
8000240c:	20202020 	addi	zero,at,8224
80002410:	0a642520 	j	89909480 <_stack+0x98064a0>
80002414:	00000000 	nop
80002418:	5f746e49 	0x5f746e49
8000241c:	6f4c5f33 	0x6f4c5f33
80002420:	20203a63 	addi	zero,at,14947
80002424:	20202020 	addi	zero,at,8224
80002428:	20202020 	addi	zero,at,8224
8000242c:	0a642520 	j	89909480 <_stack+0x98064a0>
80002430:	00000000 	nop
80002434:	6d756e45 	0x6d756e45
80002438:	636f4c5f 	0x636f4c5f
8000243c:	2020203a 	addi	zero,at,8250
80002440:	20202020 	addi	zero,at,8224
80002444:	20202020 	addi	zero,at,8224
80002448:	0a642520 	j	89909480 <_stack+0x98064a0>
8000244c:	00000000 	nop
80002450:	5f727453 	0x5f727453
80002454:	6f4c5f31 	0x6f4c5f31
80002458:	20203a63 	addi	zero,at,14947
8000245c:	20202020 	addi	zero,at,8224
80002460:	20202020 	addi	zero,at,8224
80002464:	0a732520 	j	89cc9480 <_stack+0x9bc64a0>
80002468:	00000000 	nop
8000246c:	20202020 	addi	zero,at,8224
80002470:	20202020 	addi	zero,at,8224
80002474:	756f6873 	jalx	85bda1cc <_stack+0x5ad71ec>
80002478:	6220646c 	0x6220646c
8000247c:	20203a65 	addi	zero,at,14949
80002480:	52484420 	0x52484420
80002484:	4f545359 	c3	0x1545359
80002488:	5020454e 	0x5020454e
8000248c:	52474f52 	0x52474f52
80002490:	202c4d41 	addi	t4,at,19777
80002494:	54532731 	0x54532731
80002498:	52545320 	0x52545320
8000249c:	0a474e49 	j	891d3924 <_stack+0x90d0944>
800024a0:	00000000 	nop
800024a4:	5f727453 	0x5f727453
800024a8:	6f4c5f32 	0x6f4c5f32
800024ac:	20203a63 	addi	zero,at,14947
800024b0:	20202020 	addi	zero,at,8224
800024b4:	20202020 	addi	zero,at,8224
800024b8:	0a732520 	j	89cc9480 <_stack+0x9bc64a0>
800024bc:	00000000 	nop
800024c0:	20202020 	addi	zero,at,8224
800024c4:	20202020 	addi	zero,at,8224
800024c8:	756f6873 	jalx	85bda1cc <_stack+0x5ad71ec>
800024cc:	6220646c 	0x6220646c
800024d0:	20203a65 	addi	zero,at,14949
800024d4:	52484420 	0x52484420
800024d8:	4f545359 	c3	0x1545359
800024dc:	5020454e 	0x5020454e
800024e0:	52474f52 	0x52474f52
800024e4:	202c4d41 	addi	t4,at,19777
800024e8:	444e2732 	0x444e2732
800024ec:	52545320 	0x52545320
800024f0:	0a474e49 	j	891d3924 <_stack+0x90d0944>
800024f4:	00000000 	nop
800024f8:	69676542 	0x69676542
800024fc:	736e206e 	0x736e206e
80002500:	6c25203a 	0x6c25203a
80002504:	00000a75 	0xa75
80002508:	20646e45 	addi	a0,v1,28229
8000250c:	203a736e 	addi	k0,at,29550
80002510:	0a756c25 	j	89d5b094 <_stack+0x9c580b4>
80002514:	00000000 	nop
80002518:	61746f54 	0x61746f54
8000251c:	736e206c 	0x736e206c
80002520:	6c25203a 	0x6c25203a
80002524:	00000a75 	0xa75
80002528:	7361654d 	0x7361654d
8000252c:	64657275 	0x64657275
80002530:	6d697420 	0x6d697420
80002534:	6f742065 	0x6f742065
80002538:	6d73206f 	0x6d73206f
8000253c:	206c6c61 	addi	t4,v1,27745
80002540:	6f206f74 	0x6f206f74
80002544:	69617462 	0x69617462
80002548:	656d206e 	0x656d206e
8000254c:	6e696e61 	0x6e696e61
80002550:	6c756667 	0x6c756667
80002554:	73657220 	0x73657220
80002558:	73746c75 	0x73746c75
8000255c:	0000000a 	0xa
80002560:	61656c50 	0x61656c50
80002564:	69206573 	0x69206573
80002568:	6572636e 	0x6572636e
8000256c:	20657361 	addi	a1,v1,29537
80002570:	626d756e 	0x626d756e
80002574:	6f207265 	0x6f207265
80002578:	75722066 	jalx	85c88198 <_stack+0x5b851b8>
8000257c:	000a736e 	0xa736e
80002580:	79726844 	0x79726844
80002584:	6e6f7473 	0x6e6f7473
80002588:	70207365 	0x70207365
8000258c:	6d207265 	0x6d207265
80002590:	20203a73 	addi	zero,at,14963
80002594:	20202020 	addi	zero,at,8224
80002598:	20202020 	addi	zero,at,8224
8000259c:	20202020 	addi	zero,at,8224
800025a0:	20202020 	addi	zero,at,8224
800025a4:	20202020 	addi	zero,at,8224
800025a8:	00000000 	nop
800025ac:	20753125 	addi	s5,v1,12581
800025b0:	0000000a 	0xa
	...
800025c0:	800018d0 	lb	zero,6352(zero)
800025c4:	80001798 	lb	zero,6040(zero)
800025c8:	80001798 	lb	zero,6040(zero)
800025cc:	80001798 	lb	zero,6040(zero)
800025d0:	80001798 	lb	zero,6040(zero)
800025d4:	80001798 	lb	zero,6040(zero)
800025d8:	80001798 	lb	zero,6040(zero)
800025dc:	80001798 	lb	zero,6040(zero)
800025e0:	80001798 	lb	zero,6040(zero)
800025e4:	80001798 	lb	zero,6040(zero)
800025e8:	80001798 	lb	zero,6040(zero)
800025ec:	80001724 	lb	zero,5924(zero)
800025f0:	80001734 	lb	zero,5940(zero)
800025f4:	80001734 	lb	zero,5940(zero)
800025f8:	80001734 	lb	zero,5940(zero)
800025fc:	80001734 	lb	zero,5940(zero)
80002600:	80001734 	lb	zero,5940(zero)
80002604:	80001734 	lb	zero,5940(zero)
80002608:	80001734 	lb	zero,5940(zero)
8000260c:	80001734 	lb	zero,5940(zero)
80002610:	80001734 	lb	zero,5940(zero)
80002614:	80001798 	lb	zero,6040(zero)
80002618:	80001798 	lb	zero,6040(zero)
8000261c:	80001798 	lb	zero,6040(zero)
80002620:	80001798 	lb	zero,6040(zero)
80002624:	80001798 	lb	zero,6040(zero)
80002628:	80001798 	lb	zero,6040(zero)
8000262c:	80001798 	lb	zero,6040(zero)
80002630:	80001798 	lb	zero,6040(zero)
80002634:	80001798 	lb	zero,6040(zero)
80002638:	80001798 	lb	zero,6040(zero)
8000263c:	80001798 	lb	zero,6040(zero)
80002640:	80001798 	lb	zero,6040(zero)
80002644:	80001798 	lb	zero,6040(zero)
80002648:	80001798 	lb	zero,6040(zero)
8000264c:	80001798 	lb	zero,6040(zero)
80002650:	80001798 	lb	zero,6040(zero)
80002654:	80001798 	lb	zero,6040(zero)
80002658:	80001798 	lb	zero,6040(zero)
8000265c:	80001798 	lb	zero,6040(zero)
80002660:	80001798 	lb	zero,6040(zero)
80002664:	80001798 	lb	zero,6040(zero)
80002668:	80001798 	lb	zero,6040(zero)
8000266c:	80001798 	lb	zero,6040(zero)
80002670:	80001798 	lb	zero,6040(zero)
80002674:	80001798 	lb	zero,6040(zero)
80002678:	80001798 	lb	zero,6040(zero)
8000267c:	80001798 	lb	zero,6040(zero)
80002680:	80001798 	lb	zero,6040(zero)
80002684:	80001798 	lb	zero,6040(zero)
80002688:	80001798 	lb	zero,6040(zero)
8000268c:	80001798 	lb	zero,6040(zero)
80002690:	80001798 	lb	zero,6040(zero)
80002694:	80001798 	lb	zero,6040(zero)
80002698:	80001798 	lb	zero,6040(zero)
8000269c:	80001798 	lb	zero,6040(zero)
800026a0:	80001798 	lb	zero,6040(zero)
800026a4:	80001798 	lb	zero,6040(zero)
800026a8:	80001798 	lb	zero,6040(zero)
800026ac:	80001798 	lb	zero,6040(zero)
800026b0:	80001798 	lb	zero,6040(zero)
800026b4:	800018ac 	lb	zero,6316(zero)
800026b8:	80001890 	lb	zero,6288(zero)
800026bc:	8000186c 	lb	zero,6252(zero)
800026c0:	80001798 	lb	zero,6040(zero)
800026c4:	80001798 	lb	zero,6040(zero)
800026c8:	80001798 	lb	zero,6040(zero)
800026cc:	80001798 	lb	zero,6040(zero)
800026d0:	80001798 	lb	zero,6040(zero)
800026d4:	80001798 	lb	zero,6040(zero)
800026d8:	80001798 	lb	zero,6040(zero)
800026dc:	80001848 	lb	zero,6216(zero)
800026e0:	80001798 	lb	zero,6040(zero)
800026e4:	80001798 	lb	zero,6040(zero)
800026e8:	80001824 	lb	zero,6180(zero)
800026ec:	80001800 	lb	zero,6144(zero)
800026f0:	80001798 	lb	zero,6040(zero)
800026f4:	80001798 	lb	zero,6040(zero)
800026f8:	800017e4 	lb	zero,6116(zero)
800026fc:	80001798 	lb	zero,6040(zero)
80002700:	800017c0 	lb	zero,6080(zero)
80002704:	80001798 	lb	zero,6040(zero)
80002708:	80001798 	lb	zero,6040(zero)
8000270c:	80001800 	lb	zero,6144(zero)
80002710:	636f6c63 	0x636f6c63
80002714:	736e206b 	0x736e206b
80002718:	2c64253d 	sltiu	a0,v1,9533
8000271c:	3d636573 	0x3d636573
80002720:	000a6425 	0xa6425
80002724:	72656854 	0x72656854
80002728:	73692065 	0x73692065
8000272c:	206e6120 	addi	t6,v1,24864
80002730:	65637865 	0x65637865
80002734:	6f697470 	0x6f697470
80002738:	0a21216e 	j	888485b8 <_stack+0x87455d8>
8000273c:	00000000 	nop
80002740:	20656854 	addi	a1,v1,26708
80002744:	20637065 	addi	v1,v1,28773
80002748:	25207369 	addiu	zero,t1,29545
8000274c:	00000a78 	0xa78
80002750:	20656854 	addi	a1,v1,26708
80002754:	73756163 	0x73756163
80002758:	73692065 	0x73692065
8000275c:	0a782520 	j	89e09480 <_stack+0x9d064a0>
80002760:	00000000 	nop
80002764:	b0000702 	0xb0000702
	...
80002780:	00010000 	sll	zero,at,0x0
80002784:	03000001 	0x3000001
	...
