
obj/bubble_sort/main.elf:     file format elf32-tradlittlemips
obj/bubble_sort/main.elf


Disassembly of section .text:

80000000 <_ftext>:
_ftext():
80000000:	3c0a0040 	lui	t2,0x40
80000004:	408a6000 	mtc0	t2,c0_sr
80000008:	40806800 	mtc0	zero,c0_cause
8000000c:	3c1d8010 	lui	sp,0x8010
80000010:	27bd1fe0 	addiu	sp,sp,8160
80000014:	3c1c8001 	lui	gp,0x8001
80000018:	279cbf30 	addiu	gp,gp,-16592
8000001c:	041100dc 	bal	80000390 <shell>
80000020:	00000000 	nop

80000024 <loop>:
loop():
80000024:	3c08bfd0 	lui	t0,0xbfd0
80000028:	8d090500 	lw	t1,1280(t0)
8000002c:	3c0a8000 	lui	t2,0x8000
80000030:	ad490000 	sw	t1,0(t2)
80000034:	08000009 	j	80000024 <loop>
80000038:	00000000 	nop

8000003c <exit>:
exit():
8000003c:	340900ff 	li	t1,0xff
80000040:	3c018000 	lui	at,0x8000
80000044:	a0297ffc 	sb	t1,32764(at)
	...
80000380:	0c000402 	jal	80001008 <exception>
80000384:	00000000 	nop
80000388:	0800000f 	j	8000003c <exit>
8000038c:	00000000 	nop

80000390 <shell>:
shell():
80000390:	27bdffd0 	addiu	sp,sp,-48
80000394:	afbf002c 	sw	ra,44(sp)
80000398:	afb50028 	sw	s5,40(sp)
8000039c:	afb40024 	sw	s4,36(sp)
800003a0:	afb30020 	sw	s3,32(sp)
800003a4:	afb2001c 	sw	s2,28(sp)
800003a8:	afb10018 	sw	s1,24(sp)
800003ac:	afb00014 	sw	s0,20(sp)
800003b0:	0c0003a8 	jal	80000ea0 <get_count>
800003b4:	00000000 	nop
800003b8:	00408025 	move	s0,v0
800003bc:	0c0003ed 	jal	80000fb4 <get_inst>
800003c0:	00000000 	nop
800003c4:	00409025 	move	s2,v0
800003c8:	0c0003e9 	jal	80000fa4 <get_us>
800003cc:	00000000 	nop
800003d0:	3c048000 	lui	a0,0x8000
800003d4:	240503e8 	li	a1,1000
800003d8:	24842fa0 	addiu	a0,a0,12192
800003dc:	00408825 	move	s1,v0
800003e0:	0c00014c 	jal	80000530 <bubble_sort>
800003e4:	00000000 	nop
800003e8:	0040a825 	move	s5,v0
800003ec:	0c0003a8 	jal	80000ea0 <get_count>
800003f0:	00000000 	nop
800003f4:	0040a025 	move	s4,v0
800003f8:	0c0003ed 	jal	80000fb4 <get_inst>
800003fc:	00000000 	nop
80000400:	00409825 	move	s3,v0
80000404:	0c0003e9 	jal	80000fa4 <get_us>
80000408:	00000000 	nop
8000040c:	00518823 	subu	s1,v0,s1
80000410:	3c028000 	lui	v0,0x8000
80000414:	02908023 	subu	s0,s4,s0
80000418:	02729023 	subu	s2,s3,s2
8000041c:	24442000 	addiu	a0,v0,8192
80000420:	26a60fa0 	addiu	a2,s5,4000
80000424:	02a01825 	move	v1,s5
80000428:	8c690000 	lw	t1,0(v1)
8000042c:	8c880000 	lw	t0,0(a0)
80000430:	00000000 	nop
80000434:	15280036 	bne	t1,t0,80000510 <shell+0x180>
80000438:	00000000 	nop
8000043c:	8c650004 	lw	a1,4(v1)
80000440:	8c870004 	lw	a3,4(a0)
80000444:	00000000 	nop
80000448:	14a70031 	bne	a1,a3,80000510 <shell+0x180>
8000044c:	00000000 	nop
80000450:	8c6a0008 	lw	t2,8(v1)
80000454:	8c8b0008 	lw	t3,8(a0)
80000458:	00000000 	nop
8000045c:	154b002c 	bne	t2,t3,80000510 <shell+0x180>
80000460:	00000000 	nop
80000464:	8c6c000c 	lw	t4,12(v1)
80000468:	8c8d000c 	lw	t5,12(a0)
8000046c:	00000000 	nop
80000470:	158d0027 	bne	t4,t5,80000510 <shell+0x180>
80000474:	00000000 	nop
80000478:	8c6e0010 	lw	t6,16(v1)
8000047c:	8c8f0010 	lw	t7,16(a0)
80000480:	00000000 	nop
80000484:	15cf0022 	bne	t6,t7,80000510 <shell+0x180>
80000488:	00000000 	nop
8000048c:	8c780014 	lw	t8,20(v1)
80000490:	8c990014 	lw	t9,20(a0)
80000494:	00000000 	nop
80000498:	1719001d 	bne	t8,t9,80000510 <shell+0x180>
8000049c:	00000000 	nop
800004a0:	8c7f0018 	lw	ra,24(v1)
800004a4:	8c950018 	lw	s5,24(a0)
800004a8:	00000000 	nop
800004ac:	17f50018 	bne	ra,s5,80000510 <shell+0x180>
800004b0:	00000000 	nop
800004b4:	8c74001c 	lw	s4,28(v1)
800004b8:	24840020 	addiu	a0,a0,32
800004bc:	8c93fffc 	lw	s3,-4(a0)
800004c0:	24630020 	addiu	v1,v1,32
800004c4:	16930012 	bne	s4,s3,80000510 <shell+0x180>
800004c8:	00000000 	nop
800004cc:	1466ffd6 	bne	v1,a2,80000428 <shell+0x98>
800004d0:	00000000 	nop
800004d4:	02403825 	move	a3,s2
800004d8:	8fbf002c 	lw	ra,44(sp)
800004dc:	3c128000 	lui	s2,0x8000
800004e0:	8fb50028 	lw	s5,40(sp)
800004e4:	8fb40024 	lw	s4,36(sp)
800004e8:	02203025 	move	a2,s1
800004ec:	8fb30020 	lw	s3,32(sp)
800004f0:	264411a4 	addiu	a0,s2,4516
800004f4:	8fb10018 	lw	s1,24(sp)
800004f8:	02002825 	move	a1,s0
800004fc:	8fb2001c 	lw	s2,28(sp)
80000500:	8fb00014 	lw	s0,20(sp)
80000504:	27bd0030 	addiu	sp,sp,48
80000508:	080002ee 	j	80000bb8 <printf>
8000050c:	00000000 	nop
80000510:	3c028000 	lui	v0,0x8000
80000514:	24441190 	addiu	a0,v0,4496
80000518:	0c0002ee 	jal	80000bb8 <printf>
8000051c:	00000000 	nop
80000520:	1000ffec 	b	800004d4 <shell+0x144>
80000524:	00000000 	nop
	...

80000530 <bubble_sort>:
bubble_sort():
80000530:	04a00110 	bltz	a1,80000974 <bubble_sort+0x444>
80000534:	00000000 	nop
80000538:	24a70001 	addiu	a3,a1,1
8000053c:	8c830000 	lw	v1,0(a0)
80000540:	3c088000 	lui	t0,0x8000
80000544:	00073080 	sll	a2,a3,0x2
80000548:	25023f40 	addiu	v0,t0,16192
8000054c:	24c9fffc 	addiu	t1,a2,-4
80000550:	00865021 	addu	t2,a0,a2
80000554:	ac430000 	sw	v1,0(v0)
80000558:	00095882 	srl	t3,t1,0x2
8000055c:	24830004 	addiu	v1,a0,4
80000560:	316c0007 	andi	t4,t3,0x7
80000564:	24460004 	addiu	a2,v0,4
80000568:	106a004e 	beq	v1,t2,800006a4 <bubble_sort+0x174>
8000056c:	00000000 	nop
80000570:	11800031 	beqz	t4,80000638 <bubble_sort+0x108>
80000574:	00000000 	nop
80000578:	240d0001 	li	t5,1
8000057c:	118d0028 	beq	t4,t5,80000620 <bubble_sort+0xf0>
80000580:	00000000 	nop
80000584:	240e0002 	li	t6,2
80000588:	118e0021 	beq	t4,t6,80000610 <bubble_sort+0xe0>
8000058c:	00000000 	nop
80000590:	240f0003 	li	t7,3
80000594:	118f001a 	beq	t4,t7,80000600 <bubble_sort+0xd0>
80000598:	00000000 	nop
8000059c:	24180004 	li	t8,4
800005a0:	11980013 	beq	t4,t8,800005f0 <bubble_sort+0xc0>
800005a4:	00000000 	nop
800005a8:	24190005 	li	t9,5
800005ac:	1199000c 	beq	t4,t9,800005e0 <bubble_sort+0xb0>
800005b0:	00000000 	nop
800005b4:	24070006 	li	a3,6
800005b8:	11870005 	beq	t4,a3,800005d0 <bubble_sort+0xa0>
800005bc:	00000000 	nop
800005c0:	8c680000 	lw	t0,0(v1)
800005c4:	24830008 	addiu	v1,a0,8
800005c8:	acc80000 	sw	t0,0(a2)
800005cc:	24460008 	addiu	a2,v0,8
800005d0:	8c640000 	lw	a0,0(v1)
800005d4:	24c60004 	addiu	a2,a2,4
800005d8:	24630004 	addiu	v1,v1,4
800005dc:	acc4fffc 	sw	a0,-4(a2)
800005e0:	8c690000 	lw	t1,0(v1)
800005e4:	24c60004 	addiu	a2,a2,4
800005e8:	24630004 	addiu	v1,v1,4
800005ec:	acc9fffc 	sw	t1,-4(a2)
800005f0:	8c6b0000 	lw	t3,0(v1)
800005f4:	24c60004 	addiu	a2,a2,4
800005f8:	24630004 	addiu	v1,v1,4
800005fc:	accbfffc 	sw	t3,-4(a2)
80000600:	8c6c0000 	lw	t4,0(v1)
80000604:	24c60004 	addiu	a2,a2,4
80000608:	24630004 	addiu	v1,v1,4
8000060c:	acccfffc 	sw	t4,-4(a2)
80000610:	8c6d0000 	lw	t5,0(v1)
80000614:	24c60004 	addiu	a2,a2,4
80000618:	24630004 	addiu	v1,v1,4
8000061c:	accdfffc 	sw	t5,-4(a2)
80000620:	8c6e0000 	lw	t6,0(v1)
80000624:	24c60004 	addiu	a2,a2,4
80000628:	24630004 	addiu	v1,v1,4
8000062c:	accefffc 	sw	t6,-4(a2)
80000630:	106a001c 	beq	v1,t2,800006a4 <bubble_sort+0x174>
80000634:	00000000 	nop
80000638:	8c6f0000 	lw	t7,0(v1)
8000063c:	24c60020 	addiu	a2,a2,32
80000640:	24630020 	addiu	v1,v1,32
80000644:	accfffe0 	sw	t7,-32(a2)
80000648:	8c78ffe4 	lw	t8,-28(v1)
8000064c:	00000000 	nop
80000650:	acd8ffe4 	sw	t8,-28(a2)
80000654:	8c79ffe8 	lw	t9,-24(v1)
80000658:	00000000 	nop
8000065c:	acd9ffe8 	sw	t9,-24(a2)
80000660:	8c67ffec 	lw	a3,-20(v1)
80000664:	00000000 	nop
80000668:	acc7ffec 	sw	a3,-20(a2)
8000066c:	8c68fff0 	lw	t0,-16(v1)
80000670:	00000000 	nop
80000674:	acc8fff0 	sw	t0,-16(a2)
80000678:	8c64fff4 	lw	a0,-12(v1)
8000067c:	00000000 	nop
80000680:	acc4fff4 	sw	a0,-12(a2)
80000684:	8c69fff8 	lw	t1,-8(v1)
80000688:	00000000 	nop
8000068c:	acc9fff8 	sw	t1,-8(a2)
80000690:	8c6bfffc 	lw	t3,-4(v1)
80000694:	00000000 	nop
80000698:	accbfffc 	sw	t3,-4(a2)
8000069c:	146affe6 	bne	v1,t2,80000638 <bubble_sort+0x108>
800006a0:	00000000 	nop
800006a4:	24a8ffff 	addiu	t0,a1,-1
800006a8:	2409ffff 	li	t1,-1
800006ac:	18a000af 	blez	a1,8000096c <bubble_sort+0x43c>
800006b0:	00000000 	nop
800006b4:	310c0007 	andi	t4,t0,0x7
800006b8:	00402025 	move	a0,v0
800006bc:	00002825 	move	a1,zero
800006c0:	1180005b 	beqz	t4,80000830 <bubble_sort+0x300>
800006c4:	00000000 	nop
800006c8:	190000a3 	blez	t0,80000958 <bubble_sort+0x428>
800006cc:	00000000 	nop
800006d0:	8c4d0000 	lw	t5,0(v0)
800006d4:	24050001 	li	a1,1
800006d8:	8c4e0004 	lw	t6,4(v0)
800006dc:	00000000 	nop
800006e0:	01cd502a 	slt	t2,t6,t5
800006e4:	11400003 	beqz	t2,800006f4 <bubble_sort+0x1c4>
800006e8:	00000000 	nop
800006ec:	ac4e0000 	sw	t6,0(v0)
800006f0:	ac4d0004 	sw	t5,4(v0)
800006f4:	24030001 	li	v1,1
800006f8:	24840004 	addiu	a0,a0,4
800006fc:	1183004c 	beq	t4,v1,80000830 <bubble_sort+0x300>
80000700:	00000000 	nop
80000704:	24060002 	li	a2,2
80000708:	1186003f 	beq	t4,a2,80000808 <bubble_sort+0x2d8>
8000070c:	00000000 	nop
80000710:	240f0003 	li	t7,3
80000714:	118f0032 	beq	t4,t7,800007e0 <bubble_sort+0x2b0>
80000718:	00000000 	nop
8000071c:	24180004 	li	t8,4
80000720:	11980025 	beq	t4,t8,800007b8 <bubble_sort+0x288>
80000724:	00000000 	nop
80000728:	24190005 	li	t9,5
8000072c:	11990018 	beq	t4,t9,80000790 <bubble_sort+0x260>
80000730:	00000000 	nop
80000734:	24070006 	li	a3,6
80000738:	1187000b 	beq	t4,a3,80000768 <bubble_sort+0x238>
8000073c:	00000000 	nop
80000740:	8c8b0000 	lw	t3,0(a0)
80000744:	24a50001 	addiu	a1,a1,1
80000748:	8c8c0004 	lw	t4,4(a0)
8000074c:	00000000 	nop
80000750:	018b682a 	slt	t5,t4,t3
80000754:	11a00003 	beqz	t5,80000764 <bubble_sort+0x234>
80000758:	00000000 	nop
8000075c:	ac8c0000 	sw	t4,0(a0)
80000760:	ac8b0004 	sw	t3,4(a0)
80000764:	24840004 	addiu	a0,a0,4
80000768:	8c8e0000 	lw	t6,0(a0)
8000076c:	24a50001 	addiu	a1,a1,1
80000770:	8c8a0004 	lw	t2,4(a0)
80000774:	00000000 	nop
80000778:	014e182a 	slt	v1,t2,t6
8000077c:	10600003 	beqz	v1,8000078c <bubble_sort+0x25c>
80000780:	00000000 	nop
80000784:	ac8a0000 	sw	t2,0(a0)
80000788:	ac8e0004 	sw	t6,4(a0)
8000078c:	24840004 	addiu	a0,a0,4
80000790:	8c8f0000 	lw	t7,0(a0)
80000794:	24a50001 	addiu	a1,a1,1
80000798:	8c860004 	lw	a2,4(a0)
8000079c:	00000000 	nop
800007a0:	00cfc02a 	slt	t8,a2,t7
800007a4:	13000003 	beqz	t8,800007b4 <bubble_sort+0x284>
800007a8:	00000000 	nop
800007ac:	ac860000 	sw	a2,0(a0)
800007b0:	ac8f0004 	sw	t7,4(a0)
800007b4:	24840004 	addiu	a0,a0,4
800007b8:	8c990000 	lw	t9,0(a0)
800007bc:	24a50001 	addiu	a1,a1,1
800007c0:	8c8b0004 	lw	t3,4(a0)
800007c4:	00000000 	nop
800007c8:	0179382a 	slt	a3,t3,t9
800007cc:	10e00003 	beqz	a3,800007dc <bubble_sort+0x2ac>
800007d0:	00000000 	nop
800007d4:	ac8b0000 	sw	t3,0(a0)
800007d8:	ac990004 	sw	t9,4(a0)
800007dc:	24840004 	addiu	a0,a0,4
800007e0:	8c8c0000 	lw	t4,0(a0)
800007e4:	24a50001 	addiu	a1,a1,1
800007e8:	8c8d0004 	lw	t5,4(a0)
800007ec:	00000000 	nop
800007f0:	01ac702a 	slt	t6,t5,t4
800007f4:	11c00003 	beqz	t6,80000804 <bubble_sort+0x2d4>
800007f8:	00000000 	nop
800007fc:	ac8d0000 	sw	t5,0(a0)
80000800:	ac8c0004 	sw	t4,4(a0)
80000804:	24840004 	addiu	a0,a0,4
80000808:	8c8a0000 	lw	t2,0(a0)
8000080c:	24a50001 	addiu	a1,a1,1
80000810:	8c830004 	lw	v1,4(a0)
80000814:	00000000 	nop
80000818:	006a782a 	slt	t7,v1,t2
8000081c:	11e00003 	beqz	t7,8000082c <bubble_sort+0x2fc>
80000820:	00000000 	nop
80000824:	ac830000 	sw	v1,0(a0)
80000828:	ac8a0004 	sw	t2,4(a0)
8000082c:	24840004 	addiu	a0,a0,4
80000830:	00a8302a 	slt	a2,a1,t0
80000834:	10c00048 	beqz	a2,80000958 <bubble_sort+0x428>
80000838:	00000000 	nop
8000083c:	8c980000 	lw	t8,0(a0)
80000840:	24a50001 	addiu	a1,a1,1
80000844:	8c990004 	lw	t9,4(a0)
80000848:	00000000 	nop
8000084c:	0338582a 	slt	t3,t9,t8
80000850:	11600003 	beqz	t3,80000860 <bubble_sort+0x330>
80000854:	00000000 	nop
80000858:	ac990000 	sw	t9,0(a0)
8000085c:	ac980004 	sw	t8,4(a0)
80000860:	248c0004 	addiu	t4,a0,4
80000864:	8c8d0004 	lw	t5,4(a0)
80000868:	8d870004 	lw	a3,4(t4)
8000086c:	00000000 	nop
80000870:	00ed702a 	slt	t6,a3,t5
80000874:	11c00003 	beqz	t6,80000884 <bubble_sort+0x354>
80000878:	00000000 	nop
8000087c:	ac870004 	sw	a3,4(a0)
80000880:	ad8d0004 	sw	t5,4(t4)
80000884:	8d840004 	lw	a0,4(t4)
80000888:	8d830008 	lw	v1,8(t4)
8000088c:	00000000 	nop
80000890:	0064502a 	slt	t2,v1,a0
80000894:	11400003 	beqz	t2,800008a4 <bubble_sort+0x374>
80000898:	00000000 	nop
8000089c:	ad830004 	sw	v1,4(t4)
800008a0:	ad840008 	sw	a0,8(t4)
800008a4:	8d8f0008 	lw	t7,8(t4)
800008a8:	8d86000c 	lw	a2,12(t4)
800008ac:	00000000 	nop
800008b0:	00cfc02a 	slt	t8,a2,t7
800008b4:	13000003 	beqz	t8,800008c4 <bubble_sort+0x394>
800008b8:	00000000 	nop
800008bc:	ad860008 	sw	a2,8(t4)
800008c0:	ad8f000c 	sw	t7,12(t4)
800008c4:	8d99000c 	lw	t9,12(t4)
800008c8:	8d8b0010 	lw	t3,16(t4)
800008cc:	00000000 	nop
800008d0:	0179682a 	slt	t5,t3,t9
800008d4:	11a00003 	beqz	t5,800008e4 <bubble_sort+0x3b4>
800008d8:	00000000 	nop
800008dc:	ad8b000c 	sw	t3,12(t4)
800008e0:	ad990010 	sw	t9,16(t4)
800008e4:	8d8e0010 	lw	t6,16(t4)
800008e8:	8d870014 	lw	a3,20(t4)
800008ec:	00000000 	nop
800008f0:	00ee202a 	slt	a0,a3,t6
800008f4:	10800003 	beqz	a0,80000904 <bubble_sort+0x3d4>
800008f8:	00000000 	nop
800008fc:	ad870010 	sw	a3,16(t4)
80000900:	ad8e0014 	sw	t6,20(t4)
80000904:	8d830014 	lw	v1,20(t4)
80000908:	8d8f0018 	lw	t7,24(t4)
8000090c:	00000000 	nop
80000910:	01e3502a 	slt	t2,t7,v1
80000914:	11400003 	beqz	t2,80000924 <bubble_sort+0x3f4>
80000918:	00000000 	nop
8000091c:	ad8f0014 	sw	t7,20(t4)
80000920:	ad830018 	sw	v1,24(t4)
80000924:	8d860018 	lw	a2,24(t4)
80000928:	24a50007 	addiu	a1,a1,7
8000092c:	8d98001c 	lw	t8,28(t4)
80000930:	00000000 	nop
80000934:	0306c82a 	slt	t9,t8,a2
80000938:	13200003 	beqz	t9,80000948 <bubble_sort+0x418>
8000093c:	00000000 	nop
80000940:	ad980018 	sw	t8,24(t4)
80000944:	ad86001c 	sw	a2,28(t4)
80000948:	00a8302a 	slt	a2,a1,t0
8000094c:	2584001c 	addiu	a0,t4,28
80000950:	14c0ffba 	bnez	a2,8000083c <bubble_sort+0x30c>
80000954:	00000000 	nop
80000958:	2508ffff 	addiu	t0,t0,-1
8000095c:	1509ff55 	bne	t0,t1,800006b4 <bubble_sort+0x184>
80000960:	00000000 	nop
80000964:	03e00008 	jr	ra
80000968:	00000000 	nop
8000096c:	03e00008 	jr	ra
80000970:	00000000 	nop
80000974:	3c028000 	lui	v0,0x8000
80000978:	24423f40 	addiu	v0,v0,16192
8000097c:	03e00008 	jr	ra
80000980:	00000000 	nop
	...

80000990 <__divu10>:
__divu10():
80000990:	00041082 	srl	v0,a0,0x2
80000994:	00041842 	srl	v1,a0,0x1
80000998:	24840006 	addiu	a0,a0,6
8000099c:	00621821 	addu	v1,v1,v0
800009a0:	00031102 	srl	v0,v1,0x4
800009a4:	00621821 	addu	v1,v1,v0
800009a8:	00031202 	srl	v0,v1,0x8
800009ac:	00621821 	addu	v1,v1,v0
800009b0:	00031402 	srl	v0,v1,0x10
800009b4:	00621821 	addu	v1,v1,v0
800009b8:	000318c2 	srl	v1,v1,0x3
800009bc:	00031040 	sll	v0,v1,0x1
800009c0:	000328c0 	sll	a1,v1,0x3
800009c4:	00451021 	addu	v0,v0,a1
800009c8:	00821023 	subu	v0,a0,v0
800009cc:	00021102 	srl	v0,v0,0x4
800009d0:	00431021 	addu	v0,v0,v1
800009d4:	03e00008 	jr	ra
800009d8:	00000000 	nop

800009dc <printnum2>:
printnum2():
800009dc:	27bdff90 	addiu	sp,sp,-112
800009e0:	afb0005c 	sw	s0,92(sp)
800009e4:	00808025 	move	s0,a0
800009e8:	afbf006c 	sw	ra,108(sp)
800009ec:	afb30068 	sw	s3,104(sp)
800009f0:	afb20064 	sw	s2,100(sp)
800009f4:	afb10060 	sw	s1,96(sp)
800009f8:	10e00003 	beqz	a3,80000a08 <printnum2+0x2c>
800009fc:	00000000 	nop
80000a00:	04800060 	bltz	a0,80000b84 <printnum2+0x1a8>
80000a04:	00000000 	nop
80000a08:	12000068 	beqz	s0,80000bac <printnum2+0x1d0>
80000a0c:	00000000 	nop
80000a10:	27a40010 	addiu	a0,sp,16
80000a14:	00008825 	move	s1,zero
80000a18:	24080002 	li	t0,2
80000a1c:	24090008 	li	t1,8
80000a20:	240a0010 	li	t2,16
80000a24:	10c80040 	beq	a2,t0,80000b28 <printnum2+0x14c>
80000a28:	00000000 	nop
80000a2c:	00101842 	srl	v1,s0,0x1
80000a30:	10c90042 	beq	a2,t1,80000b3c <printnum2+0x160>
80000a34:	00000000 	nop
80000a38:	00101082 	srl	v0,s0,0x2
80000a3c:	10ca0044 	beq	a2,t2,80000b50 <printnum2+0x174>
80000a40:	00000000 	nop
80000a44:	00621821 	addu	v1,v1,v0
80000a48:	26070006 	addiu	a3,s0,6
80000a4c:	00031102 	srl	v0,v1,0x4
80000a50:	00621821 	addu	v1,v1,v0
80000a54:	00031202 	srl	v0,v1,0x8
80000a58:	00621821 	addu	v1,v1,v0
80000a5c:	00031402 	srl	v0,v1,0x10
80000a60:	00621821 	addu	v1,v1,v0
80000a64:	000318c2 	srl	v1,v1,0x3
80000a68:	00031040 	sll	v0,v1,0x1
80000a6c:	000358c0 	sll	t3,v1,0x3
80000a70:	004b1021 	addu	v0,v0,t3
80000a74:	00e21023 	subu	v0,a3,v0
80000a78:	00021102 	srl	v0,v0,0x4
80000a7c:	00621021 	addu	v0,v1,v0
80000a80:	00021840 	sll	v1,v0,0x1
80000a84:	000238c0 	sll	a3,v0,0x3
80000a88:	00671821 	addu	v1,v1,a3
80000a8c:	02031823 	subu	v1,s0,v1
80000a90:	00408025 	move	s0,v0
80000a94:	a0830000 	sb	v1,0(a0)
80000a98:	26310001 	addiu	s1,s1,1
80000a9c:	24840001 	addiu	a0,a0,1
80000aa0:	1600ffe0 	bnez	s0,80000a24 <printnum2+0x48>
80000aa4:	00000000 	nop
80000aa8:	00b1102a 	slt	v0,a1,s1
80000aac:	10400002 	beqz	v0,80000ab8 <printnum2+0xdc>
80000ab0:	00000000 	nop
80000ab4:	02202825 	move	a1,s1
80000ab8:	10a0002a 	beqz	a1,80000b64 <printnum2+0x188>
80000abc:	00000000 	nop
80000ac0:	27a20010 	addiu	v0,sp,16
80000ac4:	24b0ffff 	addiu	s0,a1,-1
80000ac8:	00459021 	addu	s2,v0,a1
80000acc:	10000008 	b	80000af0 <printnum2+0x114>
80000ad0:	00000000 	nop
80000ad4:	24040030 	li	a0,48
80000ad8:	2610ffff 	addiu	s0,s0,-1
80000adc:	0c00044c 	jal	80001130 <putchar>
80000ae0:	00000000 	nop
80000ae4:	2652ffff 	addiu	s2,s2,-1
80000ae8:	1260001e 	beqz	s3,80000b64 <printnum2+0x188>
80000aec:	00000000 	nop
80000af0:	26020001 	addiu	v0,s0,1
80000af4:	02009825 	move	s3,s0
80000af8:	0222102a 	slt	v0,s1,v0
80000afc:	1440fff5 	bnez	v0,80000ad4 <printnum2+0xf8>
80000b00:	00000000 	nop
80000b04:	8242ffff 	lb	v0,-1(s2)
80000b08:	00000000 	nop
80000b0c:	2843000a 	slti	v1,v0,10
80000b10:	24440057 	addiu	a0,v0,87
80000b14:	1060fff0 	beqz	v1,80000ad8 <printnum2+0xfc>
80000b18:	00000000 	nop
80000b1c:	24440030 	addiu	a0,v0,48
80000b20:	1000ffed 	b	80000ad8 <printnum2+0xfc>
80000b24:	00000000 	nop
80000b28:	32020001 	andi	v0,s0,0x1
80000b2c:	00108042 	srl	s0,s0,0x1
80000b30:	a0820000 	sb	v0,0(a0)
80000b34:	1000ffd8 	b	80000a98 <printnum2+0xbc>
80000b38:	00000000 	nop
80000b3c:	32020007 	andi	v0,s0,0x7
80000b40:	001080c2 	srl	s0,s0,0x3
80000b44:	a0820000 	sb	v0,0(a0)
80000b48:	1000ffd3 	b	80000a98 <printnum2+0xbc>
80000b4c:	00000000 	nop
80000b50:	3202000f 	andi	v0,s0,0xf
80000b54:	00108102 	srl	s0,s0,0x4
80000b58:	a0820000 	sb	v0,0(a0)
80000b5c:	1000ffce 	b	80000a98 <printnum2+0xbc>
80000b60:	00000000 	nop
80000b64:	8fbf006c 	lw	ra,108(sp)
80000b68:	8fb30068 	lw	s3,104(sp)
80000b6c:	8fb20064 	lw	s2,100(sp)
80000b70:	8fb10060 	lw	s1,96(sp)
80000b74:	8fb0005c 	lw	s0,92(sp)
80000b78:	27bd0070 	addiu	sp,sp,112
80000b7c:	03e00008 	jr	ra
80000b80:	00000000 	nop
80000b84:	2404002d 	li	a0,45
80000b88:	afa60054 	sw	a2,84(sp)
80000b8c:	afa50050 	sw	a1,80(sp)
80000b90:	00108023 	negu	s0,s0
80000b94:	0c00044c 	jal	80001130 <putchar>
80000b98:	00000000 	nop
80000b9c:	8fa50050 	lw	a1,80(sp)
80000ba0:	8fa60054 	lw	a2,84(sp)
80000ba4:	1000ff98 	b	80000a08 <printnum2+0x2c>
80000ba8:	00000000 	nop
80000bac:	00008825 	move	s1,zero
80000bb0:	1000ffbd 	b	80000aa8 <printnum2+0xcc>
80000bb4:	00000000 	nop

80000bb8 <printf>:
printf():
80000bb8:	27bdffc8 	addiu	sp,sp,-56
80000bbc:	afbf0034 	sw	ra,52(sp)
80000bc0:	27a2003c 	addiu	v0,sp,60
80000bc4:	afb50030 	sw	s5,48(sp)
80000bc8:	afb4002c 	sw	s4,44(sp)
80000bcc:	afb30028 	sw	s3,40(sp)
80000bd0:	afb20024 	sw	s2,36(sp)
80000bd4:	afb10020 	sw	s1,32(sp)
80000bd8:	afb0001c 	sw	s0,28(sp)
80000bdc:	afa5003c 	sw	a1,60(sp)
80000be0:	afa60040 	sw	a2,64(sp)
80000be4:	afa70044 	sw	a3,68(sp)
80000be8:	afa20010 	sw	v0,16(sp)
80000bec:	80910000 	lb	s1,0(a0)
80000bf0:	00000000 	nop
80000bf4:	12200015 	beqz	s1,80000c4c <printf+0x94>
80000bf8:	00000000 	nop
80000bfc:	3c158000 	lui	s5,0x8000
80000c00:	00008025 	move	s0,zero
80000c04:	24130025 	li	s3,37
80000c08:	26b511d0 	addiu	s5,s5,4560
80000c0c:	0040a025 	move	s4,v0
80000c10:	00809025 	move	s2,a0
80000c14:	12330018 	beq	s1,s3,80000c78 <printf+0xc0>
80000c18:	00000000 	nop
80000c1c:	2402000a 	li	v0,10
80000c20:	12220046 	beq	s1,v0,80000d3c <printf+0x184>
80000c24:	00000000 	nop
80000c28:	02202025 	move	a0,s1
80000c2c:	0c00044c 	jal	80001130 <putchar>
80000c30:	00000000 	nop
80000c34:	26100001 	addiu	s0,s0,1
80000c38:	02501021 	addu	v0,s2,s0
80000c3c:	80510000 	lb	s1,0(v0)
80000c40:	00000000 	nop
80000c44:	1620fff3 	bnez	s1,80000c14 <printf+0x5c>
80000c48:	00000000 	nop
80000c4c:	8fbf0034 	lw	ra,52(sp)
80000c50:	00001025 	move	v0,zero
80000c54:	8fb50030 	lw	s5,48(sp)
80000c58:	8fb4002c 	lw	s4,44(sp)
80000c5c:	8fb30028 	lw	s3,40(sp)
80000c60:	8fb20024 	lw	s2,36(sp)
80000c64:	8fb10020 	lw	s1,32(sp)
80000c68:	8fb0001c 	lw	s0,28(sp)
80000c6c:	27bd0038 	addiu	sp,sp,56
80000c70:	03e00008 	jr	ra
80000c74:	00000000 	nop
80000c78:	02501021 	addu	v0,s2,s0
80000c7c:	24050001 	li	a1,1
80000c80:	80430001 	lb	v1,1(v0)
80000c84:	00000000 	nop
80000c88:	2462ffdb 	addiu	v0,v1,-37
80000c8c:	304200ff 	andi	v0,v0,0xff
80000c90:	2c440054 	sltiu	a0,v0,84
80000c94:	10800024 	beqz	a0,80000d28 <printf+0x170>
80000c98:	00000000 	nop
80000c9c:	00021080 	sll	v0,v0,0x2
80000ca0:	02a21021 	addu	v0,s5,v0
80000ca4:	8c420000 	lw	v0,0(v0)
80000ca8:	00000000 	nop
80000cac:	00400008 	jr	v0
80000cb0:	00000000 	nop
80000cb4:	26100001 	addiu	s0,s0,1
80000cb8:	02501021 	addu	v0,s2,s0
80000cbc:	80430001 	lb	v1,1(v0)
80000cc0:	00000000 	nop
80000cc4:	2462ffcf 	addiu	v0,v1,-49
80000cc8:	304200ff 	andi	v0,v0,0xff
80000ccc:	2c420009 	sltiu	v0,v0,9
80000cd0:	10400069 	beqz	v0,80000e78 <printf+0x2c0>
80000cd4:	00000000 	nop
80000cd8:	02503021 	addu	a2,s2,s0
80000cdc:	00002825 	move	a1,zero
80000ce0:	2467ffd0 	addiu	a3,v1,-48
80000ce4:	80c30002 	lb	v1,2(a2)
80000ce8:	00052040 	sll	a0,a1,0x1
80000cec:	000528c0 	sll	a1,a1,0x3
80000cf0:	2462ffcf 	addiu	v0,v1,-49
80000cf4:	00852821 	addu	a1,a0,a1
80000cf8:	304200ff 	andi	v0,v0,0xff
80000cfc:	2c420009 	sltiu	v0,v0,9
80000d00:	00e52821 	addu	a1,a3,a1
80000d04:	26100001 	addiu	s0,s0,1
80000d08:	24c60001 	addiu	a2,a2,1
80000d0c:	1440fff4 	bnez	v0,80000ce0 <printf+0x128>
80000d10:	00000000 	nop
80000d14:	2462ffdb 	addiu	v0,v1,-37
80000d18:	304200ff 	andi	v0,v0,0xff
80000d1c:	2c440054 	sltiu	a0,v0,84
80000d20:	1480ffde 	bnez	a0,80000c9c <printf+0xe4>
80000d24:	00000000 	nop
80000d28:	24040025 	li	a0,37
80000d2c:	0c00044c 	jal	80001130 <putchar>
80000d30:	00000000 	nop
80000d34:	1000ffbf 	b	80000c34 <printf+0x7c>
80000d38:	00000000 	nop
80000d3c:	2404000d 	li	a0,13
80000d40:	0c00044c 	jal	80001130 <putchar>
80000d44:	00000000 	nop
80000d48:	1000ffb7 	b	80000c28 <printf+0x70>
80000d4c:	00000000 	nop
80000d50:	8e840000 	lw	a0,0(s4)
80000d54:	00003825 	move	a3,zero
80000d58:	2406000a 	li	a2,10
80000d5c:	26940004 	addiu	s4,s4,4
80000d60:	0c000277 	jal	800009dc <printnum2>
80000d64:	00000000 	nop
80000d68:	26100001 	addiu	s0,s0,1
80000d6c:	1000ffb1 	b	80000c34 <printf+0x7c>
80000d70:	00000000 	nop
80000d74:	8e840000 	lw	a0,0(s4)
80000d78:	26100001 	addiu	s0,s0,1
80000d7c:	26940004 	addiu	s4,s4,4
80000d80:	0c000414 	jal	80001050 <putstring>
80000d84:	00000000 	nop
80000d88:	1000ffaa 	b	80000c34 <printf+0x7c>
80000d8c:	00000000 	nop
80000d90:	8e840000 	lw	a0,0(s4)
80000d94:	00003825 	move	a3,zero
80000d98:	24060010 	li	a2,16
80000d9c:	26940004 	addiu	s4,s4,4
80000da0:	0c000277 	jal	800009dc <printnum2>
80000da4:	00000000 	nop
80000da8:	26100001 	addiu	s0,s0,1
80000dac:	1000ffa1 	b	80000c34 <printf+0x7c>
80000db0:	00000000 	nop
80000db4:	8e840000 	lw	a0,0(s4)
80000db8:	00003825 	move	a3,zero
80000dbc:	24060008 	li	a2,8
80000dc0:	26940004 	addiu	s4,s4,4
80000dc4:	0c000277 	jal	800009dc <printnum2>
80000dc8:	00000000 	nop
80000dcc:	26100001 	addiu	s0,s0,1
80000dd0:	1000ff98 	b	80000c34 <printf+0x7c>
80000dd4:	00000000 	nop
80000dd8:	8e840000 	lw	a0,0(s4)
80000ddc:	00003825 	move	a3,zero
80000de0:	2406000a 	li	a2,10
80000de4:	26940004 	addiu	s4,s4,4
80000de8:	0c000277 	jal	800009dc <printnum2>
80000dec:	00000000 	nop
80000df0:	26100002 	addiu	s0,s0,2
80000df4:	1000ff8f 	b	80000c34 <printf+0x7c>
80000df8:	00000000 	nop
80000dfc:	8e840000 	lw	a0,0(s4)
80000e00:	24070001 	li	a3,1
80000e04:	2406000a 	li	a2,10
80000e08:	26940004 	addiu	s4,s4,4
80000e0c:	0c000277 	jal	800009dc <printnum2>
80000e10:	00000000 	nop
80000e14:	26100001 	addiu	s0,s0,1
80000e18:	1000ff86 	b	80000c34 <printf+0x7c>
80000e1c:	00000000 	nop
80000e20:	8e840000 	lw	a0,0(s4)
80000e24:	26100001 	addiu	s0,s0,1
80000e28:	26940004 	addiu	s4,s4,4
80000e2c:	0c00044c 	jal	80001130 <putchar>
80000e30:	00000000 	nop
80000e34:	1000ff7f 	b	80000c34 <printf+0x7c>
80000e38:	00000000 	nop
80000e3c:	8e840000 	lw	a0,0(s4)
80000e40:	00003825 	move	a3,zero
80000e44:	24060002 	li	a2,2
80000e48:	26940004 	addiu	s4,s4,4
80000e4c:	0c000277 	jal	800009dc <printnum2>
80000e50:	00000000 	nop
80000e54:	26100001 	addiu	s0,s0,1
80000e58:	1000ff76 	b	80000c34 <printf+0x7c>
80000e5c:	00000000 	nop
80000e60:	24040025 	li	a0,37
80000e64:	26100001 	addiu	s0,s0,1
80000e68:	0c00044c 	jal	80001130 <putchar>
80000e6c:	00000000 	nop
80000e70:	1000ff70 	b	80000c34 <printf+0x7c>
80000e74:	00000000 	nop
80000e78:	00002825 	move	a1,zero
80000e7c:	1000ff82 	b	80000c88 <printf+0xd0>
80000e80:	00000000 	nop
	...

80000e90 <_get_count>:
_get_count():
80000e90:	3c02bfd0 	lui	v0,0xbfd0
80000e94:	8c420500 	lw	v0,1280(v0)
80000e98:	03e00008 	jr	ra
80000e9c:	00000000 	nop

80000ea0 <get_count>:
get_count():
80000ea0:	3c02bfd0 	lui	v0,0xbfd0
80000ea4:	8c420500 	lw	v0,1280(v0)
80000ea8:	03e00008 	jr	ra
80000eac:	00000000 	nop

80000eb0 <clock_gettime>:
clock_gettime():
80000eb0:	3c02bfd0 	lui	v0,0xbfd0
80000eb4:	27bdffe8 	addiu	sp,sp,-24
80000eb8:	00a05825 	move	t3,a1
80000ebc:	8c4c0500 	lw	t4,1280(v0)
80000ec0:	3c021062 	lui	v0,0x1062
80000ec4:	afbf0014 	sw	ra,20(sp)
80000ec8:	3c048000 	lui	a0,0x8000
80000ecc:	24424dd3 	addiu	v0,v0,19923
80000ed0:	aca00000 	sw	zero,0(a1)
80000ed4:	00003025 	move	a2,zero
80000ed8:	01820019 	multu	t4,v0
80000edc:	000c6040 	sll	t4,t4,0x1
80000ee0:	24841320 	addiu	a0,a0,4896
80000ee4:	00003810 	mfhi	a3
	...
80000ef0:	01820019 	multu	t4,v0
80000ef4:	00002810 	mfhi	a1
80000ef8:	00073982 	srl	a3,a3,0x6
80000efc:	00073840 	sll	a3,a3,0x1
80000f00:	00e20019 	multu	a3,v0
80000f04:	00052982 	srl	a1,a1,0x6
80000f08:	000541c0 	sll	t0,a1,0x7
80000f0c:	00001810 	mfhi	v1
80000f10:	00055080 	sll	t2,a1,0x2
80000f14:	010a5023 	subu	t2,t0,t2
80000f18:	01452821 	addu	a1,t2,a1
80000f1c:	00031982 	srl	v1,v1,0x6
80000f20:	000528c0 	sll	a1,a1,0x3
80000f24:	00620019 	multu	v1,v0
80000f28:	000341c0 	sll	t0,v1,0x7
80000f2c:	00034880 	sll	t1,v1,0x2
80000f30:	01852823 	subu	a1,t4,a1
80000f34:	00001010 	mfhi	v0
80000f38:	01094823 	subu	t1,t0,t1
80000f3c:	ad650004 	sw	a1,4(t3)
80000f40:	01234821 	addu	t1,t1,v1
80000f44:	00021182 	srl	v0,v0,0x6
80000f48:	00025080 	sll	t2,v0,0x2
80000f4c:	000241c0 	sll	t0,v0,0x7
80000f50:	010a4023 	subu	t0,t0,t2
80000f54:	01021021 	addu	v0,t0,v0
80000f58:	000940c0 	sll	t0,t1,0x3
80000f5c:	000210c0 	sll	v0,v0,0x3
80000f60:	00e83823 	subu	a3,a3,t0
80000f64:	00621823 	subu	v1,v1,v0
80000f68:	ad670008 	sw	a3,8(t3)
80000f6c:	ad63000c 	sw	v1,12(t3)
80000f70:	0c0002ee 	jal	80000bb8 <printf>
80000f74:	00000000 	nop
80000f78:	00001025 	move	v0,zero
80000f7c:	8fbf0014 	lw	ra,20(sp)
80000f80:	27bd0018 	addiu	sp,sp,24
80000f84:	03e00008 	jr	ra
80000f88:	00000000 	nop

80000f8c <get_clock>:
get_clock():
80000f8c:	3c02bfd0 	lui	v0,0xbfd0
80000f90:	8c420500 	lw	v0,1280(v0)
80000f94:	00000000 	nop
80000f98:	00021040 	sll	v0,v0,0x1
80000f9c:	03e00008 	jr	ra
80000fa0:	00000000 	nop

80000fa4 <get_us>:
get_us():
80000fa4:	3c02bfd0 	lui	v0,0xbfd0
80000fa8:	8c420600 	lw	v0,1536(v0)
80000fac:	03e00008 	jr	ra
80000fb0:	00000000 	nop

80000fb4 <get_inst>:
get_inst():
80000fb4:	3c02bfd0 	lui	v0,0xbfd0
80000fb8:	8c420700 	lw	v0,1792(v0)
80000fbc:	03e00008 	jr	ra
80000fc0:	00000000 	nop

80000fc4 <get_ns>:
get_ns():
80000fc4:	3c02bfd0 	lui	v0,0xbfd0
80000fc8:	8c440600 	lw	a0,1536(v0)
80000fcc:	00000000 	nop
80000fd0:	00041080 	sll	v0,a0,0x2
80000fd4:	000419c0 	sll	v1,a0,0x7
80000fd8:	00621023 	subu	v0,v1,v0
80000fdc:	00441021 	addu	v0,v0,a0
80000fe0:	000210c0 	sll	v0,v0,0x3
80000fe4:	03e00008 	jr	ra
80000fe8:	00000000 	nop
80000fec:	00000000 	nop

80000ff0 <get_epc>:
get_epc():
80000ff0:	40027000 	mfc0	v0,c0_epc
80000ff4:	03e00008 	jr	ra
80000ff8:	00000000 	nop

80000ffc <get_cause>:
get_cause():
80000ffc:	40026800 	mfc0	v0,c0_cause
80001000:	03e00008 	jr	ra
80001004:	00000000 	nop

80001008 <exception>:
exception():
80001008:	3c048000 	lui	a0,0x8000
8000100c:	27bdffe8 	addiu	sp,sp,-24
80001010:	24841334 	addiu	a0,a0,4916
80001014:	afbf0014 	sw	ra,20(sp)
80001018:	0c0002ee 	jal	80000bb8 <printf>
8000101c:	00000000 	nop
80001020:	3c048000 	lui	a0,0x8000
80001024:	40057000 	mfc0	a1,c0_epc
80001028:	24841350 	addiu	a0,a0,4944
8000102c:	0c0002ee 	jal	80000bb8 <printf>
80001030:	00000000 	nop
80001034:	3c048000 	lui	a0,0x8000
80001038:	8fbf0014 	lw	ra,20(sp)
8000103c:	27bd0018 	addiu	sp,sp,24
80001040:	24841360 	addiu	a0,a0,4960
80001044:	40056800 	mfc0	a1,c0_cause
80001048:	080002ee 	j	80000bb8 <printf>
8000104c:	00000000 	nop

80001050 <putstring>:
putstring():
80001050:	27bdffe0 	addiu	sp,sp,-32
80001054:	afbf001c 	sw	ra,28(sp)
80001058:	afb20018 	sw	s2,24(sp)
8000105c:	afb10014 	sw	s1,20(sp)
80001060:	afb00010 	sw	s0,16(sp)
80001064:	80900000 	lb	s0,0(a0)
80001068:	00000000 	nop
8000106c:	12000019 	beqz	s0,800010d4 <putstring+0x84>
80001070:	00000000 	nop
80001074:	00808825 	move	s1,a0
80001078:	2412000a 	li	s2,10
8000107c:	10000008 	b	800010a0 <putstring+0x50>
80001080:	00000000 	nop
80001084:	02002025 	move	a0,s0
80001088:	0c00044c 	jal	80001130 <putchar>
8000108c:	00000000 	nop
80001090:	82300000 	lb	s0,0(s1)
80001094:	00000000 	nop
80001098:	1200000e 	beqz	s0,800010d4 <putstring+0x84>
8000109c:	00000000 	nop
800010a0:	26310001 	addiu	s1,s1,1
800010a4:	1612fff7 	bne	s0,s2,80001084 <putstring+0x34>
800010a8:	00000000 	nop
800010ac:	2404000d 	li	a0,13
800010b0:	0c00044c 	jal	80001130 <putchar>
800010b4:	00000000 	nop
800010b8:	02002025 	move	a0,s0
800010bc:	0c00044c 	jal	80001130 <putchar>
800010c0:	00000000 	nop
800010c4:	82300000 	lb	s0,0(s1)
800010c8:	00000000 	nop
800010cc:	1600fff4 	bnez	s0,800010a0 <putstring+0x50>
800010d0:	00000000 	nop
800010d4:	8fbf001c 	lw	ra,28(sp)
800010d8:	00001025 	move	v0,zero
800010dc:	8fb20018 	lw	s2,24(sp)
800010e0:	8fb10014 	lw	s1,20(sp)
800010e4:	8fb00010 	lw	s0,16(sp)
800010e8:	27bd0020 	addiu	sp,sp,32
800010ec:	03e00008 	jr	ra
800010f0:	00000000 	nop

800010f4 <puts>:
puts():
800010f4:	27bdffe8 	addiu	sp,sp,-24
800010f8:	afbf0014 	sw	ra,20(sp)
800010fc:	0c000414 	jal	80001050 <putstring>
80001100:	00000000 	nop
80001104:	2404000d 	li	a0,13
80001108:	0c00044c 	jal	80001130 <putchar>
8000110c:	00000000 	nop
80001110:	2404000a 	li	a0,10
80001114:	0c00044c 	jal	80001130 <putchar>
80001118:	00000000 	nop
8000111c:	00001025 	move	v0,zero
80001120:	8fbf0014 	lw	ra,20(sp)
80001124:	27bd0018 	addiu	sp,sp,24
80001128:	03e00008 	jr	ra
8000112c:	00000000 	nop

80001130 <putchar>:
putchar():
80001130:	3c03bfd0 	lui	v1,0xbfd0
80001134:	8c6203fc 	lw	v0,1020(v1)
80001138:	00000000 	nop
8000113c:	30420001 	andi	v0,v0,0x1
80001140:	1040fffb 	beqz	v0,80001130 <putchar>
80001144:	00000000 	nop
80001148:	10800002 	beqz	a0,80001154 <putchar+0x24>
8000114c:	00000000 	nop
80001150:	ac6403f8 	sw	a0,1016(v1)
80001154:	00001025 	move	v0,zero
80001158:	03e00008 	jr	ra
8000115c:	00000000 	nop

80001160 <tgt_putchar>:
tgt_putchar():
80001160:	3c03bfd0 	lui	v1,0xbfd0
80001164:	8c6203fc 	lw	v0,1020(v1)
80001168:	00000000 	nop
8000116c:	30420001 	andi	v0,v0,0x1
80001170:	1040fffb 	beqz	v0,80001160 <tgt_putchar>
80001174:	00000000 	nop
80001178:	10800002 	beqz	a0,80001184 <tgt_putchar+0x24>
8000117c:	00000000 	nop
80001180:	ac6403f8 	sw	a0,1016(v1)
80001184:	03e00008 	jr	ra
80001188:	00000000 	nop
8000118c:	00000000 	nop
80001190:	62627562 	0x62627562
80001194:	7320656c 	0x7320656c
80001198:	2074726f 	addi	s4,v1,29295
8000119c:	4f525245 	c3	0x1525245
800011a0:	00002152 	0x2152
800011a4:	656d6954 	0x656d6954
800011a8:	7525203a 	jalx	849480e8 <_stack+0x4846108>
800011ac:	63796320 	0x63796320
800011b0:	2c73656c 	sltiu	s3,v1,25964
800011b4:	20752520 	addi	s5,v1,9504
800011b8:	202c7375 	addi	t4,at,29557
800011bc:	69207525 	0x69207525
800011c0:	0a74736e 	j	89d1cdb8 <_stack+0x9c1add8>
800011c4:	00000000 	nop
	...
800011d0:	80000e60 	lb	zero,3680(zero)
800011d4:	80000d28 	lb	zero,3368(zero)
800011d8:	80000d28 	lb	zero,3368(zero)
800011dc:	80000d28 	lb	zero,3368(zero)
800011e0:	80000d28 	lb	zero,3368(zero)
800011e4:	80000d28 	lb	zero,3368(zero)
800011e8:	80000d28 	lb	zero,3368(zero)
800011ec:	80000d28 	lb	zero,3368(zero)
800011f0:	80000d28 	lb	zero,3368(zero)
800011f4:	80000d28 	lb	zero,3368(zero)
800011f8:	80000d28 	lb	zero,3368(zero)
800011fc:	80000cb4 	lb	zero,3252(zero)
80001200:	80000cc4 	lb	zero,3268(zero)
80001204:	80000cc4 	lb	zero,3268(zero)
80001208:	80000cc4 	lb	zero,3268(zero)
8000120c:	80000cc4 	lb	zero,3268(zero)
80001210:	80000cc4 	lb	zero,3268(zero)
80001214:	80000cc4 	lb	zero,3268(zero)
80001218:	80000cc4 	lb	zero,3268(zero)
8000121c:	80000cc4 	lb	zero,3268(zero)
80001220:	80000cc4 	lb	zero,3268(zero)
80001224:	80000d28 	lb	zero,3368(zero)
80001228:	80000d28 	lb	zero,3368(zero)
8000122c:	80000d28 	lb	zero,3368(zero)
80001230:	80000d28 	lb	zero,3368(zero)
80001234:	80000d28 	lb	zero,3368(zero)
80001238:	80000d28 	lb	zero,3368(zero)
8000123c:	80000d28 	lb	zero,3368(zero)
80001240:	80000d28 	lb	zero,3368(zero)
80001244:	80000d28 	lb	zero,3368(zero)
80001248:	80000d28 	lb	zero,3368(zero)
8000124c:	80000d28 	lb	zero,3368(zero)
80001250:	80000d28 	lb	zero,3368(zero)
80001254:	80000d28 	lb	zero,3368(zero)
80001258:	80000d28 	lb	zero,3368(zero)
8000125c:	80000d28 	lb	zero,3368(zero)
80001260:	80000d28 	lb	zero,3368(zero)
80001264:	80000d28 	lb	zero,3368(zero)
80001268:	80000d28 	lb	zero,3368(zero)
8000126c:	80000d28 	lb	zero,3368(zero)
80001270:	80000d28 	lb	zero,3368(zero)
80001274:	80000d28 	lb	zero,3368(zero)
80001278:	80000d28 	lb	zero,3368(zero)
8000127c:	80000d28 	lb	zero,3368(zero)
80001280:	80000d28 	lb	zero,3368(zero)
80001284:	80000d28 	lb	zero,3368(zero)
80001288:	80000d28 	lb	zero,3368(zero)
8000128c:	80000d28 	lb	zero,3368(zero)
80001290:	80000d28 	lb	zero,3368(zero)
80001294:	80000d28 	lb	zero,3368(zero)
80001298:	80000d28 	lb	zero,3368(zero)
8000129c:	80000d28 	lb	zero,3368(zero)
800012a0:	80000d28 	lb	zero,3368(zero)
800012a4:	80000d28 	lb	zero,3368(zero)
800012a8:	80000d28 	lb	zero,3368(zero)
800012ac:	80000d28 	lb	zero,3368(zero)
800012b0:	80000d28 	lb	zero,3368(zero)
800012b4:	80000d28 	lb	zero,3368(zero)
800012b8:	80000d28 	lb	zero,3368(zero)
800012bc:	80000d28 	lb	zero,3368(zero)
800012c0:	80000d28 	lb	zero,3368(zero)
800012c4:	80000e3c 	lb	zero,3644(zero)
800012c8:	80000e20 	lb	zero,3616(zero)
800012cc:	80000dfc 	lb	zero,3580(zero)
800012d0:	80000d28 	lb	zero,3368(zero)
800012d4:	80000d28 	lb	zero,3368(zero)
800012d8:	80000d28 	lb	zero,3368(zero)
800012dc:	80000d28 	lb	zero,3368(zero)
800012e0:	80000d28 	lb	zero,3368(zero)
800012e4:	80000d28 	lb	zero,3368(zero)
800012e8:	80000d28 	lb	zero,3368(zero)
800012ec:	80000dd8 	lb	zero,3544(zero)
800012f0:	80000d28 	lb	zero,3368(zero)
800012f4:	80000d28 	lb	zero,3368(zero)
800012f8:	80000db4 	lb	zero,3508(zero)
800012fc:	80000d90 	lb	zero,3472(zero)
80001300:	80000d28 	lb	zero,3368(zero)
80001304:	80000d28 	lb	zero,3368(zero)
80001308:	80000d74 	lb	zero,3444(zero)
8000130c:	80000d28 	lb	zero,3368(zero)
80001310:	80000d50 	lb	zero,3408(zero)
80001314:	80000d28 	lb	zero,3368(zero)
80001318:	80000d28 	lb	zero,3368(zero)
8000131c:	80000d90 	lb	zero,3472(zero)
80001320:	636f6c63 	0x636f6c63
80001324:	736e206b 	0x736e206b
80001328:	2c64253d 	sltiu	a0,v1,9533
8000132c:	3d636573 	0x3d636573
80001330:	000a6425 	0xa6425
80001334:	72656854 	0x72656854
80001338:	73692065 	0x73692065
8000133c:	206e6120 	addi	t6,v1,24864
80001340:	65637865 	0x65637865
80001344:	6f697470 	0x6f697470
80001348:	0a21216e 	j	888485b8 <_stack+0x87465d8>
8000134c:	00000000 	nop
80001350:	20656854 	addi	a1,v1,26708
80001354:	20637065 	addi	v1,v1,28773
80001358:	25207369 	addiu	zero,t1,29545
8000135c:	00000a78 	0xa78
80001360:	20656854 	addi	a1,v1,26708
80001364:	73756163 	0x73756163
80001368:	73692065 	0x73692065
8000136c:	0a782520 	j	89e09480 <_stack+0x9d074a0>
80001370:	00000000 	nop
80001374:	b0000702 	0xb0000702
	...
80001390:	00010000 	sll	zero,at,0x0
80001394:	03000001 	0x3000001
	...
