
obj/sha/main.elf:     file format elf32-tradlittlemips
obj/sha/main.elf


Disassembly of section .text:

80000000 <_ftext>:
_ftext():
80000000:	3c0a0040 	lui	t2,0x40
80000004:	408a6000 	mtc0	t2,c0_sr
80000008:	40806800 	mtc0	zero,c0_cause
8000000c:	3c1d8010 	lui	sp,0x8010
80000010:	27bd4fe0 	addiu	sp,sp,20448
80000014:	3c1c8001 	lui	gp,0x8001
80000018:	279ccff0 	addiu	gp,gp,-12304
8000001c:	041100dc 	bal	80000390 <shell>
80000020:	00000000 	nop

80000024 <loop>:
loop():
80000024:	3c08bfd0 	lui	t0,0xbfd0
80000028:	8d090500 	lw	t1,1280(t0)
8000002c:	3c0a8000 	lui	t2,0x8000
80000030:	ad490000 	sw	t1,0(t2)
80000034:	08000009 	j	80000024 <loop>
80000038:	00000000 	nop

8000003c <exit>:
exit():
8000003c:	340900ff 	li	t1,0xff
80000040:	3c018000 	lui	at,0x8000
80000044:	a0297ffc 	sb	t1,32764(at)
	...
80000380:	0c000d82 	jal	80003608 <exception>
80000384:	00000000 	nop
80000388:	0800000f 	j	8000003c <exit>
8000038c:	00000000 	nop

80000390 <shell>:
shell():
80000390:	27bdffd0 	addiu	sp,sp,-48
80000394:	afbf002c 	sw	ra,44(sp)
80000398:	afb50028 	sw	s5,40(sp)
8000039c:	afb40024 	sw	s4,36(sp)
800003a0:	afb30020 	sw	s3,32(sp)
800003a4:	afb2001c 	sw	s2,28(sp)
800003a8:	afb10018 	sw	s1,24(sp)
800003ac:	afb00014 	sw	s0,20(sp)
800003b0:	0c000d28 	jal	800034a0 <get_count>
800003b4:	00000000 	nop
800003b8:	0040a825 	move	s5,v0
800003bc:	0c000d6d 	jal	800035b4 <get_inst>
800003c0:	00000000 	nop
800003c4:	0040a025 	move	s4,v0
800003c8:	0c000d69 	jal	800035a4 <get_us>
800003cc:	00000000 	nop
800003d0:	00408825 	move	s1,v0
800003d4:	0c000120 	jal	80000480 <sha_driver>
800003d8:	00000000 	nop
800003dc:	00409825 	move	s3,v0
800003e0:	0c000d28 	jal	800034a0 <get_count>
800003e4:	00000000 	nop
800003e8:	00408025 	move	s0,v0
800003ec:	0c000d6d 	jal	800035b4 <get_inst>
800003f0:	00000000 	nop
800003f4:	00409025 	move	s2,v0
800003f8:	0c000d69 	jal	800035a4 <get_us>
800003fc:	00000000 	nop
80000400:	0215a823 	subu	s5,s0,s5
80000404:	00518823 	subu	s1,v0,s1
80000408:	0254a023 	subu	s4,s2,s4
8000040c:	12600014 	beqz	s3,80000460 <shell+0xd0>
80000410:	00000000 	nop
80000414:	3c048000 	lui	a0,0x8000
80000418:	24843e98 	addiu	a0,a0,16024
8000041c:	0c000c6e 	jal	800031b8 <printf>
80000420:	00000000 	nop
80000424:	3c038000 	lui	v1,0x8000
80000428:	8fbf002c 	lw	ra,44(sp)
8000042c:	8fb30020 	lw	s3,32(sp)
80000430:	02803825 	move	a3,s4
80000434:	8fb2001c 	lw	s2,28(sp)
80000438:	02203025 	move	a2,s1
8000043c:	8fb40024 	lw	s4,36(sp)
80000440:	02a02825 	move	a1,s5
80000444:	8fb10018 	lw	s1,24(sp)
80000448:	24643eb0 	addiu	a0,v1,16048
8000044c:	8fb50028 	lw	s5,40(sp)
80000450:	8fb00014 	lw	s0,20(sp)
80000454:	27bd0030 	addiu	sp,sp,48
80000458:	08000c6e 	j	800031b8 <printf>
8000045c:	00000000 	nop
80000460:	3c028000 	lui	v0,0x8000
80000464:	24443e80 	addiu	a0,v0,16000
80000468:	0c000c6e 	jal	800031b8 <printf>
8000046c:	00000000 	nop
80000470:	1000ffec 	b	80000424 <shell+0x94>
80000474:	00000000 	nop
	...

80000480 <sha_driver>:
sha_driver():
80000480:	8f848010 	lw	a0,-32752(gp)
80000484:	27bdff68 	addiu	sp,sp,-152
80000488:	afbf0094 	sw	ra,148(sp)
8000048c:	afb40090 	sw	s4,144(sp)
80000490:	27b40024 	addiu	s4,sp,36
80000494:	afb3008c 	sw	s3,140(sp)
80000498:	3c138000 	lui	s3,0x8000
8000049c:	afb10084 	sw	s1,132(sp)
800004a0:	27b1006c 	addiu	s1,sp,108
800004a4:	afb00080 	sw	s0,128(sp)
800004a8:	26733ed4 	addiu	s3,s3,16084
800004ac:	afb20088 	sw	s2,136(sp)
800004b0:	0c000de4 	jal	80003790 <fopen>
800004b4:	00000000 	nop
800004b8:	27a40010 	addiu	a0,sp,16
800004bc:	00402825 	move	a1,v0
800004c0:	00408025 	move	s0,v0
800004c4:	0c0004e8 	jal	800013a0 <sha_stream>
800004c8:	00000000 	nop
800004cc:	27a40010 	addiu	a0,sp,16
800004d0:	0c000bd0 	jal	80002f40 <sha_print>
800004d4:	00000000 	nop
800004d8:	3c03df19 	lui	v1,0xdf19
800004dc:	3c0a7bec 	lui	t2,0x7bec
800004e0:	3c041a11 	lui	a0,0x1a11
800004e4:	3c067a9c 	lui	a2,0x7a9c
800004e8:	3c08b21f 	lui	t0,0xb21f
800004ec:	24624b3f 	addiu	v0,v1,19263
800004f0:	254b7e97 	addiu	t3,t2,32407
800004f4:	34858e18 	ori	a1,a0,0x8e18
800004f8:	34c7830b 	ori	a3,a2,0x830b
800004fc:	afa20078 	sw	v0,120(sp)
80000500:	350996f1 	ori	t1,t0,0x96f1
80000504:	afa5006c 	sw	a1,108(sp)
80000508:	02002025 	move	a0,s0
8000050c:	afa70070 	sw	a3,112(sp)
80000510:	27b00010 	addiu	s0,sp,16
80000514:	afa90074 	sw	t1,116(sp)
80000518:	afab007c 	sw	t3,124(sp)
8000051c:	0c000e3f 	jal	800038fc <fclose>
80000520:	00000000 	nop
80000524:	8e320000 	lw	s2,0(s1)
80000528:	26100004 	addiu	s0,s0,4
8000052c:	8e05fffc 	lw	a1,-4(s0)
80000530:	02602025 	move	a0,s3
80000534:	26310004 	addiu	s1,s1,4
80000538:	02403025 	move	a2,s2
8000053c:	0c000c6e 	jal	800031b8 <printf>
80000540:	00000000 	nop
80000544:	8e0cfffc 	lw	t4,-4(s0)
80000548:	00000000 	nop
8000054c:	164c0010 	bne	s2,t4,80000590 <sha_driver+0x110>
80000550:	00000000 	nop
80000554:	1614fff3 	bne	s0,s4,80000524 <sha_driver+0xa4>
80000558:	00000000 	nop
8000055c:	8fbf0094 	lw	ra,148(sp)
80000560:	00001025 	move	v0,zero
80000564:	8fb40090 	lw	s4,144(sp)
80000568:	8fb3008c 	lw	s3,140(sp)
8000056c:	8fb20088 	lw	s2,136(sp)
80000570:	8fb10084 	lw	s1,132(sp)
80000574:	8fb00080 	lw	s0,128(sp)
80000578:	27bd0098 	addiu	sp,sp,152
8000057c:	03e00008 	jr	ra
80000580:	00000000 	nop
	...
80000590:	8fbf0094 	lw	ra,148(sp)
80000594:	24020001 	li	v0,1
80000598:	8fb40090 	lw	s4,144(sp)
8000059c:	8fb3008c 	lw	s3,140(sp)
800005a0:	8fb20088 	lw	s2,136(sp)
800005a4:	8fb10084 	lw	s1,132(sp)
800005a8:	8fb00080 	lw	s0,128(sp)
800005ac:	27bd0098 	addiu	sp,sp,152
800005b0:	03e00008 	jr	ra
800005b4:	00000000 	nop
	...

800005c0 <sha_transform>:
sha_transform():
800005c0:	27bdfea0 	addiu	sp,sp,-352
800005c4:	8c990050 	lw	t9,80(a0)
800005c8:	8c980054 	lw	t8,84(a0)
800005cc:	240c0010 	li	t4,16
800005d0:	afb6015c 	sw	s6,348(sp)
800005d4:	27a60020 	addiu	a2,sp,32
800005d8:	afb50158 	sw	s5,344(sp)
800005dc:	240e004f 	li	t6,79
800005e0:	afb40154 	sw	s4,340(sp)
800005e4:	03201025 	move	v0,t9
800005e8:	afb30150 	sw	s3,336(sp)
800005ec:	03002825 	move	a1,t8
800005f0:	afb2014c 	sw	s2,332(sp)
800005f4:	afb10148 	sw	s1,328(sp)
800005f8:	afb00144 	sw	s0,324(sp)
800005fc:	8c950024 	lw	s5,36(a0)
80000600:	8c940028 	lw	s4,40(a0)
80000604:	8c93002c 	lw	s3,44(a0)
80000608:	8c96001c 	lw	s6,28(a0)
8000060c:	02a05825 	move	t3,s5
80000610:	8c920030 	lw	s2,48(a0)
80000614:	02805025 	move	t2,s4
80000618:	8c910034 	lw	s1,52(a0)
8000061c:	02604825 	move	t1,s3
80000620:	8c900038 	lw	s0,56(a0)
80000624:	8c8f0058 	lw	t7,88(a0)
80000628:	02404025 	move	t0,s2
8000062c:	afb60000 	sw	s6,0(sp)
80000630:	02203825 	move	a3,s1
80000634:	afb50008 	sw	s5,8(sp)
80000638:	02006825 	move	t5,s0
8000063c:	afb4000c 	sw	s4,12(sp)
80000640:	01e01825 	move	v1,t7
80000644:	afb30010 	sw	s3,16(sp)
80000648:	afb20014 	sw	s2,20(sp)
8000064c:	afb10018 	sw	s1,24(sp)
80000650:	afb0001c 	sw	s0,28(sp)
80000654:	00e08025 	move	s0,a3
80000658:	8c960020 	lw	s6,32(a0)
8000065c:	01a03825 	move	a3,t5
80000660:	8c95003c 	lw	s5,60(a0)
80000664:	8c940040 	lw	s4,64(a0)
80000668:	8c930044 	lw	s3,68(a0)
8000066c:	afb60004 	sw	s6,4(sp)
80000670:	afb50020 	sw	s5,32(sp)
80000674:	afb40024 	sw	s4,36(sp)
80000678:	afb30028 	sw	s3,40(sp)
8000067c:	afb90034 	sw	t9,52(sp)
80000680:	afb80038 	sw	t8,56(sp)
80000684:	afaf003c 	sw	t7,60(sp)
80000688:	8c920048 	lw	s2,72(a0)
8000068c:	8c91004c 	lw	s1,76(a0)
80000690:	afb2002c 	sw	s2,44(sp)
80000694:	afb10030 	sw	s1,48(sp)
80000698:	8ccd0000 	lw	t5,0(a2)
8000069c:	01625826 	xor	t3,t3,v0
800006a0:	8cd60004 	lw	s6,4(a2)
800006a4:	01455026 	xor	t2,t2,a1
800006a8:	8cd80008 	lw	t8,8(a2)
800006ac:	01234826 	xor	t1,t1,v1
800006b0:	8cc5ffe0 	lw	a1,-32(a2)
800006b4:	016dc826 	xor	t9,t3,t5
800006b8:	8cc3ffe4 	lw	v1,-28(a2)
800006bc:	01567826 	xor	t7,t2,s6
800006c0:	8cc2ffe8 	lw	v0,-24(a2)
800006c4:	0138a826 	xor	s5,t1,t8
800006c8:	8ccb000c 	lw	t3,12(a2)
800006cc:	0325a026 	xor	s4,t9,a1
800006d0:	8cca0010 	lw	t2,16(a2)
800006d4:	01e39826 	xor	s3,t7,v1
800006d8:	8cc90014 	lw	t1,20(a2)
800006dc:	02a29026 	xor	s2,s5,v0
800006e0:	8cd9ffec 	lw	t9,-20(a2)
800006e4:	01144026 	xor	t0,t0,s4
800006e8:	8cc5fff0 	lw	a1,-16(a2)
800006ec:	02138026 	xor	s0,s0,s3
800006f0:	8ccffff4 	lw	t7,-12(a2)
800006f4:	00f23826 	xor	a3,a3,s2
800006f8:	010b8826 	xor	s1,t0,t3
800006fc:	8cc80018 	lw	t0,24(a2)
80000700:	020a1826 	xor	v1,s0,t2
80000704:	8cd0001c 	lw	s0,28(a2)
80000708:	00e91026 	xor	v0,a3,t1
8000070c:	acd30024 	sw	s3,36(a2)
80000710:	0239a826 	xor	s5,s1,t9
80000714:	acd20028 	sw	s2,40(a2)
80000718:	00659826 	xor	s3,v1,a1
8000071c:	acd40020 	sw	s4,32(a2)
80000720:	004f9026 	xor	s2,v0,t7
80000724:	acd5002c 	sw	s5,44(a2)
80000728:	8cc2fff8 	lw	v0,-8(a2)
8000072c:	02803825 	move	a3,s4
80000730:	8cd1fffc 	lw	s1,-4(a2)
80000734:	01b5a026 	xor	s4,t5,s5
80000738:	02d3b026 	xor	s6,s6,s3
8000073c:	acd30030 	sw	s3,48(a2)
80000740:	0312c026 	xor	t8,t8,s2
80000744:	acd20034 	sw	s2,52(a2)
80000748:	03077826 	xor	t7,t8,a3
8000074c:	0288c826 	xor	t9,s4,t0
80000750:	02d02826 	xor	a1,s6,s0
80000754:	25950006 	addiu	s5,t4,6
80000758:	03221026 	xor	v0,t9,v0
8000075c:	00b12826 	xor	a1,a1,s1
80000760:	01ed1826 	xor	v1,t7,t5
80000764:	acc20038 	sw	v0,56(a2)
80000768:	258c0009 	addiu	t4,t4,9
8000076c:	acc5003c 	sw	a1,60(a2)
80000770:	acc30040 	sw	v1,64(a2)
80000774:	24c60024 	addiu	a2,a2,36
80000778:	158effc7 	bne	t4,t6,80000698 <sha_transform+0xd8>
8000077c:	00000000 	nop
80000780:	00157080 	sll	t6,s5,0x2
80000784:	27aa0134 	addiu	t2,sp,308
80000788:	03ae5821 	addu	t3,sp,t6
8000078c:	014b9823 	subu	s3,t2,t3
80000790:	8d72ffec 	lw	s2,-20(t3)
80000794:	25680004 	addiu	t0,t3,4
80000798:	8d690000 	lw	t1,0(t3)
8000079c:	2674fffc 	addiu	s4,s3,-4
800007a0:	8d76ffd4 	lw	s6,-44(t3)
800007a4:	8d67ffcc 	lw	a3,-52(t3)
800007a8:	00148082 	srl	s0,s4,0x2
800007ac:	0249c026 	xor	t8,s2,t1
800007b0:	03167826 	xor	t7,t8,s6
800007b4:	01e78826 	xor	s1,t7,a3
800007b8:	32190007 	andi	t9,s0,0x7
800007bc:	ad71000c 	sw	s1,12(t3)
800007c0:	1148009b 	beq	t2,t0,80000a30 <sha_transform+0x470>
800007c4:	00000000 	nop
800007c8:	13200054 	beqz	t9,8000091c <sha_transform+0x35c>
800007cc:	00000000 	nop
800007d0:	240d0001 	li	t5,1
800007d4:	132d0046 	beq	t9,t5,800008f0 <sha_transform+0x330>
800007d8:	00000000 	nop
800007dc:	24150002 	li	s5,2
800007e0:	1335003a 	beq	t9,s5,800008cc <sha_transform+0x30c>
800007e4:	00000000 	nop
800007e8:	24020003 	li	v0,3
800007ec:	1322002e 	beq	t9,v0,800008a8 <sha_transform+0x2e8>
800007f0:	00000000 	nop
800007f4:	24050004 	li	a1,4
800007f8:	13250022 	beq	t9,a1,80000884 <sha_transform+0x2c4>
800007fc:	00000000 	nop
80000800:	24030005 	li	v1,5
80000804:	13230016 	beq	t9,v1,80000860 <sha_transform+0x2a0>
80000808:	00000000 	nop
8000080c:	240c0006 	li	t4,6
80000810:	132c000a 	beq	t9,t4,8000083c <sha_transform+0x27c>
80000814:	00000000 	nop
80000818:	8d0effec 	lw	t6,-20(t0)
8000081c:	8d130000 	lw	s3,0(t0)
80000820:	8d12ffd4 	lw	s2,-44(t0)
80000824:	8d06ffcc 	lw	a2,-52(t0)
80000828:	01d34826 	xor	t1,t6,s3
8000082c:	0132a026 	xor	s4,t1,s2
80000830:	0286b026 	xor	s6,s4,a2
80000834:	ad16000c 	sw	s6,12(t0)
80000838:	25680008 	addiu	t0,t3,8
8000083c:	8d0bffec 	lw	t3,-20(t0)
80000840:	25080004 	addiu	t0,t0,4
80000844:	8d07fffc 	lw	a3,-4(t0)
80000848:	8d10ffd0 	lw	s0,-48(t0)
8000084c:	8d18ffc8 	lw	t8,-56(t0)
80000850:	01677826 	xor	t7,t3,a3
80000854:	01f08826 	xor	s1,t7,s0
80000858:	0238c826 	xor	t9,s1,t8
8000085c:	ad190008 	sw	t9,8(t0)
80000860:	8d0dffec 	lw	t5,-20(t0)
80000864:	25080004 	addiu	t0,t0,4
80000868:	8d15fffc 	lw	s5,-4(t0)
8000086c:	8d02ffd0 	lw	v0,-48(t0)
80000870:	8d05ffc8 	lw	a1,-56(t0)
80000874:	01b51826 	xor	v1,t5,s5
80000878:	00626026 	xor	t4,v1,v0
8000087c:	01857026 	xor	t6,t4,a1
80000880:	ad0e0008 	sw	t6,8(t0)
80000884:	8d13ffec 	lw	s3,-20(t0)
80000888:	25080004 	addiu	t0,t0,4
8000088c:	8d12fffc 	lw	s2,-4(t0)
80000890:	8d06ffd0 	lw	a2,-48(t0)
80000894:	8d09ffc8 	lw	t1,-56(t0)
80000898:	0272a026 	xor	s4,s3,s2
8000089c:	0286b026 	xor	s6,s4,a2
800008a0:	02c95826 	xor	t3,s6,t1
800008a4:	ad0b0008 	sw	t3,8(t0)
800008a8:	8d07ffec 	lw	a3,-20(t0)
800008ac:	25080004 	addiu	t0,t0,4
800008b0:	8d10fffc 	lw	s0,-4(t0)
800008b4:	8d18ffd0 	lw	t8,-48(t0)
800008b8:	8d0fffc8 	lw	t7,-56(t0)
800008bc:	00f08826 	xor	s1,a3,s0
800008c0:	0238c826 	xor	t9,s1,t8
800008c4:	032f6826 	xor	t5,t9,t7
800008c8:	ad0d0008 	sw	t5,8(t0)
800008cc:	8d15ffec 	lw	s5,-20(t0)
800008d0:	25080004 	addiu	t0,t0,4
800008d4:	8d03fffc 	lw	v1,-4(t0)
800008d8:	8d02ffd0 	lw	v0,-48(t0)
800008dc:	8d05ffc8 	lw	a1,-56(t0)
800008e0:	02a36026 	xor	t4,s5,v1
800008e4:	01827026 	xor	t6,t4,v0
800008e8:	01c59826 	xor	s3,t6,a1
800008ec:	ad130008 	sw	s3,8(t0)
800008f0:	8d12ffec 	lw	s2,-20(t0)
800008f4:	25080004 	addiu	t0,t0,4
800008f8:	8d06fffc 	lw	a2,-4(t0)
800008fc:	8d09ffd0 	lw	t1,-48(t0)
80000900:	8d14ffc8 	lw	s4,-56(t0)
80000904:	0246b026 	xor	s6,s2,a2
80000908:	02c95826 	xor	t3,s6,t1
8000090c:	01743826 	xor	a3,t3,s4
80000910:	ad070008 	sw	a3,8(t0)
80000914:	11480046 	beq	t2,t0,80000a30 <sha_transform+0x470>
80000918:	00000000 	nop
8000091c:	8d10ffec 	lw	s0,-20(t0)
80000920:	25110004 	addiu	s1,t0,4
80000924:	8d190000 	lw	t9,0(t0)
80000928:	25180008 	addiu	t8,t0,8
8000092c:	8d0dffd4 	lw	t5,-44(t0)
80000930:	250f000c 	addiu	t7,t0,12
80000934:	8d15ffcc 	lw	s5,-52(t0)
80000938:	250e0010 	addiu	t6,t0,16
8000093c:	02191826 	xor	v1,s0,t9
80000940:	8d020004 	lw	v0,4(t0)
80000944:	006d2826 	xor	a1,v1,t5
80000948:	8d06fff0 	lw	a2,-16(t0)
8000094c:	00b59826 	xor	s3,a1,s5
80000950:	8d09ffd8 	lw	t1,-40(t0)
80000954:	25120014 	addiu	s2,t0,20
80000958:	ad13000c 	sw	s3,12(t0)
8000095c:	00c25826 	xor	t3,a2,v0
80000960:	8e36ffcc 	lw	s6,-52(s1)
80000964:	01693826 	xor	a3,t3,t1
80000968:	250c0018 	addiu	t4,t0,24
8000096c:	2514001c 	addiu	s4,t0,28
80000970:	00f68026 	xor	s0,a3,s6
80000974:	25080020 	addiu	t0,t0,32
80000978:	ae30000c 	sw	s0,12(s1)
8000097c:	8f19ffec 	lw	t9,-20(t8)
80000980:	8d11ffe8 	lw	s1,-24(t0)
80000984:	8f0dffd4 	lw	t5,-44(t8)
80000988:	8f15ffcc 	lw	s5,-52(t8)
8000098c:	03311826 	xor	v1,t9,s1
80000990:	006d1026 	xor	v0,v1,t5
80000994:	00553026 	xor	a2,v0,s5
80000998:	af06000c 	sw	a2,12(t8)
8000099c:	8df8ffec 	lw	t8,-20(t7)
800009a0:	8de5ffd4 	lw	a1,-44(t7)
800009a4:	8df6ffcc 	lw	s6,-52(t7)
800009a8:	03139826 	xor	s3,t8,s3
800009ac:	02654826 	xor	t1,s3,a1
800009b0:	01365826 	xor	t3,t1,s6
800009b4:	adeb000c 	sw	t3,12(t7)
800009b8:	8dcfffec 	lw	t7,-20(t6)
800009bc:	8dc7ffd4 	lw	a3,-44(t6)
800009c0:	8dd1ffcc 	lw	s1,-52(t6)
800009c4:	01f08026 	xor	s0,t7,s0
800009c8:	0207c826 	xor	t9,s0,a3
800009cc:	03316826 	xor	t5,t9,s1
800009d0:	adcd000c 	sw	t5,12(t6)
800009d4:	8e4effec 	lw	t6,-20(s2)
800009d8:	8e55ffd4 	lw	s5,-44(s2)
800009dc:	8e42ffcc 	lw	v0,-52(s2)
800009e0:	01c61826 	xor	v1,t6,a2
800009e4:	00753026 	xor	a2,v1,s5
800009e8:	00c2c026 	xor	t8,a2,v0
800009ec:	ae58000c 	sw	t8,12(s2)
800009f0:	8d92ffec 	lw	s2,-20(t4)
800009f4:	8d85ffd4 	lw	a1,-44(t4)
800009f8:	8d96ffcc 	lw	s6,-52(t4)
800009fc:	024b9826 	xor	s3,s2,t3
80000a00:	02654826 	xor	t1,s3,a1
80000a04:	01365826 	xor	t3,t1,s6
80000a08:	ad8b000c 	sw	t3,12(t4)
80000a0c:	8e8cffec 	lw	t4,-20(s4)
80000a10:	8e8fffd4 	lw	t7,-44(s4)
80000a14:	8e87ffcc 	lw	a3,-52(s4)
80000a18:	018d8826 	xor	s1,t4,t5
80000a1c:	022f8026 	xor	s0,s1,t7
80000a20:	0207c826 	xor	t9,s0,a3
80000a24:	ae99000c 	sw	t9,12(s4)
80000a28:	1548ffbc 	bne	t2,t0,8000091c <sha_transform+0x35c>
80000a2c:	00000000 	nop
80000a30:	8c8f0000 	lw	t7,0(a0)
80000a34:	3c0a5a82 	lui	t2,0x5a82
80000a38:	8c99000c 	lw	t9,12(a0)
80000a3c:	27b20050 	addiu	s2,sp,80
80000a40:	8c910008 	lw	s1,8(a0)
80000a44:	25537999 	addiu	s3,t2,31129
80000a48:	000f6ec2 	srl	t5,t7,0x1b
80000a4c:	8c980004 	lw	t8,4(a0)
80000a50:	000fa140 	sll	s4,t7,0x5
80000a54:	8fa20000 	lw	v0,0(sp)
80000a58:	02394026 	xor	t0,s1,t9
80000a5c:	8c900010 	lw	s0,16(a0)
80000a60:	028d7025 	or	t6,s4,t5
80000a64:	01d3a821 	addu	s5,t6,s3
80000a68:	01183024 	and	a2,t0,t8
80000a6c:	02a21821 	addu	v1,s5,v0
80000a70:	00d92826 	xor	a1,a2,t9
80000a74:	0065b021 	addu	s6,v1,a1
80000a78:	00184882 	srl	t1,t8,0x2
80000a7c:	00185f80 	sll	t3,t8,0x1e
80000a80:	27ad0004 	addiu	t5,sp,4
80000a84:	01e01825 	move	v1,t7
80000a88:	03205025 	move	t2,t9
80000a8c:	02207025 	move	t6,s1
80000a90:	01695825 	or	t3,t3,t1
80000a94:	02d04021 	addu	t0,s6,s0
80000a98:	1000001c 	b	80000b0c <sha_transform+0x54c>
80000a9c:	00000000 	nop
80000aa0:	00024940 	sll	t1,v0,0x5
80000aa4:	8dac0004 	lw	t4,4(t5)
80000aa8:	00022ec2 	srl	a1,v0,0x1b
80000aac:	8db40008 	lw	s4,8(t5)
80000ab0:	014b1826 	xor	v1,t2,t3
80000ab4:	01253825 	or	a3,t1,a1
80000ab8:	00f3a821 	addu	s5,a3,s3
80000abc:	00684024 	and	t0,v1,t0
80000ac0:	02ac3021 	addu	a2,s5,t4
80000ac4:	010b4826 	xor	t1,t0,t3
80000ac8:	00c96021 	addu	t4,a2,t1
80000acc:	02ca2826 	xor	a1,s6,t2
80000ad0:	018e1821 	addu	v1,t4,t6
80000ad4:	00a27024 	and	t6,a1,v0
80000ad8:	00033940 	sll	a3,v1,0x5
80000adc:	0003aec2 	srl	s5,v1,0x1b
80000ae0:	01ca4026 	xor	t0,t6,t2
80000ae4:	00f53025 	or	a2,a3,s5
80000ae8:	00d34821 	addu	t1,a2,s3
80000aec:	00026082 	srl	t4,v0,0x2
80000af0:	0134a021 	addu	s4,t1,s4
80000af4:	00021780 	sll	v0,v0,0x1e
80000af8:	02882821 	addu	a1,s4,t0
80000afc:	25ad000c 	addiu	t5,t5,12
80000b00:	00ab4021 	addu	t0,a1,t3
80000b04:	02c07025 	move	t6,s6
80000b08:	004c5825 	or	t3,v0,t4
80000b0c:	00083140 	sll	a2,t0,0x5
80000b10:	8db40000 	lw	s4,0(t5)
80000b14:	000866c2 	srl	t4,t0,0x1b
80000b18:	00083882 	srl	a3,t0,0x2
80000b1c:	0008af80 	sll	s5,t0,0x1e
80000b20:	00cc4825 	or	t1,a2,t4
80000b24:	02a7b025 	or	s6,s5,a3
80000b28:	01333821 	addu	a3,t1,s3
80000b2c:	016ea826 	xor	s5,t3,t6
80000b30:	02a36024 	and	t4,s5,v1
80000b34:	00f4a021 	addu	s4,a3,s4
80000b38:	018e3026 	xor	a2,t4,t6
80000b3c:	00034882 	srl	t1,v1,0x2
80000b40:	00033f80 	sll	a3,v1,0x1e
80000b44:	02861021 	addu	v0,s4,a2
80000b48:	25a30004 	addiu	v1,t5,4
80000b4c:	004a1021 	addu	v0,v0,t2
80000b50:	00e95025 	or	t2,a3,t1
80000b54:	1643ffd2 	bne	s2,v1,80000aa0 <sha_transform+0x4e0>
80000b58:	00000000 	nop
80000b5c:	27ac00a0 	addiu	t4,sp,160
80000b60:	3c136ed9 	lui	s3,0x6ed9
80000b64:	0192b023 	subu	s6,t4,s2
80000b68:	3673eba1 	ori	s3,s3,0xeba1
80000b6c:	26c5fffc 	addiu	a1,s6,-4
80000b70:	0005a882 	srl	s5,a1,0x2
80000b74:	32b40001 	andi	s4,s5,0x1
80000b78:	12800023 	beqz	s4,80000c08 <sha_transform+0x648>
80000b7c:	00000000 	nop
80000b80:	00023140 	sll	a2,v0,0x5
80000b84:	8e520000 	lw	s2,0(s2)
80000b88:	00024ec2 	srl	t1,v0,0x1b
80000b8c:	010a3826 	xor	a3,t0,t2
80000b90:	00c91825 	or	v1,a2,t1
80000b94:	0073b021 	addu	s6,v1,s3
80000b98:	00eb2826 	xor	a1,a3,t3
80000b9c:	00b6a821 	addu	s5,a1,s6
80000ba0:	0008a082 	srl	s4,t0,0x2
80000ba4:	02b29021 	addu	s2,s5,s2
80000ba8:	00083780 	sll	a2,t0,0x1e
80000bac:	024e4821 	addu	t1,s2,t6
80000bb0:	00404025 	move	t0,v0
80000bb4:	01607025 	move	t6,t3
80000bb8:	25b20008 	addiu	s2,t5,8
80000bbc:	01405825 	move	t3,t2
80000bc0:	01201025 	move	v0,t1
80000bc4:	00d45025 	or	t2,a2,s4
80000bc8:	1000000f 	b	80000c08 <sha_transform+0x648>
80000bcc:	00000000 	nop
80000bd0:	00083140 	sll	a2,t0,0x5
80000bd4:	8e4d0004 	lw	t5,4(s2)
80000bd8:	00083ec2 	srl	a3,t0,0x1b
80000bdc:	00497026 	xor	t6,v0,t1
80000be0:	00c71025 	or	v0,a2,a3
80000be4:	0053b021 	addu	s6,v0,s3
80000be8:	01ca1826 	xor	v1,t6,t2
80000bec:	0076a821 	addu	s5,v1,s6
80000bf0:	26520008 	addiu	s2,s2,8
80000bf4:	02ad3021 	addu	a2,s5,t5
80000bf8:	01407025 	move	t6,t2
80000bfc:	00cb1021 	addu	v0,a2,t3
80000c00:	00b45025 	or	t2,a1,s4
80000c04:	01205825 	move	t3,t1
80000c08:	0002b140 	sll	s6,v0,0x5
80000c0c:	8e4d0000 	lw	t5,0(s2)
80000c10:	00023ec2 	srl	a3,v0,0x1b
80000c14:	010a1826 	xor	v1,t0,t2
80000c18:	02c7a025 	or	s4,s6,a3
80000c1c:	02933021 	addu	a2,s4,s3
80000c20:	006b4826 	xor	t1,v1,t3
80000c24:	0126b021 	addu	s6,t1,a2
80000c28:	00083882 	srl	a3,t0,0x2
80000c2c:	0008af80 	sll	s5,t0,0x1e
80000c30:	02cd4021 	addu	t0,s6,t5
80000c34:	264d0004 	addiu	t5,s2,4
80000c38:	0002a082 	srl	s4,v0,0x2
80000c3c:	00022f80 	sll	a1,v0,0x1e
80000c40:	010e4021 	addu	t0,t0,t6
80000c44:	02a74825 	or	t1,s5,a3
80000c48:	158dffe1 	bne	t4,t5,80000bd0 <sha_transform+0x610>
80000c4c:	00000000 	nop
80000c50:	27ad00f0 	addiu	t5,sp,240
80000c54:	3c0e8f1b 	lui	t6,0x8f1b
80000c58:	01ac9823 	subu	s3,t5,t4
80000c5c:	35cebcdc 	ori	t6,t6,0xbcdc
80000c60:	2663fffc 	addiu	v1,s3,-4
80000c64:	00033082 	srl	a2,v1,0x2
80000c68:	30d60001 	andi	s6,a2,0x1
80000c6c:	12c00028 	beqz	s6,80000d10 <sha_transform+0x750>
80000c70:	00000000 	nop
80000c74:	00083940 	sll	a3,t0,0x5
80000c78:	8d8c0000 	lw	t4,0(t4)
80000c7c:	0008aec2 	srl	s5,t0,0x1b
80000c80:	012aa025 	or	s4,t1,t2
80000c84:	00f52825 	or	a1,a3,s5
80000c88:	00ae9821 	addu	s3,a1,t6
80000c8c:	012a1824 	and	v1,t1,t2
80000c90:	0282b024 	and	s6,s4,v0
80000c94:	026c3021 	addu	a2,s3,t4
80000c98:	02c33825 	or	a3,s6,v1
80000c9c:	00e66021 	addu	t4,a3,a2
80000ca0:	0002a882 	srl	s5,v0,0x2
80000ca4:	018ba021 	addu	s4,t4,t3
80000ca8:	00022f80 	sll	a1,v0,0x1e
80000cac:	01405825 	move	t3,t2
80000cb0:	01001025 	move	v0,t0
80000cb4:	01205025 	move	t2,t1
80000cb8:	264c0008 	addiu	t4,s2,8
80000cbc:	00b54825 	or	t1,a1,s5
80000cc0:	02804025 	move	t0,s4
80000cc4:	10000012 	b	80000d10 <sha_transform+0x750>
80000cc8:	00000000 	nop
80000ccc:	00000000 	nop
80000cd0:	0002a940 	sll	s5,v0,0x5
80000cd4:	8d940004 	lw	s4,4(t4)
80000cd8:	00022ec2 	srl	a1,v0,0x1b
80000cdc:	02699025 	or	s2,s3,t1
80000ce0:	02a51825 	or	v1,s5,a1
80000ce4:	006eb021 	addu	s6,v1,t6
80000ce8:	02485824 	and	t3,s2,t0
80000cec:	02d4a821 	addu	s5,s6,s4
80000cf0:	02694024 	and	t0,s3,t1
80000cf4:	0168a025 	or	s4,t3,t0
80000cf8:	02952821 	addu	a1,s4,s5
80000cfc:	258c0008 	addiu	t4,t4,8
80000d00:	00aa4021 	addu	t0,a1,t2
80000d04:	01205825 	move	t3,t1
80000d08:	02605025 	move	t2,s3
80000d0c:	00c74825 	or	t1,a2,a3
80000d10:	00089940 	sll	s3,t0,0x5
80000d14:	8d920000 	lw	s2,0(t4)
80000d18:	0008b6c2 	srl	s6,t0,0x1b
80000d1c:	012a3825 	or	a3,t1,t2
80000d20:	0276a825 	or	s5,s3,s6
80000d24:	02aea021 	addu	s4,s5,t6
80000d28:	00e22824 	and	a1,a3,v0
80000d2c:	012a9824 	and	s3,t1,t2
80000d30:	02929021 	addu	s2,s4,s2
80000d34:	00b3b025 	or	s6,a1,s3
80000d38:	0002a882 	srl	s5,v0,0x2
80000d3c:	0002a780 	sll	s4,v0,0x1e
80000d40:	25830004 	addiu	v1,t4,4
80000d44:	02d21021 	addu	v0,s6,s2
80000d48:	00083882 	srl	a3,t0,0x2
80000d4c:	00083780 	sll	a2,t0,0x1e
80000d50:	004b1021 	addu	v0,v0,t3
80000d54:	02959825 	or	s3,s4,s5
80000d58:	15a3ffdd 	bne	t5,v1,80000cd0 <sha_transform+0x710>
80000d5c:	00000000 	nop
80000d60:	27b20140 	addiu	s2,sp,320
80000d64:	3c0eca62 	lui	t6,0xca62
80000d68:	024d5823 	subu	t3,s2,t5
80000d6c:	35cec1d6 	ori	t6,t6,0xc1d6
80000d70:	2565fffc 	addiu	a1,t3,-4
80000d74:	0005b082 	srl	s6,a1,0x2
80000d78:	32d50001 	andi	s5,s6,0x1
80000d7c:	12a00026 	beqz	s5,80000e18 <sha_transform+0x858>
80000d80:	00000000 	nop
80000d84:	0002a140 	sll	s4,v0,0x5
80000d88:	8dad0000 	lw	t5,0(t5)
80000d8c:	00021ec2 	srl	v1,v0,0x1b
80000d90:	01133826 	xor	a3,t0,s3
80000d94:	02833025 	or	a2,s4,v1
80000d98:	00ce5821 	addu	t3,a2,t6
80000d9c:	00e92826 	xor	a1,a3,t1
80000da0:	00abb021 	addu	s6,a1,t3
80000da4:	0008a882 	srl	s5,t0,0x2
80000da8:	02cda021 	addu	s4,s6,t5
80000dac:	00083f80 	sll	a3,t0,0x1e
80000db0:	028a1821 	addu	v1,s4,t2
80000db4:	00404025 	move	t0,v0
80000db8:	01205025 	move	t2,t1
80000dbc:	258d0008 	addiu	t5,t4,8
80000dc0:	02604825 	move	t1,s3
80000dc4:	00601025 	move	v0,v1
80000dc8:	00f59825 	or	s3,a3,s5
80000dcc:	10000012 	b	80000e18 <sha_transform+0x858>
80000dd0:	00000000 	nop
	...
80000de0:	00083940 	sll	a3,t0,0x5
80000de4:	8daa0004 	lw	t2,4(t5)
80000de8:	000836c2 	srl	a2,t0,0x1b
80000dec:	00541826 	xor	v1,v0,s4
80000df0:	00e61025 	or	v0,a3,a2
80000df4:	004eb021 	addu	s6,v0,t6
80000df8:	00735826 	xor	t3,v1,s3
80000dfc:	01766021 	addu	t4,t3,s6
80000e00:	25ad0008 	addiu	t5,t5,8
80000e04:	018a3821 	addu	a3,t4,t2
80000e08:	02605025 	move	t2,s3
80000e0c:	00e91021 	addu	v0,a3,t1
80000e10:	00b59825 	or	s3,a1,s5
80000e14:	02804825 	move	t1,s4
80000e18:	00023140 	sll	a2,v0,0x5
80000e1c:	8dac0000 	lw	t4,0(t5)
80000e20:	00025ec2 	srl	t3,v0,0x1b
80000e24:	0113b026 	xor	s6,t0,s3
80000e28:	00cba025 	or	s4,a2,t3
80000e2c:	028e3821 	addu	a3,s4,t6
80000e30:	02c91826 	xor	v1,s6,t1
80000e34:	00673021 	addu	a2,v1,a3
80000e38:	0008b082 	srl	s6,t0,0x2
80000e3c:	00085f80 	sll	t3,t0,0x1e
80000e40:	00cc4021 	addu	t0,a2,t4
80000e44:	25ac0004 	addiu	t4,t5,4
80000e48:	0002a882 	srl	s5,v0,0x2
80000e4c:	00022f80 	sll	a1,v0,0x1e
80000e50:	010a4021 	addu	t0,t0,t2
80000e54:	0176a025 	or	s4,t3,s6
80000e58:	164cffe1 	bne	s2,t4,80000de0 <sha_transform+0x820>
80000e5c:	00000000 	nop
80000e60:	02348821 	addu	s1,s1,s4
80000e64:	8fb6015c 	lw	s6,348(sp)
80000e68:	0333c821 	addu	t9,t9,s3
80000e6c:	8fb50158 	lw	s5,344(sp)
80000e70:	02098021 	addu	s0,s0,t1
80000e74:	8fb40154 	lw	s4,340(sp)
80000e78:	01e87821 	addu	t7,t7,t0
80000e7c:	8fb30150 	lw	s3,336(sp)
80000e80:	0302c021 	addu	t8,t8,v0
80000e84:	8fb2014c 	lw	s2,332(sp)
80000e88:	ac910008 	sw	s1,8(a0)
80000e8c:	ac900010 	sw	s0,16(a0)
80000e90:	ac8f0000 	sw	t7,0(a0)
80000e94:	ac980004 	sw	t8,4(a0)
80000e98:	ac99000c 	sw	t9,12(a0)
80000e9c:	8fb10148 	lw	s1,328(sp)
80000ea0:	8fb00144 	lw	s0,324(sp)
80000ea4:	27bd0160 	addiu	sp,sp,352
80000ea8:	03e00008 	jr	ra
80000eac:	00000000 	nop

80000eb0 <sha_init>:
sha_init():
80000eb0:	3c026745 	lui	v0,0x6745
80000eb4:	ac800014 	sw	zero,20(a0)
80000eb8:	3c091032 	lui	t1,0x1032
80000ebc:	ac800018 	sw	zero,24(a0)
80000ec0:	3c05efcd 	lui	a1,0xefcd
80000ec4:	3c0798ba 	lui	a3,0x98ba
80000ec8:	3c0bc3d2 	lui	t3,0xc3d2
80000ecc:	24432301 	addiu	v1,v0,8961
80000ed0:	252a5476 	addiu	t2,t1,21622
80000ed4:	34a6ab89 	ori	a2,a1,0xab89
80000ed8:	34e8dcfe 	ori	t0,a3,0xdcfe
80000edc:	ac830000 	sw	v1,0(a0)
80000ee0:	356ce1f0 	ori	t4,t3,0xe1f0
80000ee4:	ac860004 	sw	a2,4(a0)
80000ee8:	ac880008 	sw	t0,8(a0)
80000eec:	ac8a000c 	sw	t2,12(a0)
80000ef0:	ac8c0010 	sw	t4,16(a0)
80000ef4:	03e00008 	jr	ra
80000ef8:	00000000 	nop
80000efc:	00000000 	nop

80000f00 <sha_update>:
sha_update():
80000f00:	8c820014 	lw	v0,20(a0)
80000f04:	27bdffd0 	addiu	sp,sp,-48
80000f08:	000618c0 	sll	v1,a2,0x3
80000f0c:	afb60028 	sw	s6,40(sp)
80000f10:	00a0b025 	move	s6,a1
80000f14:	00622821 	addu	a1,v1,v0
80000f18:	afb10014 	sw	s1,20(sp)
80000f1c:	00808825 	move	s1,a0
80000f20:	afb40020 	sw	s4,32(sp)
80000f24:	00a2202b 	sltu	a0,a1,v0
80000f28:	afbf002c 	sw	ra,44(sp)
80000f2c:	afb50024 	sw	s5,36(sp)
80000f30:	00c0a025 	move	s4,a2
80000f34:	afb3001c 	sw	s3,28(sp)
80000f38:	afb20018 	sw	s2,24(sp)
80000f3c:	afb00010 	sw	s0,16(sp)
80000f40:	148000cf 	bnez	a0,80001280 <sha_update+0x380>
80000f44:	00000000 	nop
80000f48:	8e270018 	lw	a3,24(s1)
80000f4c:	00144742 	srl	t0,s4,0x1d
80000f50:	ae250014 	sw	a1,20(s1)
80000f54:	2a890040 	slti	t1,s4,64
80000f58:	01075021 	addu	t2,t0,a3
80000f5c:	ae2a0018 	sw	t2,24(s1)
80000f60:	152000cf 	bnez	t1,800012a0 <sha_update+0x3a0>
80000f64:	00000000 	nop
80000f68:	2633001c 	addiu	s3,s1,28
80000f6c:	2692ffc0 	addiu	s2,s4,-64
80000f70:	24060040 	li	a2,64
80000f74:	02c02825 	move	a1,s6
80000f78:	02602025 	move	a0,s3
80000f7c:	0c000f4b 	jal	80003d2c <memcpy>
80000f80:	00000000 	nop
80000f84:	0012a982 	srl	s5,s2,0x6
80000f88:	02202025 	move	a0,s1
80000f8c:	0c000170 	jal	800005c0 <sha_transform>
80000f90:	00000000 	nop
80000f94:	2a4c0040 	slti	t4,s2,64
80000f98:	32b50007 	andi	s5,s5,0x7
80000f9c:	26d00040 	addiu	s0,s6,64
80000fa0:	158000a3 	bnez	t4,80001230 <sha_update+0x330>
80000fa4:	00000000 	nop
80000fa8:	12a0005c 	beqz	s5,8000111c <sha_update+0x21c>
80000fac:	00000000 	nop
80000fb0:	240d0001 	li	t5,1
80000fb4:	12ad004c 	beq	s5,t5,800010e8 <sha_update+0x1e8>
80000fb8:	00000000 	nop
80000fbc:	240e0002 	li	t6,2
80000fc0:	12ae003f 	beq	s5,t6,800010c0 <sha_update+0x1c0>
80000fc4:	00000000 	nop
80000fc8:	240f0003 	li	t7,3
80000fcc:	12af0032 	beq	s5,t7,80001098 <sha_update+0x198>
80000fd0:	00000000 	nop
80000fd4:	24180004 	li	t8,4
80000fd8:	12b80025 	beq	s5,t8,80001070 <sha_update+0x170>
80000fdc:	00000000 	nop
80000fe0:	24190005 	li	t9,5
80000fe4:	12b90018 	beq	s5,t9,80001048 <sha_update+0x148>
80000fe8:	00000000 	nop
80000fec:	241f0006 	li	ra,6
80000ff0:	12bf000b 	beq	s5,ra,80001020 <sha_update+0x120>
80000ff4:	00000000 	nop
80000ff8:	24060040 	li	a2,64
80000ffc:	02002825 	move	a1,s0
80001000:	02602025 	move	a0,s3
80001004:	0c000f4b 	jal	80003d2c <memcpy>
80001008:	00000000 	nop
8000100c:	26d00080 	addiu	s0,s6,128
80001010:	02202025 	move	a0,s1
80001014:	2692ff80 	addiu	s2,s4,-128
80001018:	0c000170 	jal	800005c0 <sha_transform>
8000101c:	00000000 	nop
80001020:	24060040 	li	a2,64
80001024:	02002825 	move	a1,s0
80001028:	02602025 	move	a0,s3
8000102c:	0c000f4b 	jal	80003d2c <memcpy>
80001030:	00000000 	nop
80001034:	26100040 	addiu	s0,s0,64
80001038:	02202025 	move	a0,s1
8000103c:	2652ffc0 	addiu	s2,s2,-64
80001040:	0c000170 	jal	800005c0 <sha_transform>
80001044:	00000000 	nop
80001048:	24060040 	li	a2,64
8000104c:	02002825 	move	a1,s0
80001050:	02602025 	move	a0,s3
80001054:	0c000f4b 	jal	80003d2c <memcpy>
80001058:	00000000 	nop
8000105c:	26100040 	addiu	s0,s0,64
80001060:	02202025 	move	a0,s1
80001064:	2652ffc0 	addiu	s2,s2,-64
80001068:	0c000170 	jal	800005c0 <sha_transform>
8000106c:	00000000 	nop
80001070:	24060040 	li	a2,64
80001074:	02002825 	move	a1,s0
80001078:	02602025 	move	a0,s3
8000107c:	0c000f4b 	jal	80003d2c <memcpy>
80001080:	00000000 	nop
80001084:	26100040 	addiu	s0,s0,64
80001088:	02202025 	move	a0,s1
8000108c:	2652ffc0 	addiu	s2,s2,-64
80001090:	0c000170 	jal	800005c0 <sha_transform>
80001094:	00000000 	nop
80001098:	24060040 	li	a2,64
8000109c:	02002825 	move	a1,s0
800010a0:	02602025 	move	a0,s3
800010a4:	0c000f4b 	jal	80003d2c <memcpy>
800010a8:	00000000 	nop
800010ac:	26100040 	addiu	s0,s0,64
800010b0:	02202025 	move	a0,s1
800010b4:	2652ffc0 	addiu	s2,s2,-64
800010b8:	0c000170 	jal	800005c0 <sha_transform>
800010bc:	00000000 	nop
800010c0:	24060040 	li	a2,64
800010c4:	02002825 	move	a1,s0
800010c8:	02602025 	move	a0,s3
800010cc:	0c000f4b 	jal	80003d2c <memcpy>
800010d0:	00000000 	nop
800010d4:	26100040 	addiu	s0,s0,64
800010d8:	02202025 	move	a0,s1
800010dc:	2652ffc0 	addiu	s2,s2,-64
800010e0:	0c000170 	jal	800005c0 <sha_transform>
800010e4:	00000000 	nop
800010e8:	24060040 	li	a2,64
800010ec:	02002825 	move	a1,s0
800010f0:	02602025 	move	a0,s3
800010f4:	2652ffc0 	addiu	s2,s2,-64
800010f8:	0c000f4b 	jal	80003d2c <memcpy>
800010fc:	00000000 	nop
80001100:	02202025 	move	a0,s1
80001104:	0c000170 	jal	800005c0 <sha_transform>
80001108:	00000000 	nop
8000110c:	2a420040 	slti	v0,s2,64
80001110:	26100040 	addiu	s0,s0,64
80001114:	14400046 	bnez	v0,80001230 <sha_update+0x330>
80001118:	00000000 	nop
8000111c:	24060040 	li	a2,64
80001120:	02002825 	move	a1,s0
80001124:	02602025 	move	a0,s3
80001128:	0c000f4b 	jal	80003d2c <memcpy>
8000112c:	00000000 	nop
80001130:	02202025 	move	a0,s1
80001134:	0c000170 	jal	800005c0 <sha_transform>
80001138:	00000000 	nop
8000113c:	26050040 	addiu	a1,s0,64
80001140:	24060040 	li	a2,64
80001144:	02602025 	move	a0,s3
80001148:	0c000f4b 	jal	80003d2c <memcpy>
8000114c:	00000000 	nop
80001150:	02202025 	move	a0,s1
80001154:	0c000170 	jal	800005c0 <sha_transform>
80001158:	00000000 	nop
8000115c:	26050080 	addiu	a1,s0,128
80001160:	24060040 	li	a2,64
80001164:	02602025 	move	a0,s3
80001168:	0c000f4b 	jal	80003d2c <memcpy>
8000116c:	00000000 	nop
80001170:	02202025 	move	a0,s1
80001174:	0c000170 	jal	800005c0 <sha_transform>
80001178:	00000000 	nop
8000117c:	260500c0 	addiu	a1,s0,192
80001180:	24060040 	li	a2,64
80001184:	02602025 	move	a0,s3
80001188:	0c000f4b 	jal	80003d2c <memcpy>
8000118c:	00000000 	nop
80001190:	02202025 	move	a0,s1
80001194:	0c000170 	jal	800005c0 <sha_transform>
80001198:	00000000 	nop
8000119c:	26050100 	addiu	a1,s0,256
800011a0:	24060040 	li	a2,64
800011a4:	02602025 	move	a0,s3
800011a8:	0c000f4b 	jal	80003d2c <memcpy>
800011ac:	00000000 	nop
800011b0:	02202025 	move	a0,s1
800011b4:	0c000170 	jal	800005c0 <sha_transform>
800011b8:	00000000 	nop
800011bc:	26050140 	addiu	a1,s0,320
800011c0:	24060040 	li	a2,64
800011c4:	02602025 	move	a0,s3
800011c8:	0c000f4b 	jal	80003d2c <memcpy>
800011cc:	00000000 	nop
800011d0:	02202025 	move	a0,s1
800011d4:	0c000170 	jal	800005c0 <sha_transform>
800011d8:	00000000 	nop
800011dc:	26050180 	addiu	a1,s0,384
800011e0:	24060040 	li	a2,64
800011e4:	02602025 	move	a0,s3
800011e8:	0c000f4b 	jal	80003d2c <memcpy>
800011ec:	00000000 	nop
800011f0:	02202025 	move	a0,s1
800011f4:	0c000170 	jal	800005c0 <sha_transform>
800011f8:	00000000 	nop
800011fc:	260501c0 	addiu	a1,s0,448
80001200:	24060040 	li	a2,64
80001204:	02602025 	move	a0,s3
80001208:	2652fe00 	addiu	s2,s2,-512
8000120c:	0c000f4b 	jal	80003d2c <memcpy>
80001210:	00000000 	nop
80001214:	02202025 	move	a0,s1
80001218:	0c000170 	jal	800005c0 <sha_transform>
8000121c:	00000000 	nop
80001220:	2a430040 	slti	v1,s2,64
80001224:	26100200 	addiu	s0,s0,512
80001228:	1060ffbc 	beqz	v1,8000111c <sha_update+0x21c>
8000122c:	00000000 	nop
80001230:	2691ffc0 	addiu	s1,s4,-64
80001234:	00112982 	srl	a1,s1,0x6
80001238:	24a40001 	addiu	a0,a1,1
8000123c:	00053180 	sll	a2,a1,0x6
80001240:	00043980 	sll	a3,a0,0x6
80001244:	02263023 	subu	a2,s1,a2
80001248:	02c7b021 	addu	s6,s6,a3
8000124c:	8fbf002c 	lw	ra,44(sp)
80001250:	02c02825 	move	a1,s6
80001254:	8fb50024 	lw	s5,36(sp)
80001258:	02602025 	move	a0,s3
8000125c:	8fb60028 	lw	s6,40(sp)
80001260:	8fb40020 	lw	s4,32(sp)
80001264:	8fb3001c 	lw	s3,28(sp)
80001268:	8fb20018 	lw	s2,24(sp)
8000126c:	8fb10014 	lw	s1,20(sp)
80001270:	8fb00010 	lw	s0,16(sp)
80001274:	27bd0030 	addiu	sp,sp,48
80001278:	08000f4b 	j	80003d2c <memcpy>
8000127c:	00000000 	nop
80001280:	8e260018 	lw	a2,24(s1)
80001284:	00000000 	nop
80001288:	24c70001 	addiu	a3,a2,1
8000128c:	1000ff2f 	b	80000f4c <sha_update+0x4c>
80001290:	00000000 	nop
	...
800012a0:	2633001c 	addiu	s3,s1,28
800012a4:	02803025 	move	a2,s4
800012a8:	1000ffe8 	b	8000124c <sha_update+0x34c>
800012ac:	00000000 	nop

800012b0 <sha_final>:
sha_final():
800012b0:	27bdffd8 	addiu	sp,sp,-40
800012b4:	2405ff80 	li	a1,-128
800012b8:	afb2001c 	sw	s2,28(sp)
800012bc:	8c920014 	lw	s2,20(a0)
800012c0:	afb10018 	sw	s1,24(sp)
800012c4:	2491001c 	addiu	s1,a0,28
800012c8:	afb30020 	sw	s3,32(sp)
800012cc:	001210c2 	srl	v0,s2,0x3
800012d0:	afb00014 	sw	s0,20(sp)
800012d4:	afbf0024 	sw	ra,36(sp)
800012d8:	00808025 	move	s0,a0
800012dc:	3043003f 	andi	v1,v0,0x3f
800012e0:	8c930018 	lw	s3,24(a0)
800012e4:	24640001 	addiu	a0,v1,1
800012e8:	02233021 	addu	a2,s1,v1
800012ec:	28870039 	slti	a3,a0,57
800012f0:	a0c50000 	sb	a1,0(a2)
800012f4:	00002825 	move	a1,zero
800012f8:	10e00011 	beqz	a3,80001340 <sha_final+0x90>
800012fc:	00000000 	nop
80001300:	24080038 	li	t0,56
80001304:	01043023 	subu	a2,t0,a0
80001308:	02242021 	addu	a0,s1,a0
8000130c:	0c000f3e 	jal	80003cf8 <memset>
80001310:	00000000 	nop
80001314:	02002025 	move	a0,s0
80001318:	8fbf0024 	lw	ra,36(sp)
8000131c:	8fb10018 	lw	s1,24(sp)
80001320:	ae130054 	sw	s3,84(s0)
80001324:	ae120058 	sw	s2,88(s0)
80001328:	8fb30020 	lw	s3,32(sp)
8000132c:	8fb2001c 	lw	s2,28(sp)
80001330:	8fb00014 	lw	s0,20(sp)
80001334:	27bd0028 	addiu	sp,sp,40
80001338:	08000170 	j	800005c0 <sha_transform>
8000133c:	00000000 	nop
80001340:	24090040 	li	t1,64
80001344:	01243023 	subu	a2,t1,a0
80001348:	02242021 	addu	a0,s1,a0
8000134c:	0c000f3e 	jal	80003cf8 <memset>
80001350:	00000000 	nop
80001354:	02002025 	move	a0,s0
80001358:	0c000170 	jal	800005c0 <sha_transform>
8000135c:	00000000 	nop
80001360:	24060038 	li	a2,56
80001364:	00002825 	move	a1,zero
80001368:	02202025 	move	a0,s1
8000136c:	0c000f3e 	jal	80003cf8 <memset>
80001370:	00000000 	nop
80001374:	02002025 	move	a0,s0
80001378:	8fbf0024 	lw	ra,36(sp)
8000137c:	8fb10018 	lw	s1,24(sp)
80001380:	ae130054 	sw	s3,84(s0)
80001384:	ae120058 	sw	s2,88(s0)
80001388:	8fb30020 	lw	s3,32(sp)
8000138c:	8fb2001c 	lw	s2,28(sp)
80001390:	8fb00014 	lw	s0,20(sp)
80001394:	27bd0028 	addiu	sp,sp,40
80001398:	08000170 	j	800005c0 <sha_transform>
8000139c:	00000000 	nop

800013a0 <sha_stream>:
sha_stream():
800013a0:	27bdfc70 	addiu	sp,sp,-912
800013a4:	afb1036c 	sw	s1,876(sp)
800013a8:	00808825 	move	s1,a0
800013ac:	2622001c 	addiu	v0,s1,28
800013b0:	afbf038c 	sw	ra,908(sp)
800013b4:	afbe0388 	sw	s8,904(sp)
800013b8:	27be0300 	addiu	s8,sp,768
800013bc:	afb5037c 	sw	s5,892(sp)
800013c0:	27b50350 	addiu	s5,sp,848
800013c4:	afb40378 	sw	s4,888(sp)
800013c8:	27b402b0 	addiu	s4,sp,688
800013cc:	afb30374 	sw	s3,884(sp)
800013d0:	afb20370 	sw	s2,880(sp)
800013d4:	3c125a82 	lui	s2,0x5a82
800013d8:	afb00368 	sw	s0,872(sp)
800013dc:	27b00344 	addiu	s0,sp,836
800013e0:	afa50394 	sw	a1,916(sp)
800013e4:	26527999 	addiu	s2,s2,31129
800013e8:	afb70384 	sw	s7,900(sp)
800013ec:	afb60380 	sw	s6,896(sp)
800013f0:	afa20358 	sw	v0,856(sp)
800013f4:	8ca40000 	lw	a0,0(a1)
800013f8:	0c000ea0 	jal	80003a80 <strlen>
800013fc:	00000000 	nop
80001400:	3c048000 	lui	a0,0x8000
80001404:	00402825 	move	a1,v0
80001408:	24843ee0 	addiu	a0,a0,16096
8000140c:	0c000c6e 	jal	800031b8 <printf>
80001410:	00000000 	nop
80001414:	3c036745 	lui	v1,0x6745
80001418:	3c06efcd 	lui	a2,0xefcd
8000141c:	ae200014 	sw	zero,20(s1)
80001420:	3c0a1032 	lui	t2,0x1032
80001424:	ae200018 	sw	zero,24(s1)
80001428:	24652301 	addiu	a1,v1,8961
8000142c:	34c7ab89 	ori	a3,a2,0xab89
80001430:	3c0898ba 	lui	t0,0x98ba
80001434:	3c0cc3d2 	lui	t4,0xc3d2
80001438:	ae270004 	sw	a3,4(s1)
8000143c:	3c0e8000 	lui	t6,0x8000
80001440:	ae250000 	sw	a1,0(s1)
80001444:	254b5476 	addiu	t3,t2,21622
80001448:	8fa70394 	lw	a3,916(sp)
8000144c:	3509dcfe 	ori	t1,t0,0xdcfe
80001450:	358de1f0 	ori	t5,t4,0xe1f0
80001454:	25cf4870 	addiu	t7,t6,18544
80001458:	ae290008 	sw	t1,8(s1)
8000145c:	24060200 	li	a2,512
80001460:	ae2b000c 	sw	t3,12(s1)
80001464:	24050001 	li	a1,1
80001468:	ae2d0010 	sw	t5,16(s1)
8000146c:	27a40010 	addiu	a0,sp,16
80001470:	afaf0360 	sw	t7,864(sp)
80001474:	0c000df7 	jal	800037dc <fread>
80001478:	00000000 	nop
8000147c:	afa2035c 	sw	v0,860(sp)
80001480:	00409825 	move	s3,v0
80001484:	18400252 	blez	v0,80001dd0 <sha_stream+0xa30>
80001488:	00000000 	nop
8000148c:	8fa40360 	lw	a0,864(sp)
80001490:	00402825 	move	a1,v0
80001494:	0040b825 	move	s7,v0
80001498:	0c000c6e 	jal	800031b8 <printf>
8000149c:	00000000 	nop
800014a0:	001770c0 	sll	t6,s7,0x3
800014a4:	8e2f0014 	lw	t7,20(s1)
800014a8:	8e380018 	lw	t8,24(s1)
800014ac:	01cfc821 	addu	t9,t6,t7
800014b0:	032f402b 	sltu	t0,t9,t7
800014b4:	11000002 	beqz	t0,800014c0 <sha_stream+0x120>
800014b8:	00000000 	nop
800014bc:	27180001 	addiu	t8,t8,1
800014c0:	8fbf035c 	lw	ra,860(sp)
800014c4:	ae390014 	sw	t9,20(s1)
800014c8:	001fb742 	srl	s6,ra,0x1d
800014cc:	2be50040 	slti	a1,ra,64
800014d0:	02d81021 	addu	v0,s6,t8
800014d4:	ae220018 	sw	v0,24(s1)
800014d8:	14a00693 	bnez	a1,80002f28 <sha_stream+0x1b88>
800014dc:	00000000 	nop
800014e0:	27a30010 	addiu	v1,sp,16
800014e4:	afbf0350 	sw	ra,848(sp)
800014e8:	3c076ed9 	lui	a3,0x6ed9
800014ec:	0060b025 	move	s6,v1
800014f0:	34f7eba1 	ori	s7,a3,0xeba1
800014f4:	8fa40358 	lw	a0,856(sp)
800014f8:	24060040 	li	a2,64
800014fc:	02c02825 	move	a1,s6
80001500:	0c000f4b 	jal	80003d2c <memcpy>
80001504:	00000000 	nop
80001508:	240b0010 	li	t3,16
8000150c:	8e240028 	lw	a0,40(s1)
80001510:	27a50230 	addiu	a1,sp,560
80001514:	8e3f002c 	lw	ra,44(s1)
80001518:	8e390030 	lw	t9,48(s1)
8000151c:	8e380034 	lw	t8,52(s1)
80001520:	00804825 	move	t1,a0
80001524:	8e2f0038 	lw	t7,56(s1)
80001528:	03e04025 	move	t0,ra
8000152c:	8e2e0050 	lw	t6,80(s1)
80001530:	03203825 	move	a3,t9
80001534:	8e2a0024 	lw	t2,36(s1)
80001538:	03003025 	move	a2,t8
8000153c:	8e2d0054 	lw	t5,84(s1)
80001540:	01e06025 	move	t4,t7
80001544:	8e330058 	lw	s3,88(s1)
80001548:	8e22001c 	lw	v0,28(s1)
8000154c:	8e230020 	lw	v1,32(s1)
80001550:	afa4021c 	sw	a0,540(sp)
80001554:	afbf0220 	sw	ra,544(sp)
80001558:	afb90224 	sw	t9,548(sp)
8000155c:	afb80228 	sw	t8,552(sp)
80001560:	afaf022c 	sw	t7,556(sp)
80001564:	afae0354 	sw	t6,852(sp)
80001568:	afa20210 	sw	v0,528(sp)
8000156c:	afa30214 	sw	v1,532(sp)
80001570:	afaa0218 	sw	t2,536(sp)
80001574:	afae0244 	sw	t6,580(sp)
80001578:	afad0248 	sw	t5,584(sp)
8000157c:	8e390044 	lw	t9,68(s1)
80001580:	8e380048 	lw	t8,72(s1)
80001584:	8e24003c 	lw	a0,60(s1)
80001588:	8e3f0040 	lw	ra,64(s1)
8000158c:	8e2f004c 	lw	t7,76(s1)
80001590:	afb90238 	sw	t9,568(sp)
80001594:	0260c825 	move	t9,s3
80001598:	afb8023c 	sw	t8,572(sp)
8000159c:	01c0c025 	move	t8,t6
800015a0:	afa40230 	sw	a0,560(sp)
800015a4:	afbf0234 	sw	ra,564(sp)
800015a8:	afaf0240 	sw	t7,576(sp)
800015ac:	afb3024c 	sw	s3,588(sp)
800015b0:	01585026 	xor	t2,t2,t8
800015b4:	8cb80004 	lw	t8,4(a1)
800015b8:	8cae0000 	lw	t6,0(a1)
800015bc:	012d4826 	xor	t1,t1,t5
800015c0:	8ca4ffe4 	lw	a0,-28(a1)
800015c4:	01199826 	xor	s3,t0,t9
800015c8:	8cad0008 	lw	t5,8(a1)
800015cc:	01387826 	xor	t7,t1,t8
800015d0:	8ca8ffe0 	lw	t0,-32(a1)
800015d4:	014ec826 	xor	t9,t2,t6
800015d8:	8ca2ffe8 	lw	v0,-24(a1)
800015dc:	01e45026 	xor	t2,t7,a0
800015e0:	026d1826 	xor	v1,s3,t5
800015e4:	8cbf000c 	lw	ra,12(a1)
800015e8:	03289826 	xor	s3,t9,t0
800015ec:	8ca90010 	lw	t1,16(a1)
800015f0:	00624026 	xor	t0,v1,v0
800015f4:	8ca30014 	lw	v1,20(a1)
800015f8:	00ca3026 	xor	a2,a2,t2
800015fc:	acaa0024 	sw	t2,36(a1)
80001600:	aca80028 	sw	t0,40(a1)
80001604:	0188c826 	xor	t9,t4,t0
80001608:	8caaffec 	lw	t2,-20(a1)
8000160c:	00f33826 	xor	a3,a3,s3
80001610:	8cacfff0 	lw	t4,-16(a1)
80001614:	00ff7826 	xor	t7,a3,ra
80001618:	8ca8fff4 	lw	t0,-12(a1)
8000161c:	00c92026 	xor	a0,a2,t1
80001620:	01ea3826 	xor	a3,t7,t2
80001624:	8caafff8 	lw	t2,-8(a1)
80001628:	03231026 	xor	v0,t9,v1
8000162c:	acb30020 	sw	s3,32(a1)
80001630:	008cc826 	xor	t9,a0,t4
80001634:	aca7002c 	sw	a3,44(a1)
80001638:	00483026 	xor	a2,v0,t0
8000163c:	8ca4001c 	lw	a0,28(a1)
80001640:	01a66826 	xor	t5,t5,a2
80001644:	acb90030 	sw	t9,48(a1)
80001648:	01c77026 	xor	t6,t6,a3
8000164c:	aca60034 	sw	a2,52(a1)
80001650:	8ca70018 	lw	a3,24(a1)
80001654:	01b34026 	xor	t0,t5,s3
80001658:	0319c026 	xor	t8,t8,t9
8000165c:	8cb9fffc 	lw	t9,-4(a1)
80001660:	02601025 	move	v0,s3
80001664:	8cb30000 	lw	s3,0(a1)
80001668:	03046026 	xor	t4,t8,a0
8000166c:	01c73026 	xor	a2,t6,a3
80001670:	00cac026 	xor	t8,a2,t2
80001674:	01996826 	xor	t5,t4,t9
80001678:	256f0006 	addiu	t7,t3,6
8000167c:	acb80038 	sw	t8,56(a1)
80001680:	0113c826 	xor	t9,t0,s3
80001684:	acad003c 	sw	t5,60(a1)
80001688:	03e05025 	move	t2,ra
8000168c:	256b0009 	addiu	t3,t3,9
80001690:	acb90040 	sw	t9,64(a1)
80001694:	241f004f 	li	ra,79
80001698:	24a50024 	addiu	a1,a1,36
8000169c:	00604025 	move	t0,v1
800016a0:	00803025 	move	a2,a0
800016a4:	00406025 	move	t4,v0
800016a8:	157fffc1 	bne	t3,ra,800015b0 <sha_stream+0x210>
800016ac:	00000000 	nop
800016b0:	000f4880 	sll	t1,t7,0x2
800016b4:	27a30210 	addiu	v1,sp,528
800016b8:	00691021 	addu	v0,v1,t1
800016bc:	02027023 	subu	t6,s0,v0
800016c0:	8c53ffec 	lw	s3,-20(v0)
800016c4:	24470004 	addiu	a3,v0,4
800016c8:	8c4f0000 	lw	t7,0(v0)
800016cc:	25d8fffc 	addiu	t8,t6,-4
800016d0:	8c44ffd4 	lw	a0,-44(v0)
800016d4:	8c4dffcc 	lw	t5,-52(v0)
800016d8:	0018c882 	srl	t9,t8,0x2
800016dc:	026f5826 	xor	t3,s3,t7
800016e0:	01642826 	xor	a1,t3,a0
800016e4:	00ad5026 	xor	t2,a1,t5
800016e8:	33280007 	andi	t0,t9,0x7
800016ec:	ac4a000c 	sw	t2,12(v0)
800016f0:	1207009b 	beq	s0,a3,80001960 <sha_stream+0x5c0>
800016f4:	00000000 	nop
800016f8:	11000054 	beqz	t0,8000184c <sha_stream+0x4ac>
800016fc:	00000000 	nop
80001700:	24060001 	li	a2,1
80001704:	11060046 	beq	t0,a2,80001820 <sha_stream+0x480>
80001708:	00000000 	nop
8000170c:	240c0002 	li	t4,2
80001710:	110c003a 	beq	t0,t4,800017fc <sha_stream+0x45c>
80001714:	00000000 	nop
80001718:	241f0003 	li	ra,3
8000171c:	111f002e 	beq	t0,ra,800017d8 <sha_stream+0x438>
80001720:	00000000 	nop
80001724:	24090004 	li	t1,4
80001728:	11090022 	beq	t0,t1,800017b4 <sha_stream+0x414>
8000172c:	00000000 	nop
80001730:	24030005 	li	v1,5
80001734:	11030016 	beq	t0,v1,80001790 <sha_stream+0x3f0>
80001738:	00000000 	nop
8000173c:	240e0006 	li	t6,6
80001740:	110e000a 	beq	t0,t6,8000176c <sha_stream+0x3cc>
80001744:	00000000 	nop
80001748:	8cf3ffec 	lw	s3,-20(a3)
8000174c:	8c4f0004 	lw	t7,4(v0)
80001750:	8cf8ffd4 	lw	t8,-44(a3)
80001754:	8cedffcc 	lw	t5,-52(a3)
80001758:	026f2026 	xor	a0,s3,t7
8000175c:	0098c826 	xor	t9,a0,t8
80001760:	032d5826 	xor	t3,t9,t5
80001764:	aceb000c 	sw	t3,12(a3)
80001768:	24470008 	addiu	a3,v0,8
8000176c:	8ceaffec 	lw	t2,-20(a3)
80001770:	24e70004 	addiu	a3,a3,4
80001774:	8ce5fffc 	lw	a1,-4(a3)
80001778:	8ce2ffd0 	lw	v0,-48(a3)
8000177c:	8ce8ffc8 	lw	t0,-56(a3)
80001780:	01453026 	xor	a2,t2,a1
80001784:	00c26026 	xor	t4,a2,v0
80001788:	0188f826 	xor	ra,t4,t0
8000178c:	acff0008 	sw	ra,8(a3)
80001790:	8ce9ffec 	lw	t1,-20(a3)
80001794:	24e70004 	addiu	a3,a3,4
80001798:	8ce3fffc 	lw	v1,-4(a3)
8000179c:	8ceeffd0 	lw	t6,-48(a3)
800017a0:	8cf3ffc8 	lw	s3,-56(a3)
800017a4:	01237826 	xor	t7,t1,v1
800017a8:	01eec026 	xor	t8,t7,t6
800017ac:	03136826 	xor	t5,t8,s3
800017b0:	aced0008 	sw	t5,8(a3)
800017b4:	8cf9ffec 	lw	t9,-20(a3)
800017b8:	24e70004 	addiu	a3,a3,4
800017bc:	8cebfffc 	lw	t3,-4(a3)
800017c0:	8ceaffd0 	lw	t2,-48(a3)
800017c4:	8ce4ffc8 	lw	a0,-56(a3)
800017c8:	032b2826 	xor	a1,t9,t3
800017cc:	00aa1026 	xor	v0,a1,t2
800017d0:	00444026 	xor	t0,v0,a0
800017d4:	ace80008 	sw	t0,8(a3)
800017d8:	8ce6ffec 	lw	a2,-20(a3)
800017dc:	24e70004 	addiu	a3,a3,4
800017e0:	8cecfffc 	lw	t4,-4(a3)
800017e4:	8cffffd0 	lw	ra,-48(a3)
800017e8:	8ce9ffc8 	lw	t1,-56(a3)
800017ec:	00cc1826 	xor	v1,a2,t4
800017f0:	007f7026 	xor	t6,v1,ra
800017f4:	01c99826 	xor	s3,t6,t1
800017f8:	acf30008 	sw	s3,8(a3)
800017fc:	8cefffec 	lw	t7,-20(a3)
80001800:	24e70004 	addiu	a3,a3,4
80001804:	8cf8fffc 	lw	t8,-4(a3)
80001808:	8cedffd0 	lw	t5,-48(a3)
8000180c:	8cf9ffc8 	lw	t9,-56(a3)
80001810:	01f85826 	xor	t3,t7,t8
80001814:	016d5026 	xor	t2,t3,t5
80001818:	01592026 	xor	a0,t2,t9
8000181c:	ace40008 	sw	a0,8(a3)
80001820:	8ce8ffec 	lw	t0,-20(a3)
80001824:	24e70004 	addiu	a3,a3,4
80001828:	8ce5fffc 	lw	a1,-4(a3)
8000182c:	8ce2ffd0 	lw	v0,-48(a3)
80001830:	8ce6ffc8 	lw	a2,-56(a3)
80001834:	01056026 	xor	t4,t0,a1
80001838:	0182f826 	xor	ra,t4,v0
8000183c:	03e64826 	xor	t1,ra,a2
80001840:	ace90008 	sw	t1,8(a3)
80001844:	12070046 	beq	s0,a3,80001960 <sha_stream+0x5c0>
80001848:	00000000 	nop
8000184c:	8cf3ffec 	lw	s3,-20(a3)
80001850:	24f80004 	addiu	t8,a3,4
80001854:	8ced0000 	lw	t5,0(a3)
80001858:	24f90008 	addiu	t9,a3,8
8000185c:	8cebffd4 	lw	t3,-44(a3)
80001860:	24ef000c 	addiu	t7,a3,12
80001864:	8ce3ffcc 	lw	v1,-52(a3)
80001868:	24ee0010 	addiu	t6,a3,16
8000186c:	026d5026 	xor	t2,s3,t5
80001870:	8ce50004 	lw	a1,4(a3)
80001874:	014b2026 	xor	a0,t2,t3
80001878:	8ce2fff0 	lw	v0,-16(a3)
8000187c:	0083f826 	xor	ra,a0,v1
80001880:	8cf3ffd8 	lw	s3,-40(a3)
80001884:	24ec0014 	addiu	t4,a3,20
80001888:	acff000c 	sw	ra,12(a3)
8000188c:	00456826 	xor	t5,v0,a1
80001890:	8f08ffcc 	lw	t0,-52(t8)
80001894:	01b35826 	xor	t3,t5,s3
80001898:	24e90018 	addiu	t1,a3,24
8000189c:	24e6001c 	addiu	a2,a3,28
800018a0:	01689826 	xor	s3,t3,t0
800018a4:	24e70020 	addiu	a3,a3,32
800018a8:	af13000c 	sw	s3,12(t8)
800018ac:	8f23ffec 	lw	v1,-20(t9)
800018b0:	8cf8ffe8 	lw	t8,-24(a3)
800018b4:	8f2affd4 	lw	t2,-44(t9)
800018b8:	8f25ffcc 	lw	a1,-52(t9)
800018bc:	00782026 	xor	a0,v1,t8
800018c0:	008a1026 	xor	v0,a0,t2
800018c4:	00456826 	xor	t5,v0,a1
800018c8:	af2d000c 	sw	t5,12(t9)
800018cc:	8df9ffec 	lw	t9,-20(t7)
800018d0:	8de8ffd4 	lw	t0,-44(t7)
800018d4:	8debffcc 	lw	t3,-52(t7)
800018d8:	033ff826 	xor	ra,t9,ra
800018dc:	03e8c026 	xor	t8,ra,t0
800018e0:	030b1826 	xor	v1,t8,t3
800018e4:	ade3000c 	sw	v1,12(t7)
800018e8:	8dcfffec 	lw	t7,-20(t6)
800018ec:	8dcaffd4 	lw	t2,-44(t6)
800018f0:	8dc5ffcc 	lw	a1,-52(t6)
800018f4:	01f39826 	xor	s3,t7,s3
800018f8:	026a2026 	xor	a0,s3,t2
800018fc:	00851026 	xor	v0,a0,a1
80001900:	adc2000c 	sw	v0,12(t6)
80001904:	8d8effec 	lw	t6,-20(t4)
80001908:	8d99ffd4 	lw	t9,-44(t4)
8000190c:	8d88ffcc 	lw	t0,-52(t4)
80001910:	01cd6826 	xor	t5,t6,t5
80001914:	01b95826 	xor	t3,t5,t9
80001918:	0168f826 	xor	ra,t3,t0
8000191c:	ad9f000c 	sw	ra,12(t4)
80001920:	8d2cffec 	lw	t4,-20(t1)
80001924:	8d38ffd4 	lw	t8,-44(t1)
80001928:	8d2fffcc 	lw	t7,-52(t1)
8000192c:	01831826 	xor	v1,t4,v1
80001930:	00785026 	xor	t2,v1,t8
80001934:	014f2826 	xor	a1,t2,t7
80001938:	ad25000c 	sw	a1,12(t1)
8000193c:	8cc9ffec 	lw	t1,-20(a2)
80001940:	8cd3ffd4 	lw	s3,-44(a2)
80001944:	8cc4ffcc 	lw	a0,-52(a2)
80001948:	01221026 	xor	v0,t1,v0
8000194c:	00537026 	xor	t6,v0,s3
80001950:	01c4c826 	xor	t9,t6,a0
80001954:	acd9000c 	sw	t9,12(a2)
80001958:	1607ffbc 	bne	s0,a3,8000184c <sha_stream+0x4ac>
8000195c:	00000000 	nop
80001960:	8e380000 	lw	t8,0(s1)
80001964:	27ab0214 	addiu	t3,sp,532
80001968:	8e2e000c 	lw	t6,12(s1)
8000196c:	8e390008 	lw	t9,8(s1)
80001970:	00183940 	sll	a3,t8,0x5
80001974:	8e2f0004 	lw	t7,4(s1)
80001978:	001836c2 	srl	a2,t8,0x1b
8000197c:	8fa80210 	lw	t0,528(sp)
80001980:	032e6826 	xor	t5,t9,t6
80001984:	8e3f0010 	lw	ra,16(s1)
80001988:	00e66025 	or	t4,a3,a2
8000198c:	01921821 	addu	v1,t4,s2
80001990:	01af5024 	and	t2,t5,t7
80001994:	00682821 	addu	a1,v1,t0
80001998:	014e4826 	xor	t1,t2,t6
8000199c:	00a99821 	addu	s3,a1,t1
800019a0:	000f2082 	srl	a0,t7,0x2
800019a4:	000f1780 	sll	v0,t7,0x1e
800019a8:	03003825 	move	a3,t8
800019ac:	00444825 	or	t1,v0,a0
800019b0:	01c03025 	move	a2,t6
800019b4:	03205025 	move	t2,t9
800019b8:	027f2021 	addu	a0,s3,ra
800019bc:	1000001f 	b	80001a3c <sha_stream+0x69c>
800019c0:	00000000 	nop
	...
800019d0:	000c2940 	sll	a1,t4,0x5
800019d4:	8d680004 	lw	t0,4(t3)
800019d8:	000c16c2 	srl	v0,t4,0x1b
800019dc:	8d6d0008 	lw	t5,8(t3)
800019e0:	00c93826 	xor	a3,a2,t1
800019e4:	00a21825 	or	v1,a1,v0
800019e8:	00722821 	addu	a1,v1,s2
800019ec:	00e42024 	and	a0,a3,a0
800019f0:	00a84021 	addu	t0,a1,t0
800019f4:	00891026 	xor	v0,a0,t1
800019f8:	01023821 	addu	a3,t0,v0
800019fc:	02661826 	xor	v1,s3,a2
80001a00:	00ea3821 	addu	a3,a3,t2
80001a04:	006c5024 	and	t2,v1,t4
80001a08:	00072140 	sll	a0,a3,0x5
80001a0c:	00072ec2 	srl	a1,a3,0x1b
80001a10:	01464026 	xor	t0,t2,a2
80001a14:	00851025 	or	v0,a0,a1
80001a18:	00521821 	addu	v1,v0,s2
80001a1c:	000c2882 	srl	a1,t4,0x2
80001a20:	006d6821 	addu	t5,v1,t5
80001a24:	000c6780 	sll	t4,t4,0x1e
80001a28:	01a85021 	addu	t2,t5,t0
80001a2c:	256b000c 	addiu	t3,t3,12
80001a30:	01492021 	addu	a0,t2,t1
80001a34:	02605025 	move	t2,s3
80001a38:	01854825 	or	t1,t4,a1
80001a3c:	00044082 	srl	t0,a0,0x2
80001a40:	8d6d0000 	lw	t5,0(t3)
80001a44:	00046780 	sll	t4,a0,0x1e
80001a48:	00041940 	sll	v1,a0,0x5
80001a4c:	00042ec2 	srl	a1,a0,0x1b
80001a50:	01889825 	or	s3,t4,t0
80001a54:	00656025 	or	t4,v1,a1
80001a58:	01921821 	addu	v1,t4,s2
80001a5c:	012a2826 	xor	a1,t1,t2
80001a60:	00a71024 	and	v0,a1,a3
80001a64:	006d6821 	addu	t5,v1,t5
80001a68:	004a6026 	xor	t4,v0,t2
80001a6c:	00074082 	srl	t0,a3,0x2
80001a70:	01ac1821 	addu	v1,t5,t4
80001a74:	00073f80 	sll	a3,a3,0x1e
80001a78:	25650004 	addiu	a1,t3,4
80001a7c:	27ad0260 	addiu	t5,sp,608
80001a80:	00666021 	addu	t4,v1,a2
80001a84:	00e83025 	or	a2,a3,t0
80001a88:	15a5ffd1 	bne	t5,a1,800019d0 <sha_stream+0x630>
80001a8c:	00000000 	nop
80001a90:	000c1940 	sll	v1,t4,0x5
80001a94:	8fa70260 	lw	a3,608(sp)
80001a98:	000c46c2 	srl	t0,t4,0x1b
80001a9c:	00862026 	xor	a0,a0,a2
80001aa0:	00682825 	or	a1,v1,t0
80001aa4:	00b71021 	addu	v0,a1,s7
80001aa8:	00896826 	xor	t5,a0,t1
80001aac:	01a21821 	addu	v1,t5,v0
80001ab0:	01802025 	move	a0,t4
80001ab4:	00673821 	addu	a3,v1,a3
80001ab8:	00ea4021 	addu	t0,a3,t2
80001abc:	01205025 	move	t2,t1
80001ac0:	25670008 	addiu	a3,t3,8
80001ac4:	00c04825 	move	t1,a2
80001ac8:	01001825 	move	v1,t0
80001acc:	02603025 	move	a2,s3
80001ad0:	10000011 	b	80001b18 <sha_stream+0x778>
80001ad4:	00000000 	nop
	...
80001ae0:	00046140 	sll	t4,a0,0x5
80001ae4:	8cea0004 	lw	t2,4(a3)
80001ae8:	00046ec2 	srl	t5,a0,0x1b
80001aec:	00651026 	xor	v0,v1,a1
80001af0:	018d9825 	or	s3,t4,t5
80001af4:	02771821 	addu	v1,s3,s7
80001af8:	00466026 	xor	t4,v0,a2
80001afc:	01836821 	addu	t5,t4,v1
80001b00:	24e70008 	addiu	a3,a3,8
80001b04:	01aa1021 	addu	v0,t5,t2
80001b08:	00c05025 	move	t2,a2
80001b0c:	00491821 	addu	v1,v0,t1
80001b10:	010b3025 	or	a2,t0,t3
80001b14:	00a04825 	move	t1,a1
80001b18:	00039940 	sll	s3,v1,0x5
80001b1c:	8ceb0000 	lw	t3,0(a3)
80001b20:	000366c2 	srl	t4,v1,0x1b
80001b24:	00861026 	xor	v0,a0,a2
80001b28:	026c4025 	or	t0,s3,t4
80001b2c:	01179821 	addu	s3,t0,s7
80001b30:	00496026 	xor	t4,v0,t1
80001b34:	01931021 	addu	v0,t4,s3
80001b38:	00046882 	srl	t5,a0,0x2
80001b3c:	00042f80 	sll	a1,a0,0x1e
80001b40:	24f30004 	addiu	s3,a3,4
80001b44:	004b2021 	addu	a0,v0,t3
80001b48:	00034780 	sll	t0,v1,0x1e
80001b4c:	00035882 	srl	t3,v1,0x2
80001b50:	008a2021 	addu	a0,a0,t2
80001b54:	00ad2825 	or	a1,a1,t5
80001b58:	1693ffe1 	bne	s4,s3,80001ae0 <sha_stream+0x740>
80001b5c:	00000000 	nop
80001b60:	00041140 	sll	v0,a0,0x5
80001b64:	8e8c0000 	lw	t4,0(s4)
80001b68:	000456c2 	srl	t2,a0,0x1b
80001b6c:	3c138f1b 	lui	s3,0x8f1b
80001b70:	004a6825 	or	t5,v0,t2
80001b74:	366bbcdc 	ori	t3,s3,0xbcdc
80001b78:	01ab5021 	addu	t2,t5,t3
80001b7c:	00a64025 	or	t0,a1,a2
80001b80:	00a61024 	and	v0,a1,a2
80001b84:	01036824 	and	t5,t0,v1
80001b88:	014c6021 	addu	t4,t2,t4
80001b8c:	01a29825 	or	s3,t5,v0
80001b90:	026c5021 	addu	t2,s3,t4
80001b94:	00034082 	srl	t0,v1,0x2
80001b98:	01491021 	addu	v0,t2,t1
80001b9c:	00036f80 	sll	t5,v1,0x1e
80001ba0:	00c04825 	move	t1,a2
80001ba4:	00801825 	move	v1,a0
80001ba8:	00a03025 	move	a2,a1
80001bac:	24e70008 	addiu	a3,a3,8
80001bb0:	01a82825 	or	a1,t5,t0
80001bb4:	00402025 	move	a0,v0
80001bb8:	10000012 	b	80001c04 <sha_stream+0x864>
80001bbc:	00000000 	nop
80001bc0:	00029ec2 	srl	s3,v0,0x1b
80001bc4:	8ce90004 	lw	t1,4(a3)
80001bc8:	00024140 	sll	t0,v0,0x5
80001bcc:	01451825 	or	v1,t2,a1
80001bd0:	01134025 	or	t0,t0,s3
80001bd4:	010b9821 	addu	s3,t0,t3
80001bd8:	00641824 	and	v1,v1,a0
80001bdc:	02694821 	addu	t1,s3,t1
80001be0:	01452024 	and	a0,t2,a1
80001be4:	00644025 	or	t0,v1,a0
80001be8:	01099821 	addu	s3,t0,t1
80001bec:	24e70008 	addiu	a3,a3,8
80001bf0:	02662021 	addu	a0,s3,a2
80001bf4:	00a04825 	move	t1,a1
80001bf8:	00401825 	move	v1,v0
80001bfc:	01403025 	move	a2,t2
80001c00:	018d2825 	or	a1,t4,t5
80001c04:	000416c2 	srl	v0,a0,0x1b
80001c08:	8cf30000 	lw	s3,0(a3)
80001c0c:	00046140 	sll	t4,a0,0x5
80001c10:	00a65025 	or	t2,a1,a2
80001c14:	01826025 	or	t4,t4,v0
80001c18:	018b1021 	addu	v0,t4,t3
80001c1c:	01435024 	and	t2,t2,v1
80001c20:	00a64024 	and	t0,a1,a2
80001c24:	00539821 	addu	s3,v0,s3
80001c28:	01486825 	or	t5,t2,t0
80001c2c:	01b31021 	addu	v0,t5,s3
80001c30:	00034082 	srl	t0,v1,0x2
80001c34:	24f30004 	addiu	s3,a3,4
80001c38:	00031f80 	sll	v1,v1,0x1e
80001c3c:	00046882 	srl	t5,a0,0x2
80001c40:	00046780 	sll	t4,a0,0x1e
80001c44:	00491021 	addu	v0,v0,t1
80001c48:	00685025 	or	t2,v1,t0
80001c4c:	17d3ffdc 	bne	s8,s3,80001bc0 <sha_stream+0x820>
80001c50:	00000000 	nop
80001c54:	01404025 	move	t0,t2
80001c58:	8fcb0000 	lw	t3,0(s8)
80001c5c:	00021940 	sll	v1,v0,0x5
80001c60:	00024ec2 	srl	t1,v0,0x1b
80001c64:	3c0aca62 	lui	t2,0xca62
80001c68:	00699825 	or	s3,v1,t1
80001c6c:	354ac1d6 	ori	t2,t2,0xc1d6
80001c70:	00882026 	xor	a0,a0,t0
80001c74:	026a1821 	addu	v1,s3,t2
80001c78:	00854826 	xor	t1,a0,a1
80001c7c:	01239821 	addu	s3,t1,v1
80001c80:	24e70008 	addiu	a3,a3,8
80001c84:	026b2021 	addu	a0,s3,t3
80001c88:	00865821 	addu	t3,a0,a2
80001c8c:	00402025 	move	a0,v0
80001c90:	00a03025 	move	a2,a1
80001c94:	01601025 	move	v0,t3
80001c98:	01002825 	move	a1,t0
80001c9c:	018d4025 	or	t0,t4,t5
80001ca0:	10000011 	b	80001ce8 <sha_stream+0x948>
80001ca4:	00000000 	nop
	...
80001cb0:	00046940 	sll	t5,a0,0x5
80001cb4:	8cec0004 	lw	t4,4(a3)
80001cb8:	00049ec2 	srl	s3,a0,0x1b
80001cbc:	00433026 	xor	a2,v0,v1
80001cc0:	01b31025 	or	v0,t5,s3
80001cc4:	004a6821 	addu	t5,v0,t2
80001cc8:	00c89826 	xor	s3,a2,t0
80001ccc:	026d3021 	addu	a2,s3,t5
80001cd0:	24e70008 	addiu	a3,a3,8
80001cd4:	00cc6021 	addu	t4,a2,t4
80001cd8:	01003025 	move	a2,t0
80001cdc:	01851021 	addu	v0,t4,a1
80001ce0:	012b4025 	or	t0,t1,t3
80001ce4:	00602825 	move	a1,v1
80001ce8:	00026ec2 	srl	t5,v0,0x1b
80001cec:	8cf30000 	lw	s3,0(a3)
80001cf0:	00024940 	sll	t1,v0,0x5
80001cf4:	00881826 	xor	v1,a0,t0
80001cf8:	012d4825 	or	t1,t1,t5
80001cfc:	012a6821 	addu	t5,t1,t2
80001d00:	00651826 	xor	v1,v1,a1
80001d04:	006d6021 	addu	t4,v1,t5
80001d08:	00046882 	srl	t5,a0,0x2
80001d0c:	00041f80 	sll	v1,a0,0x1e
80001d10:	01932021 	addu	a0,t4,s3
80001d14:	24f30004 	addiu	s3,a3,4
80001d18:	00025882 	srl	t3,v0,0x2
80001d1c:	00024f80 	sll	t1,v0,0x1e
80001d20:	00862021 	addu	a0,a0,a2
80001d24:	006d1825 	or	v1,v1,t5
80001d28:	16b3ffe1 	bne	s5,s3,80001cb0 <sha_stream+0x910>
80001d2c:	00000000 	nop
80001d30:	8fa60350 	lw	a2,848(sp)
80001d34:	03e5f821 	addu	ra,ra,a1
80001d38:	0304c021 	addu	t8,t8,a0
80001d3c:	01e27821 	addu	t7,t7,v0
80001d40:	24c7ffc0 	addiu	a3,a2,-64
80001d44:	ae3f0010 	sw	ra,16(s1)
80001d48:	0323c821 	addu	t9,t9,v1
80001d4c:	ae380000 	sw	t8,0(s1)
80001d50:	01c87021 	addu	t6,t6,t0
80001d54:	ae2f0004 	sw	t7,4(s1)
80001d58:	28e50040 	slti	a1,a3,64
80001d5c:	afa70350 	sw	a3,848(sp)
80001d60:	ae390008 	sw	t9,8(s1)
80001d64:	26d60040 	addiu	s6,s6,64
80001d68:	ae2e000c 	sw	t6,12(s1)
80001d6c:	10a0fde1 	beqz	a1,800014f4 <sha_stream+0x154>
80001d70:	00000000 	nop
80001d74:	8fb7035c 	lw	s7,860(sp)
80001d78:	27ab0010 	addiu	t3,sp,16
80001d7c:	26e8ffc0 	addiu	t0,s7,-64
80001d80:	00081182 	srl	v0,t0,0x6
80001d84:	244a0001 	addiu	t2,v0,1
80001d88:	00026180 	sll	t4,v0,0x6
80001d8c:	000a6980 	sll	t5,t2,0x6
80001d90:	010c9823 	subu	s3,t0,t4
80001d94:	016d2821 	addu	a1,t3,t5
80001d98:	8fa40358 	lw	a0,856(sp)
80001d9c:	02603025 	move	a2,s3
80001da0:	0c000f4b 	jal	80003d2c <memcpy>
80001da4:	00000000 	nop
80001da8:	24060200 	li	a2,512
80001dac:	8fa70394 	lw	a3,916(sp)
80001db0:	24050001 	li	a1,1
80001db4:	27a40010 	addiu	a0,sp,16
80001db8:	0c000df7 	jal	800037dc <fread>
80001dbc:	00000000 	nop
80001dc0:	afa2035c 	sw	v0,860(sp)
80001dc4:	00409825 	move	s3,v0
80001dc8:	1c40fdb0 	bgtz	v0,8000148c <sha_stream+0xec>
80001dcc:	00000000 	nop
80001dd0:	8e360014 	lw	s6,20(s1)
80001dd4:	2403ff80 	li	v1,-128
80001dd8:	8fbf0358 	lw	ra,856(sp)
80001ddc:	00002825 	move	a1,zero
80001de0:	8e320018 	lw	s2,24(s1)
80001de4:	0016b8c2 	srl	s7,s6,0x3
80001de8:	afb60350 	sw	s6,848(sp)
80001dec:	32f8003f 	andi	t8,s7,0x3f
80001df0:	27190001 	addiu	t9,t8,1
80001df4:	03f81021 	addu	v0,ra,t8
80001df8:	2b240039 	slti	a0,t9,57
80001dfc:	a0430000 	sb	v1,0(v0)
80001e00:	1080022a 	beqz	a0,800026ac <sha_stream+0x130c>
80001e04:	00000000 	nop
80001e08:	8fa70358 	lw	a3,856(sp)
80001e0c:	24060038 	li	a2,56
80001e10:	00d93023 	subu	a2,a2,t9
80001e14:	00f92021 	addu	a0,a3,t9
80001e18:	0c000f3e 	jal	80003cf8 <memset>
80001e1c:	00000000 	nop
80001e20:	8e380028 	lw	t8,40(s1)
80001e24:	240c0010 	li	t4,16
80001e28:	8e2f002c 	lw	t7,44(s1)
80001e2c:	27a30230 	addiu	v1,sp,560
80001e30:	8e2e0030 	lw	t6,48(s1)
80001e34:	02405825 	move	t3,s2
80001e38:	8e220034 	lw	v0,52(s1)
80001e3c:	03004025 	move	t0,t8
80001e40:	8e370038 	lw	s7,56(s1)
80001e44:	01e03825 	move	a3,t7
80001e48:	8e33001c 	lw	s3,28(s1)
80001e4c:	01c03025 	move	a2,t6
80001e50:	8fad0350 	lw	t5,848(sp)
80001e54:	00402025 	move	a0,v0
80001e58:	8e390024 	lw	t9,36(s1)
80001e5c:	8e360050 	lw	s6,80(s1)
80001e60:	8e3f0020 	lw	ra,32(s1)
80001e64:	01a05025 	move	t2,t5
80001e68:	afa20350 	sw	v0,848(sp)
80001e6c:	02e01025 	move	v0,s7
80001e70:	afb30210 	sw	s3,528(sp)
80001e74:	03204825 	move	t1,t9
80001e78:	afb8021c 	sw	t8,540(sp)
80001e7c:	02c02825 	move	a1,s6
80001e80:	afaf0220 	sw	t7,544(sp)
80001e84:	afae0224 	sw	t6,548(sp)
80001e88:	afb7022c 	sw	s7,556(sp)
80001e8c:	ae320054 	sw	s2,84(s1)
80001e90:	ae2d0058 	sw	t5,88(s1)
80001e94:	afbf0214 	sw	ra,532(sp)
80001e98:	afb90218 	sw	t9,536(sp)
80001e9c:	afa40228 	sw	a0,552(sp)
80001ea0:	afb60244 	sw	s6,580(sp)
80001ea4:	8e38003c 	lw	t8,60(s1)
80001ea8:	8e2f0040 	lw	t7,64(s1)
80001eac:	8e2e0044 	lw	t6,68(s1)
80001eb0:	8e370048 	lw	s7,72(s1)
80001eb4:	8e33004c 	lw	s3,76(s1)
80001eb8:	afb80230 	sw	t8,560(sp)
80001ebc:	afaf0234 	sw	t7,564(sp)
80001ec0:	afae0238 	sw	t6,568(sp)
80001ec4:	afb7023c 	sw	s7,572(sp)
80001ec8:	afb30240 	sw	s3,576(sp)
80001ecc:	afb20248 	sw	s2,584(sp)
80001ed0:	afad024c 	sw	t5,588(sp)
80001ed4:	8c7f0000 	lw	ra,0(v1)
80001ed8:	010b4026 	xor	t0,t0,t3
80001edc:	8c6d0004 	lw	t5,4(v1)
80001ee0:	01252826 	xor	a1,t1,a1
80001ee4:	8c6b0008 	lw	t3,8(v1)
80001ee8:	00ea5026 	xor	t2,a3,t2
80001eec:	8c72ffe0 	lw	s2,-32(v1)
80001ef0:	00bf4826 	xor	t1,a1,ra
80001ef4:	8c76ffe4 	lw	s6,-28(v1)
80001ef8:	010d3826 	xor	a3,t0,t5
80001efc:	8c79ffe8 	lw	t9,-24(v1)
80001f00:	014bc026 	xor	t8,t2,t3
80001f04:	01327026 	xor	t6,t1,s2
80001f08:	8c720014 	lw	s2,20(v1)
80001f0c:	00f6b826 	xor	s7,a3,s6
80001f10:	8c6f000c 	lw	t7,12(v1)
80001f14:	03199826 	xor	s3,t8,t9
80001f18:	8c76fff4 	lw	s6,-12(v1)
80001f1c:	8c790010 	lw	t9,16(v1)
80001f20:	00972826 	xor	a1,a0,s7
80001f24:	8c69ffec 	lw	t1,-20(v1)
80001f28:	00532026 	xor	a0,v0,s3
80001f2c:	8c68fff0 	lw	t0,-16(v1)
80001f30:	00923826 	xor	a3,a0,s2
80001f34:	00ce3026 	xor	a2,a2,t6
80001f38:	ac730028 	sw	s3,40(v1)
80001f3c:	00cf5026 	xor	t2,a2,t7
80001f40:	ac770024 	sw	s7,36(v1)
80001f44:	00f69826 	xor	s3,a3,s6
80001f48:	8c660018 	lw	a2,24(v1)
80001f4c:	00b91026 	xor	v0,a1,t9
80001f50:	8c76001c 	lw	s6,28(v1)
80001f54:	0149c026 	xor	t8,t2,t1
80001f58:	8c6afff8 	lw	t2,-8(v1)
80001f5c:	0048b826 	xor	s7,v0,t0
80001f60:	8c68fffc 	lw	t0,-4(v1)
80001f64:	03f82826 	xor	a1,ra,t8
80001f68:	ac78002c 	sw	t8,44(v1)
80001f6c:	01735826 	xor	t3,t3,s3
80001f70:	ac6e0020 	sw	t6,32(v1)
80001f74:	01b76826 	xor	t5,t5,s7
80001f78:	ac770030 	sw	s7,48(v1)
80001f7c:	016e2026 	xor	a0,t3,t6
80001f80:	ac730034 	sw	s3,52(v1)
80001f84:	00a63826 	xor	a3,a1,a2
80001f88:	01b64826 	xor	t1,t5,s6
80001f8c:	00ea2826 	xor	a1,a3,t2
80001f90:	01285826 	xor	t3,t1,t0
80001f94:	009f5026 	xor	t2,a0,ra
80001f98:	ac650038 	sw	a1,56(v1)
80001f9c:	25980006 	addiu	t8,t4,6
80001fa0:	ac6b003c 	sw	t3,60(v1)
80001fa4:	01e04825 	move	t1,t7
80001fa8:	ac6a0040 	sw	t2,64(v1)
80001fac:	258c0009 	addiu	t4,t4,9
80001fb0:	240f004f 	li	t7,79
80001fb4:	24630024 	addiu	v1,v1,36
80001fb8:	03204025 	move	t0,t9
80001fbc:	02403825 	move	a3,s2
80001fc0:	02c02025 	move	a0,s6
80001fc4:	01c01025 	move	v0,t6
80001fc8:	158fffc2 	bne	t4,t7,80001ed4 <sha_stream+0xb34>
80001fcc:	00000000 	nop
80001fd0:	0018c880 	sll	t9,t8,0x2
80001fd4:	27b20210 	addiu	s2,sp,528
80001fd8:	0259b821 	addu	s7,s2,t9
80001fdc:	02179823 	subu	s3,s0,s7
80001fe0:	8eeeffec 	lw	t6,-20(s7)
80001fe4:	26e20004 	addiu	v0,s7,4
80001fe8:	8eed0000 	lw	t5,0(s7)
80001fec:	2676fffc 	addiu	s6,s3,-4
80001ff0:	8effffd4 	lw	ra,-44(s7)
80001ff4:	8ee6ffcc 	lw	a2,-52(s7)
80001ff8:	0016c082 	srl	t8,s6,0x2
80001ffc:	01cd2826 	xor	a1,t6,t5
80002000:	00bf5826 	xor	t3,a1,ra
80002004:	01665026 	xor	t2,t3,a2
80002008:	330c0007 	andi	t4,t8,0x7
8000200c:	aeea000c 	sw	t2,12(s7)
80002010:	1202009b 	beq	s0,v0,80002280 <sha_stream+0xee0>
80002014:	00000000 	nop
80002018:	11800054 	beqz	t4,8000216c <sha_stream+0xdcc>
8000201c:	00000000 	nop
80002020:	24030001 	li	v1,1
80002024:	11830046 	beq	t4,v1,80002140 <sha_stream+0xda0>
80002028:	00000000 	nop
8000202c:	24090002 	li	t1,2
80002030:	1189003a 	beq	t4,t1,8000211c <sha_stream+0xd7c>
80002034:	00000000 	nop
80002038:	24080003 	li	t0,3
8000203c:	1188002e 	beq	t4,t0,800020f8 <sha_stream+0xd58>
80002040:	00000000 	nop
80002044:	24070004 	li	a3,4
80002048:	11870022 	beq	t4,a3,800020d4 <sha_stream+0xd34>
8000204c:	00000000 	nop
80002050:	24040005 	li	a0,5
80002054:	11840016 	beq	t4,a0,800020b0 <sha_stream+0xd10>
80002058:	00000000 	nop
8000205c:	240f0006 	li	t7,6
80002060:	118f000a 	beq	t4,t7,8000208c <sha_stream+0xcec>
80002064:	00000000 	nop
80002068:	8c59ffec 	lw	t9,-20(v0)
8000206c:	8c520000 	lw	s2,0(v0)
80002070:	8c53ffd4 	lw	s3,-44(v0)
80002074:	8c4effcc 	lw	t6,-52(v0)
80002078:	03326826 	xor	t5,t9,s2
8000207c:	01b3b026 	xor	s6,t5,s3
80002080:	02cef826 	xor	ra,s6,t6
80002084:	ac5f000c 	sw	ra,12(v0)
80002088:	26e20008 	addiu	v0,s7,8
8000208c:	8c57ffec 	lw	s7,-20(v0)
80002090:	24420004 	addiu	v0,v0,4
80002094:	8c46fffc 	lw	a2,-4(v0)
80002098:	8c58ffd0 	lw	t8,-48(v0)
8000209c:	8c45ffc8 	lw	a1,-56(v0)
800020a0:	02e65826 	xor	t3,s7,a2
800020a4:	01785026 	xor	t2,t3,t8
800020a8:	01456026 	xor	t4,t2,a1
800020ac:	ac4c0008 	sw	t4,8(v0)
800020b0:	8c49ffec 	lw	t1,-20(v0)
800020b4:	24420004 	addiu	v0,v0,4
800020b8:	8c48fffc 	lw	t0,-4(v0)
800020bc:	8c43ffd0 	lw	v1,-48(v0)
800020c0:	8c47ffc8 	lw	a3,-56(v0)
800020c4:	01282026 	xor	a0,t1,t0
800020c8:	00837826 	xor	t7,a0,v1
800020cc:	01e7c826 	xor	t9,t7,a3
800020d0:	ac590008 	sw	t9,8(v0)
800020d4:	8c52ffec 	lw	s2,-20(v0)
800020d8:	24420004 	addiu	v0,v0,4
800020dc:	8c53fffc 	lw	s3,-4(v0)
800020e0:	8c4effd0 	lw	t6,-48(v0)
800020e4:	8c4dffc8 	lw	t5,-56(v0)
800020e8:	0253b026 	xor	s6,s2,s3
800020ec:	02cef826 	xor	ra,s6,t6
800020f0:	03edb826 	xor	s7,ra,t5
800020f4:	ac570008 	sw	s7,8(v0)
800020f8:	8c58ffec 	lw	t8,-20(v0)
800020fc:	24420004 	addiu	v0,v0,4
80002100:	8c46fffc 	lw	a2,-4(v0)
80002104:	8c4bffd0 	lw	t3,-48(v0)
80002108:	8c45ffc8 	lw	a1,-56(v0)
8000210c:	03065026 	xor	t2,t8,a2
80002110:	014b6026 	xor	t4,t2,t3
80002114:	01854826 	xor	t1,t4,a1
80002118:	ac490008 	sw	t1,8(v0)
8000211c:	8c48ffec 	lw	t0,-20(v0)
80002120:	24420004 	addiu	v0,v0,4
80002124:	8c47fffc 	lw	a3,-4(v0)
80002128:	8c43ffd0 	lw	v1,-48(v0)
8000212c:	8c4fffc8 	lw	t7,-56(v0)
80002130:	01072026 	xor	a0,t0,a3
80002134:	0083c826 	xor	t9,a0,v1
80002138:	032f9026 	xor	s2,t9,t7
8000213c:	ac520008 	sw	s2,8(v0)
80002140:	8c53ffec 	lw	s3,-20(v0)
80002144:	24420004 	addiu	v0,v0,4
80002148:	8c4efffc 	lw	t6,-4(v0)
8000214c:	8c4dffd0 	lw	t5,-48(v0)
80002150:	8c56ffc8 	lw	s6,-56(v0)
80002154:	026ef826 	xor	ra,s3,t6
80002158:	03edb826 	xor	s7,ra,t5
8000215c:	02f6c026 	xor	t8,s7,s6
80002160:	ac580008 	sw	t8,8(v0)
80002164:	12020046 	beq	s0,v0,80002280 <sha_stream+0xee0>
80002168:	00000000 	nop
8000216c:	8c4affec 	lw	t2,-20(v0)
80002170:	24480004 	addiu	t0,v0,4
80002174:	8c450000 	lw	a1,0(v0)
80002178:	244f0008 	addiu	t7,v0,8
8000217c:	8c49ffd4 	lw	t1,-44(v0)
80002180:	244c000c 	addiu	t4,v0,12
80002184:	8c46ffcc 	lw	a2,-52(v0)
80002188:	244b0010 	addiu	t3,v0,16
8000218c:	01453826 	xor	a3,t2,a1
80002190:	8c440004 	lw	a0,4(v0)
80002194:	00e91826 	xor	v1,a3,t1
80002198:	8c4dfff0 	lw	t5,-16(v0)
8000219c:	0066c826 	xor	t9,v1,a2
800021a0:	8c4effd8 	lw	t6,-40(v0)
800021a4:	24520014 	addiu	s2,v0,20
800021a8:	ac59000c 	sw	t9,12(v0)
800021ac:	01a4b826 	xor	s7,t5,a0
800021b0:	8d1fffcc 	lw	ra,-52(t0)
800021b4:	02eec026 	xor	t8,s7,t6
800021b8:	24530018 	addiu	s3,v0,24
800021bc:	2456001c 	addiu	s6,v0,28
800021c0:	031f5026 	xor	t2,t8,ra
800021c4:	24420020 	addiu	v0,v0,32
800021c8:	ad0a000c 	sw	t2,12(t0)
800021cc:	8de8ffec 	lw	t0,-20(t7)
800021d0:	8c49ffe8 	lw	t1,-24(v0)
800021d4:	8de6ffd4 	lw	a2,-44(t7)
800021d8:	8de5ffcc 	lw	a1,-52(t7)
800021dc:	01093826 	xor	a3,t0,t1
800021e0:	00e62026 	xor	a0,a3,a2
800021e4:	00857026 	xor	t6,a0,a1
800021e8:	adee000c 	sw	t6,12(t7)
800021ec:	8d8fffec 	lw	t7,-20(t4)
800021f0:	8d8dffd4 	lw	t5,-44(t4)
800021f4:	8d9fffcc 	lw	ra,-52(t4)
800021f8:	01f91826 	xor	v1,t7,t9
800021fc:	006dc826 	xor	t9,v1,t5
80002200:	033fb826 	xor	s7,t9,ra
80002204:	ad97000c 	sw	s7,12(t4)
80002208:	8d78ffec 	lw	t8,-20(t3)
8000220c:	8d69ffd4 	lw	t1,-44(t3)
80002210:	8d6cffcc 	lw	t4,-52(t3)
80002214:	030a5026 	xor	t2,t8,t2
80002218:	01494026 	xor	t0,t2,t1
8000221c:	010c3826 	xor	a3,t0,t4
80002220:	ad67000c 	sw	a3,12(t3)
80002224:	8e46ffec 	lw	a2,-20(s2)
80002228:	8e4bffd4 	lw	t3,-44(s2)
8000222c:	8e44ffcc 	lw	a0,-52(s2)
80002230:	00ce2826 	xor	a1,a2,t6
80002234:	00ab7026 	xor	t6,a1,t3
80002238:	01c47826 	xor	t7,t6,a0
8000223c:	ae4f000c 	sw	t7,12(s2)
80002240:	8e72ffec 	lw	s2,-20(s3)
80002244:	8e6dffd4 	lw	t5,-44(s3)
80002248:	8e7fffcc 	lw	ra,-52(s3)
8000224c:	02571826 	xor	v1,s2,s7
80002250:	006dc826 	xor	t9,v1,t5
80002254:	033fb826 	xor	s7,t9,ra
80002258:	ae77000c 	sw	s7,12(s3)
8000225c:	8ed3ffec 	lw	s3,-20(s6)
80002260:	8ed8ffd4 	lw	t8,-44(s6)
80002264:	8ec9ffcc 	lw	t1,-52(s6)
80002268:	02676026 	xor	t4,s3,a3
8000226c:	01985026 	xor	t2,t4,t8
80002270:	01494026 	xor	t0,t2,t1
80002274:	aec8000c 	sw	t0,12(s6)
80002278:	1602ffbc 	bne	s0,v0,8000216c <sha_stream+0xdcc>
8000227c:	00000000 	nop
80002280:	8e2c0000 	lw	t4,0(s1)
80002284:	3c105a82 	lui	s0,0x5a82
80002288:	8e2a000c 	lw	t2,12(s1)
8000228c:	27af0214 	addiu	t7,sp,532
80002290:	8e2d0008 	lw	t5,8(s1)
80002294:	26107999 	addiu	s0,s0,31129
80002298:	000c16c2 	srl	v0,t4,0x1b
8000229c:	8e2b0004 	lw	t3,4(s1)
800022a0:	000cb140 	sll	s6,t4,0x5
800022a4:	8fa70210 	lw	a3,528(sp)
800022a8:	01aa3026 	xor	a2,t5,t2
800022ac:	8e2e0010 	lw	t6,16(s1)
800022b0:	02c22025 	or	a0,s6,v0
800022b4:	00902821 	addu	a1,a0,s0
800022b8:	00cb9024 	and	s2,a2,t3
800022bc:	00a7f821 	addu	ra,a1,a3
800022c0:	024a1826 	xor	v1,s2,t2
800022c4:	03e3b821 	addu	s7,ra,v1
800022c8:	000b9882 	srl	s3,t3,0x2
800022cc:	000bc780 	sll	t8,t3,0x1e
800022d0:	01802025 	move	a0,t4
800022d4:	01409025 	move	s2,t2
800022d8:	01a0c825 	move	t9,t5
800022dc:	03134825 	or	t1,t8,s3
800022e0:	02ee1021 	addu	v0,s7,t6
800022e4:	1000001d 	b	8000235c <sha_stream+0xfbc>
800022e8:	00000000 	nop
800022ec:	0003b140 	sll	s6,v1,0x5
800022f0:	8dff0004 	lw	ra,4(t7)
800022f4:	00039ec2 	srl	s3,v1,0x1b
800022f8:	8de70008 	lw	a3,8(t7)
800022fc:	02e92826 	xor	a1,s7,t1
80002300:	02d32025 	or	a0,s6,s3
80002304:	00909021 	addu	s2,a0,s0
80002308:	00a21024 	and	v0,a1,v0
8000230c:	025fc021 	addu	t8,s2,ra
80002310:	00494026 	xor	t0,v0,t1
80002314:	0308b021 	addu	s6,t8,t0
80002318:	00d7f826 	xor	ra,a2,s7
8000231c:	02d92021 	addu	a0,s6,t9
80002320:	03e3c824 	and	t9,ra,v1
80002324:	00049940 	sll	s3,a0,0x5
80002328:	00042ec2 	srl	a1,a0,0x1b
8000232c:	03379026 	xor	s2,t9,s7
80002330:	02651025 	or	v0,s3,a1
80002334:	00504021 	addu	t0,v0,s0
80002338:	0003c082 	srl	t8,v1,0x2
8000233c:	01073821 	addu	a3,t0,a3
80002340:	00031f80 	sll	v1,v1,0x1e
80002344:	00f2b021 	addu	s6,a3,s2
80002348:	25ef000c 	addiu	t7,t7,12
8000234c:	02c91021 	addu	v0,s6,t1
80002350:	02e09025 	move	s2,s7
80002354:	00c0c825 	move	t9,a2
80002358:	00784825 	or	t1,v1,t8
8000235c:	00022940 	sll	a1,v0,0x5
80002360:	8de70000 	lw	a3,0(t7)
80002364:	0002fec2 	srl	ra,v0,0x1b
80002368:	0002b082 	srl	s6,v0,0x2
8000236c:	00bf1825 	or	v1,a1,ra
80002370:	0070b821 	addu	s7,v1,s0
80002374:	00024780 	sll	t0,v0,0x1e
80002378:	01399826 	xor	s3,t1,t9
8000237c:	01163025 	or	a2,t0,s6
80002380:	0264c024 	and	t8,s3,a0
80002384:	02e7b021 	addu	s6,s7,a3
80002388:	03192826 	xor	a1,t8,t9
8000238c:	02c5f821 	addu	ra,s6,a1
80002390:	00043882 	srl	a3,a0,0x2
80002394:	00044780 	sll	t0,a0,0x1e
80002398:	03f21821 	addu	v1,ra,s2
8000239c:	25e40004 	addiu	a0,t7,4
800023a0:	27b20260 	addiu	s2,sp,608
800023a4:	0107b825 	or	s7,t0,a3
800023a8:	1644ffd0 	bne	s2,a0,800022ec <sha_stream+0xf4c>
800023ac:	00000000 	nop
800023b0:	00038140 	sll	s0,v1,0x5
800023b4:	8fa60260 	lw	a2,608(sp)
800023b8:	00039ec2 	srl	s3,v1,0x1b
800023bc:	3c166ed9 	lui	s6,0x6ed9
800023c0:	0213c025 	or	t8,s0,s3
800023c4:	36c7eba1 	ori	a3,s6,0xeba1
800023c8:	03074021 	addu	t0,t8,a3
800023cc:	00572826 	xor	a1,v0,s7
800023d0:	00a9f826 	xor	ra,a1,t1
800023d4:	03e82021 	addu	a0,ra,t0
800023d8:	00029082 	srl	s2,v0,0x2
800023dc:	00868021 	addu	s0,a0,a2
800023e0:	00023780 	sll	a2,v0,0x1e
800023e4:	02199821 	addu	s3,s0,t9
800023e8:	00601025 	move	v0,v1
800023ec:	0120c825 	move	t9,t1
800023f0:	25f80008 	addiu	t8,t7,8
800023f4:	02e04825 	move	t1,s7
800023f8:	02601825 	move	v1,s3
800023fc:	00d24025 	or	t0,a2,s2
80002400:	1000000f 	b	80002440 <sha_stream+0x10a0>
80002404:	00000000 	nop
80002408:	00029940 	sll	s3,v0,0x5
8000240c:	8f100004 	lw	s0,4(t8)
80002410:	0002bec2 	srl	s7,v0,0x1b
80002414:	007fc826 	xor	t9,v1,ra
80002418:	02771825 	or	v1,s3,s7
8000241c:	00672821 	addu	a1,v1,a3
80002420:	03282026 	xor	a0,t9,t0
80002424:	00859021 	addu	s2,a0,a1
80002428:	27180008 	addiu	t8,t8,8
8000242c:	02507821 	addu	t7,s2,s0
80002430:	0100c825 	move	t9,t0
80002434:	01e91821 	addu	v1,t7,t1
80002438:	02c64025 	or	t0,s6,a2
8000243c:	03e04825 	move	t1,ra
80002440:	00037940 	sll	t7,v1,0x5
80002444:	8f170000 	lw	s7,0(t8)
80002448:	0003b6c2 	srl	s6,v1,0x1b
8000244c:	0048f826 	xor	ra,v0,t0
80002450:	01f62825 	or	a1,t7,s6
80002454:	00a79021 	addu	s2,a1,a3
80002458:	03e92026 	xor	a0,ra,t1
8000245c:	00928021 	addu	s0,a0,s2
80002460:	00029882 	srl	s3,v0,0x2
80002464:	00027f80 	sll	t7,v0,0x1e
80002468:	02171021 	addu	v0,s0,s7
8000246c:	27170004 	addiu	s7,t8,4
80002470:	00033082 	srl	a2,v1,0x2
80002474:	0003b780 	sll	s6,v1,0x1e
80002478:	00591021 	addu	v0,v0,t9
8000247c:	01f3f825 	or	ra,t7,s3
80002480:	1697ffe1 	bne	s4,s7,80002408 <sha_stream+0x1068>
80002484:	00000000 	nop
80002488:	0002c940 	sll	t9,v0,0x5
8000248c:	8e940000 	lw	s4,0(s4)
80002490:	00023ec2 	srl	a3,v0,0x1b
80002494:	3c128f1b 	lui	s2,0x8f1b
80002498:	03272825 	or	a1,t9,a3
8000249c:	3659bcdc 	ori	t9,s2,0xbcdc
800024a0:	00b98021 	addu	s0,a1,t9
800024a4:	03e89825 	or	s3,ra,t0
800024a8:	02637824 	and	t7,s3,v1
800024ac:	03e82024 	and	a0,ra,t0
800024b0:	0214b821 	addu	s7,s0,s4
800024b4:	01e43025 	or	a2,t7,a0
800024b8:	00d7b021 	addu	s6,a2,s7
800024bc:	0003a082 	srl	s4,v1,0x2
800024c0:	02c93821 	addu	a3,s6,t1
800024c4:	00032f80 	sll	a1,v1,0x1e
800024c8:	01004825 	move	t1,t0
800024cc:	00401825 	move	v1,v0
800024d0:	03e04025 	move	t0,ra
800024d4:	27180008 	addiu	t8,t8,8
800024d8:	00b47825 	or	t7,a1,s4
800024dc:	00e01025 	move	v0,a3
800024e0:	10000011 	b	80002528 <sha_stream+0x1188>
800024e4:	00000000 	nop
800024e8:	00034940 	sll	t1,v1,0x5
800024ec:	8f160004 	lw	s6,4(t8)
800024f0:	00032ec2 	srl	a1,v1,0x1b
800024f4:	02ef2025 	or	a0,s7,t7
800024f8:	0125a025 	or	s4,t1,a1
800024fc:	02993821 	addu	a3,s4,t9
80002500:	0082f824 	and	ra,a0,v0
80002504:	00f69021 	addu	s2,a3,s6
80002508:	02ef1024 	and	v0,s7,t7
8000250c:	03e23025 	or	a2,ra,v0
80002510:	00d24821 	addu	t1,a2,s2
80002514:	27180008 	addiu	t8,t8,8
80002518:	01281021 	addu	v0,t1,t0
8000251c:	01e04825 	move	t1,t7
80002520:	02e04025 	move	t0,s7
80002524:	02707825 	or	t7,s3,s0
80002528:	0002f940 	sll	ra,v0,0x5
8000252c:	8f120000 	lw	s2,0(t8)
80002530:	000286c2 	srl	s0,v0,0x1b
80002534:	01e89825 	or	s3,t7,t0
80002538:	03f02025 	or	a0,ra,s0
8000253c:	0099b821 	addu	s7,a0,t9
80002540:	0263b024 	and	s6,s3,v1
80002544:	02f2a021 	addu	s4,s7,s2
80002548:	01e83024 	and	a2,t7,t0
8000254c:	02c63825 	or	a3,s6,a2
80002550:	00032882 	srl	a1,v1,0x2
80002554:	0003ff80 	sll	ra,v1,0x1e
80002558:	27120004 	addiu	s2,t8,4
8000255c:	00f41821 	addu	v1,a3,s4
80002560:	00028082 	srl	s0,v0,0x2
80002564:	00029f80 	sll	s3,v0,0x1e
80002568:	00691821 	addu	v1,v1,t1
8000256c:	03e5b825 	or	s7,ra,a1
80002570:	17d2ffdd 	bne	s8,s2,800024e8 <sha_stream+0x1148>
80002574:	00000000 	nop
80002578:	0003cec2 	srl	t9,v1,0x1b
8000257c:	8fde0000 	lw	s8,0(s8)
80002580:	00034940 	sll	t1,v1,0x5
80002584:	3c06ca62 	lui	a2,0xca62
80002588:	01392025 	or	a0,t1,t9
8000258c:	34d9c1d6 	ori	t9,a2,0xc1d6
80002590:	0057b026 	xor	s6,v0,s7
80002594:	0099a021 	addu	s4,a0,t9
80002598:	02cf3826 	xor	a3,s6,t7
8000259c:	00f4f821 	addu	ra,a3,s4
800025a0:	02002825 	move	a1,s0
800025a4:	03fe9021 	addu	s2,ra,s8
800025a8:	00028780 	sll	s0,v0,0x1e
800025ac:	02489821 	addu	s3,s2,t0
800025b0:	00601025 	move	v0,v1
800025b4:	01e04025 	move	t0,t7
800025b8:	27180008 	addiu	t8,t8,8
800025bc:	02e07825 	move	t7,s7
800025c0:	02601825 	move	v1,s3
800025c4:	02053025 	or	a2,s0,a1
800025c8:	1000000f 	b	80002608 <sha_stream+0x1268>
800025cc:	00000000 	nop
800025d0:	00024140 	sll	t0,v0,0x5
800025d4:	8f090004 	lw	t1,4(t8)
800025d8:	0002b6c2 	srl	s6,v0,0x1b
800025dc:	007e2026 	xor	a0,v1,s8
800025e0:	01161825 	or	v1,t0,s6
800025e4:	0079a021 	addu	s4,v1,t9
800025e8:	00863826 	xor	a3,a0,a2
800025ec:	00f4f821 	addu	ra,a3,s4
800025f0:	27180008 	addiu	t8,t8,8
800025f4:	03e99021 	addu	s2,ra,t1
800025f8:	00c04025 	move	t0,a2
800025fc:	024f1821 	addu	v1,s2,t7
80002600:	00b73025 	or	a2,a1,s7
80002604:	03c07825 	move	t7,s8
80002608:	0003b940 	sll	s7,v1,0x5
8000260c:	8f1e0000 	lw	s8,0(t8)
80002610:	00034ec2 	srl	t1,v1,0x1b
80002614:	00462026 	xor	a0,v0,a2
80002618:	02e9b025 	or	s6,s7,t1
8000261c:	02d9a021 	addu	s4,s6,t9
80002620:	008f3826 	xor	a3,a0,t7
80002624:	00f4f821 	addu	ra,a3,s4
80002628:	00029082 	srl	s2,v0,0x2
8000262c:	00028780 	sll	s0,v0,0x1e
80002630:	27130004 	addiu	s3,t8,4
80002634:	03fe1021 	addu	v0,ra,s8
80002638:	0003b882 	srl	s7,v1,0x2
8000263c:	00032f80 	sll	a1,v1,0x1e
80002640:	00481021 	addu	v0,v0,t0
80002644:	0212f025 	or	s8,s0,s2
80002648:	16b3ffe1 	bne	s5,s3,800025d0 <sha_stream+0x1230>
8000264c:	00000000 	nop
80002650:	0182a821 	addu	s5,t4,v0
80002654:	8fbf038c 	lw	ra,908(sp)
80002658:	01be6821 	addu	t5,t5,s8
8000265c:	8fb70384 	lw	s7,900(sp)
80002660:	01635821 	addu	t3,t3,v1
80002664:	8fbe0388 	lw	s8,904(sp)
80002668:	01466021 	addu	t4,t2,a2
8000266c:	8fb60380 	lw	s6,896(sp)
80002670:	01cf7021 	addu	t6,t6,t7
80002674:	8fb40378 	lw	s4,888(sp)
80002678:	8fb30374 	lw	s3,884(sp)
8000267c:	8fb20370 	lw	s2,880(sp)
80002680:	8fb00368 	lw	s0,872(sp)
80002684:	ae350000 	sw	s5,0(s1)
80002688:	ae2b0004 	sw	t3,4(s1)
8000268c:	ae2d0008 	sw	t5,8(s1)
80002690:	ae2c000c 	sw	t4,12(s1)
80002694:	ae2e0010 	sw	t6,16(s1)
80002698:	8fb5037c 	lw	s5,892(sp)
8000269c:	8fb1036c 	lw	s1,876(sp)
800026a0:	27bd0390 	addiu	sp,sp,912
800026a4:	03e00008 	jr	ra
800026a8:	00000000 	nop
800026ac:	8fa90358 	lw	t1,856(sp)
800026b0:	24080040 	li	t0,64
800026b4:	01193023 	subu	a2,t0,t9
800026b8:	01392021 	addu	a0,t1,t9
800026bc:	0c000f3e 	jal	80003cf8 <memset>
800026c0:	00000000 	nop
800026c4:	240b0010 	li	t3,16
800026c8:	8e380024 	lw	t8,36(s1)
800026cc:	27a50230 	addiu	a1,sp,560
800026d0:	8e2f0028 	lw	t7,40(s1)
800026d4:	8e2e002c 	lw	t6,44(s1)
800026d8:	8e2d0030 	lw	t5,48(s1)
800026dc:	03005025 	move	t2,t8
800026e0:	8e2c0034 	lw	t4,52(s1)
800026e4:	01e04825 	move	t1,t7
800026e8:	8e3f001c 	lw	ra,28(s1)
800026ec:	01c04025 	move	t0,t6
800026f0:	8e330038 	lw	s3,56(s1)
800026f4:	01a03825 	move	a3,t5
800026f8:	8e370054 	lw	s7,84(s1)
800026fc:	01803025 	move	a2,t4
80002700:	8e360058 	lw	s6,88(s1)
80002704:	8e220050 	lw	v0,80(s1)
80002708:	0260c825 	move	t9,s3
8000270c:	afbf0210 	sw	ra,528(sp)
80002710:	02e02025 	move	a0,s7
80002714:	afb80218 	sw	t8,536(sp)
80002718:	02c01825 	move	v1,s6
8000271c:	afaf021c 	sw	t7,540(sp)
80002720:	afae0220 	sw	t6,544(sp)
80002724:	afad0224 	sw	t5,548(sp)
80002728:	afac0228 	sw	t4,552(sp)
8000272c:	afb3022c 	sw	s3,556(sp)
80002730:	afa20244 	sw	v0,580(sp)
80002734:	afb70248 	sw	s7,584(sp)
80002738:	afb6024c 	sw	s6,588(sp)
8000273c:	8e3f0020 	lw	ra,32(s1)
80002740:	8e38003c 	lw	t8,60(s1)
80002744:	8e2f0040 	lw	t7,64(s1)
80002748:	8e2e0044 	lw	t6,68(s1)
8000274c:	8e2d0048 	lw	t5,72(s1)
80002750:	8e2c004c 	lw	t4,76(s1)
80002754:	afbf0214 	sw	ra,532(sp)
80002758:	afb80230 	sw	t8,560(sp)
8000275c:	afaf0234 	sw	t7,564(sp)
80002760:	afae0238 	sw	t6,568(sp)
80002764:	afad023c 	sw	t5,572(sp)
80002768:	afac0240 	sw	t4,576(sp)
8000276c:	8cb70000 	lw	s7,0(a1)
80002770:	01421026 	xor	v0,t2,v0
80002774:	8cb60008 	lw	s6,8(a1)
80002778:	01244826 	xor	t1,t1,a0
8000277c:	8caa0004 	lw	t2,4(a1)
80002780:	01032026 	xor	a0,t0,v1
80002784:	8cbfffe0 	lw	ra,-32(a1)
80002788:	00574026 	xor	t0,v0,s7
8000278c:	8cadffe8 	lw	t5,-24(a1)
80002790:	00966026 	xor	t4,a0,s6
80002794:	8cafffe4 	lw	t7,-28(a1)
80002798:	012a1826 	xor	v1,t1,t2
8000279c:	011f7026 	xor	t6,t0,ra
800027a0:	8cb8000c 	lw	t8,12(a1)
800027a4:	018d4826 	xor	t1,t4,t5
800027a8:	8cbf0010 	lw	ra,16(a1)
800027ac:	8ca80014 	lw	t0,20(a1)
800027b0:	006f9826 	xor	s3,v1,t7
800027b4:	8cadfff0 	lw	t5,-16(a1)
800027b8:	03297826 	xor	t7,t9,t1
800027bc:	8cacfff4 	lw	t4,-12(a1)
800027c0:	00d33026 	xor	a2,a2,s3
800027c4:	8cb9ffec 	lw	t9,-20(a1)
800027c8:	00ee3826 	xor	a3,a3,t6
800027cc:	00f82026 	xor	a0,a3,t8
800027d0:	8ca70018 	lw	a3,24(a1)
800027d4:	00df1026 	xor	v0,a2,ra
800027d8:	acb30024 	sw	s3,36(a1)
800027dc:	01e81826 	xor	v1,t7,t0
800027e0:	aca90028 	sw	t1,40(a1)
800027e4:	8caf001c 	lw	t7,28(a1)
800027e8:	00999826 	xor	s3,a0,t9
800027ec:	004d4826 	xor	t1,v0,t5
800027f0:	8cb9fff8 	lw	t9,-8(a1)
800027f4:	006c3026 	xor	a2,v1,t4
800027f8:	8ca4fffc 	lw	a0,-4(a1)
800027fc:	8ca30000 	lw	v1,0(a1)
80002800:	01495026 	xor	t2,t2,t1
80002804:	02f3b826 	xor	s7,s7,s3
80002808:	acb3002c 	sw	s3,44(a1)
8000280c:	02c6b026 	xor	s6,s6,a2
80002810:	aca90030 	sw	t1,48(a1)
80002814:	014f9826 	xor	s3,t2,t7
80002818:	aca60034 	sw	a2,52(a1)
8000281c:	02ce6826 	xor	t5,s6,t6
80002820:	acae0020 	sw	t6,32(a1)
80002824:	02e71026 	xor	v0,s7,a3
80002828:	00591026 	xor	v0,v0,t9
8000282c:	256c0006 	addiu	t4,t3,6
80002830:	02642026 	xor	a0,s3,a0
80002834:	aca20038 	sw	v0,56(a1)
80002838:	01a31826 	xor	v1,t5,v1
8000283c:	03005025 	move	t2,t8
80002840:	aca4003c 	sw	a0,60(a1)
80002844:	256b0009 	addiu	t3,t3,9
80002848:	aca30040 	sw	v1,64(a1)
8000284c:	2418004f 	li	t8,79
80002850:	24a50024 	addiu	a1,a1,36
80002854:	03e04825 	move	t1,ra
80002858:	01e03025 	move	a2,t7
8000285c:	01c0c825 	move	t9,t6
80002860:	1578ffc2 	bne	t3,t8,8000276c <sha_stream+0x13cc>
80002864:	00000000 	nop
80002868:	000c7080 	sll	t6,t4,0x2
8000286c:	27bf0210 	addiu	ra,sp,528
80002870:	03ee4021 	addu	t0,ra,t6
80002874:	0208b823 	subu	s7,s0,t0
80002878:	8d0fffec 	lw	t7,-20(t0)
8000287c:	25020004 	addiu	v0,t0,4
80002880:	8d070000 	lw	a3,0(t0)
80002884:	26f6fffc 	addiu	s6,s7,-4
80002888:	8d0dffd4 	lw	t5,-44(t0)
8000288c:	8d13ffcc 	lw	s3,-52(t0)
80002890:	00166082 	srl	t4,s6,0x2
80002894:	01e72026 	xor	a0,t7,a3
80002898:	008d1826 	xor	v1,a0,t5
8000289c:	00735826 	xor	t3,v1,s3
800028a0:	31850007 	andi	a1,t4,0x7
800028a4:	ad0b000c 	sw	t3,12(t0)
800028a8:	1202009b 	beq	s0,v0,80002b18 <sha_stream+0x1778>
800028ac:	00000000 	nop
800028b0:	10a00054 	beqz	a1,80002a04 <sha_stream+0x1664>
800028b4:	00000000 	nop
800028b8:	240a0001 	li	t2,1
800028bc:	10aa0046 	beq	a1,t2,800029d8 <sha_stream+0x1638>
800028c0:	00000000 	nop
800028c4:	24090002 	li	t1,2
800028c8:	10a9003a 	beq	a1,t1,800029b4 <sha_stream+0x1614>
800028cc:	00000000 	nop
800028d0:	24060003 	li	a2,3
800028d4:	10a6002e 	beq	a1,a2,80002990 <sha_stream+0x15f0>
800028d8:	00000000 	nop
800028dc:	24190004 	li	t9,4
800028e0:	10b90022 	beq	a1,t9,8000296c <sha_stream+0x15cc>
800028e4:	00000000 	nop
800028e8:	24180005 	li	t8,5
800028ec:	10b80016 	beq	a1,t8,80002948 <sha_stream+0x15a8>
800028f0:	00000000 	nop
800028f4:	240e0006 	li	t6,6
800028f8:	10ae000a 	beq	a1,t6,80002924 <sha_stream+0x1584>
800028fc:	00000000 	nop
80002900:	8c5fffec 	lw	ra,-20(v0)
80002904:	8c570000 	lw	s7,0(v0)
80002908:	8c4fffd4 	lw	t7,-44(v0)
8000290c:	8c47ffcc 	lw	a3,-52(v0)
80002910:	03f7b026 	xor	s6,ra,s7
80002914:	02cf6826 	xor	t5,s6,t7
80002918:	01a79826 	xor	s3,t5,a3
8000291c:	ac53000c 	sw	s3,12(v0)
80002920:	25020008 	addiu	v0,t0,8
80002924:	8c48ffec 	lw	t0,-20(v0)
80002928:	24420004 	addiu	v0,v0,4
8000292c:	8c4cfffc 	lw	t4,-4(v0)
80002930:	8c43ffd0 	lw	v1,-48(v0)
80002934:	8c4bffc8 	lw	t3,-56(v0)
80002938:	010c2026 	xor	a0,t0,t4
8000293c:	00832826 	xor	a1,a0,v1
80002940:	00ab5026 	xor	t2,a1,t3
80002944:	ac4a0008 	sw	t2,8(v0)
80002948:	8c49ffec 	lw	t1,-20(v0)
8000294c:	24420004 	addiu	v0,v0,4
80002950:	8c46fffc 	lw	a2,-4(v0)
80002954:	8c59ffd0 	lw	t9,-48(v0)
80002958:	8c58ffc8 	lw	t8,-56(v0)
8000295c:	01267026 	xor	t6,t1,a2
80002960:	01d9f826 	xor	ra,t6,t9
80002964:	03f8b826 	xor	s7,ra,t8
80002968:	ac570008 	sw	s7,8(v0)
8000296c:	8c4fffec 	lw	t7,-20(v0)
80002970:	24420004 	addiu	v0,v0,4
80002974:	8c47fffc 	lw	a3,-4(v0)
80002978:	8c56ffd0 	lw	s6,-48(v0)
8000297c:	8c4dffc8 	lw	t5,-56(v0)
80002980:	01e79826 	xor	s3,t7,a3
80002984:	02764026 	xor	t0,s3,s6
80002988:	010d6026 	xor	t4,t0,t5
8000298c:	ac4c0008 	sw	t4,8(v0)
80002990:	8c4bffec 	lw	t3,-20(v0)
80002994:	24420004 	addiu	v0,v0,4
80002998:	8c44fffc 	lw	a0,-4(v0)
8000299c:	8c43ffd0 	lw	v1,-48(v0)
800029a0:	8c45ffc8 	lw	a1,-56(v0)
800029a4:	01645026 	xor	t2,t3,a0
800029a8:	01434826 	xor	t1,t2,v1
800029ac:	01253026 	xor	a2,t1,a1
800029b0:	ac460008 	sw	a2,8(v0)
800029b4:	8c59ffec 	lw	t9,-20(v0)
800029b8:	24420004 	addiu	v0,v0,4
800029bc:	8c58fffc 	lw	t8,-4(v0)
800029c0:	8c4effd0 	lw	t6,-48(v0)
800029c4:	8c5fffc8 	lw	ra,-56(v0)
800029c8:	0338b826 	xor	s7,t9,t8
800029cc:	02ee7826 	xor	t7,s7,t6
800029d0:	01ff3826 	xor	a3,t7,ra
800029d4:	ac470008 	sw	a3,8(v0)
800029d8:	8c56ffec 	lw	s6,-20(v0)
800029dc:	24420004 	addiu	v0,v0,4
800029e0:	8c4dfffc 	lw	t5,-4(v0)
800029e4:	8c53ffd0 	lw	s3,-48(v0)
800029e8:	8c48ffc8 	lw	t0,-56(v0)
800029ec:	02cd6026 	xor	t4,s6,t5
800029f0:	01935826 	xor	t3,t4,s3
800029f4:	01682026 	xor	a0,t3,t0
800029f8:	ac440008 	sw	a0,8(v0)
800029fc:	12020046 	beq	s0,v0,80002b18 <sha_stream+0x1778>
80002a00:	00000000 	nop
80002a04:	8c4affec 	lw	t2,-20(v0)
80002a08:	24590004 	addiu	t9,v0,4
80002a0c:	8c450000 	lw	a1,0(v0)
80002a10:	24580008 	addiu	t8,v0,8
80002a14:	8c43ffd4 	lw	v1,-44(v0)
80002a18:	245f000c 	addiu	ra,v0,12
80002a1c:	8c49ffcc 	lw	t1,-52(v0)
80002a20:	24570010 	addiu	s7,v0,16
80002a24:	01453026 	xor	a2,t2,a1
80002a28:	8c4f0004 	lw	t7,4(v0)
80002a2c:	00c37026 	xor	t6,a2,v1
80002a30:	8c4dfff0 	lw	t5,-16(v0)
80002a34:	01c9b026 	xor	s6,t6,t1
80002a38:	8c48ffd8 	lw	t0,-40(v0)
80002a3c:	24530014 	addiu	s3,v0,20
80002a40:	ac56000c 	sw	s6,12(v0)
80002a44:	01af5826 	xor	t3,t5,t7
80002a48:	8f2cffcc 	lw	t4,-52(t9)
80002a4c:	01682026 	xor	a0,t3,t0
80002a50:	244a0018 	addiu	t2,v0,24
80002a54:	2447001c 	addiu	a3,v0,28
80002a58:	008c4826 	xor	t1,a0,t4
80002a5c:	24420020 	addiu	v0,v0,32
80002a60:	af29000c 	sw	t1,12(t9)
80002a64:	8f03ffec 	lw	v1,-20(t8)
80002a68:	8c59ffe8 	lw	t9,-24(v0)
80002a6c:	8f06ffd4 	lw	a2,-44(t8)
80002a70:	8f05ffcc 	lw	a1,-52(t8)
80002a74:	00797826 	xor	t7,v1,t9
80002a78:	01e67026 	xor	t6,t7,a2
80002a7c:	01c5c826 	xor	t9,t6,a1
80002a80:	af19000c 	sw	t9,12(t8)
80002a84:	8ff8ffec 	lw	t8,-20(ra)
80002a88:	8fedffd4 	lw	t5,-44(ra)
80002a8c:	8fe8ffcc 	lw	t0,-52(ra)
80002a90:	0316b026 	xor	s6,t8,s6
80002a94:	02cd6026 	xor	t4,s6,t5
80002a98:	01882026 	xor	a0,t4,t0
80002a9c:	afe4000c 	sw	a0,12(ra)
80002aa0:	8effffec 	lw	ra,-20(s7)
80002aa4:	8eebffd4 	lw	t3,-44(s7)
80002aa8:	8ee5ffcc 	lw	a1,-52(s7)
80002aac:	03e94826 	xor	t1,ra,t1
80002ab0:	012b1826 	xor	v1,t1,t3
80002ab4:	00657826 	xor	t7,v1,a1
80002ab8:	aeef000c 	sw	t7,12(s7)
80002abc:	8e77ffec 	lw	s7,-20(s3)
80002ac0:	8e66ffd4 	lw	a2,-44(s3)
80002ac4:	8e6effcc 	lw	t6,-52(s3)
80002ac8:	02f9c826 	xor	t9,s7,t9
80002acc:	0326c026 	xor	t8,t9,a2
80002ad0:	030e6826 	xor	t5,t8,t6
80002ad4:	ae6d000c 	sw	t5,12(s3)
80002ad8:	8d53ffec 	lw	s3,-20(t2)
80002adc:	8d48ffd4 	lw	t0,-44(t2)
80002ae0:	8d56ffcc 	lw	s6,-52(t2)
80002ae4:	02646026 	xor	t4,s3,a0
80002ae8:	01882026 	xor	a0,t4,t0
80002aec:	0096f826 	xor	ra,a0,s6
80002af0:	ad5f000c 	sw	ra,12(t2)
80002af4:	8ceaffec 	lw	t2,-20(a3)
80002af8:	8cebffd4 	lw	t3,-44(a3)
80002afc:	8ce5ffcc 	lw	a1,-52(a3)
80002b00:	014f4826 	xor	t1,t2,t7
80002b04:	012b1826 	xor	v1,t1,t3
80002b08:	00657826 	xor	t7,v1,a1
80002b0c:	acef000c 	sw	t7,12(a3)
80002b10:	1602ffbc 	bne	s0,v0,80002a04 <sha_stream+0x1664>
80002b14:	00000000 	nop
80002b18:	8e2f0000 	lw	t7,0(s1)
80002b1c:	3c025a82 	lui	v0,0x5a82
80002b20:	8e2d000c 	lw	t5,12(s1)
80002b24:	27a90214 	addiu	t1,sp,532
80002b28:	8e390008 	lw	t9,8(s1)
80002b2c:	24587999 	addiu	t8,v0,31129
80002b30:	000f3940 	sll	a3,t7,0x5
80002b34:	8e2e0004 	lw	t6,4(s1)
80002b38:	000fbec2 	srl	s7,t7,0x1b
80002b3c:	8fa60210 	lw	a2,528(sp)
80002b40:	032d9826 	xor	s3,t9,t5
80002b44:	8e3f0010 	lw	ra,16(s1)
80002b48:	00f74025 	or	t0,a3,s7
80002b4c:	0118b021 	addu	s6,t0,t8
80002b50:	026e6024 	and	t4,s3,t6
80002b54:	02c62021 	addu	a0,s6,a2
80002b58:	018d5026 	xor	t2,t4,t5
80002b5c:	008a5821 	addu	t3,a0,t2
80002b60:	000e1f80 	sll	v1,t6,0x1e
80002b64:	000e2882 	srl	a1,t6,0x2
80002b68:	01e03025 	move	a2,t7
80002b6c:	00655025 	or	t2,v1,a1
80002b70:	01a03825 	move	a3,t5
80002b74:	03206025 	move	t4,t9
80002b78:	017f1821 	addu	v1,t3,ra
80002b7c:	1000001d 	b	80002bf4 <sha_stream+0x1854>
80002b80:	00000000 	nop
80002b84:	0002b140 	sll	s6,v0,0x5
80002b88:	8d2b0004 	lw	t3,4(t1)
80002b8c:	00022ec2 	srl	a1,v0,0x1b
80002b90:	8d330008 	lw	s3,8(t1)
80002b94:	02ea3026 	xor	a2,s7,t2
80002b98:	02c53825 	or	a3,s6,a1
80002b9c:	00f82021 	addu	a0,a3,t8
80002ba0:	00c31824 	and	v1,a2,v1
80002ba4:	008bb021 	addu	s6,a0,t3
80002ba8:	006a5826 	xor	t3,v1,t2
80002bac:	02cb2821 	addu	a1,s6,t3
80002bb0:	01173826 	xor	a3,t0,s7
80002bb4:	00ac3021 	addu	a2,a1,t4
80002bb8:	00e26024 	and	t4,a3,v0
80002bbc:	00062140 	sll	a0,a2,0x5
80002bc0:	00061ec2 	srl	v1,a2,0x1b
80002bc4:	0197b026 	xor	s6,t4,s7
80002bc8:	00835825 	or	t3,a0,v1
80002bcc:	01782821 	addu	a1,t3,t8
80002bd0:	00022082 	srl	a0,v0,0x2
80002bd4:	00b39821 	addu	s3,a1,s3
80002bd8:	00021780 	sll	v0,v0,0x1e
80002bdc:	02763821 	addu	a3,s3,s6
80002be0:	2529000c 	addiu	t1,t1,12
80002be4:	00ea1821 	addu	v1,a3,t2
80002be8:	01006025 	move	t4,t0
80002bec:	02e03825 	move	a3,s7
80002bf0:	00445025 	or	t2,v0,a0
80002bf4:	0003b140 	sll	s6,v1,0x5
80002bf8:	8d370000 	lw	s7,0(t1)
80002bfc:	000326c2 	srl	a0,v1,0x1b
80002c00:	00031082 	srl	v0,v1,0x2
80002c04:	02c45825 	or	t3,s6,a0
80002c08:	00039f80 	sll	s3,v1,0x1e
80002c0c:	01782821 	addu	a1,t3,t8
80002c10:	02624025 	or	t0,s3,v0
80002c14:	014c1026 	xor	v0,t2,t4
80002c18:	00469824 	and	s3,v0,a2
80002c1c:	00b7b821 	addu	s7,a1,s7
80002c20:	026cb026 	xor	s6,s3,t4
80002c24:	02f65821 	addu	t3,s7,s6
80002c28:	00062082 	srl	a0,a2,0x2
80002c2c:	01671021 	addu	v0,t3,a3
80002c30:	00063780 	sll	a2,a2,0x1e
80002c34:	25250004 	addiu	a1,t1,4
80002c38:	27a70260 	addiu	a3,sp,608
80002c3c:	00c4b825 	or	s7,a2,a0
80002c40:	14e5ffd0 	bne	a3,a1,80002b84 <sha_stream+0x17e4>
80002c44:	00000000 	nop
80002c48:	0002c140 	sll	t8,v0,0x5
80002c4c:	8fb30260 	lw	s3,608(sp)
80002c50:	000246c2 	srl	t0,v0,0x1b
80002c54:	3c046ed9 	lui	a0,0x6ed9
80002c58:	0308b025 	or	s6,t8,t0
80002c5c:	3485eba1 	ori	a1,a0,0xeba1
80002c60:	00775826 	xor	t3,v1,s7
80002c64:	02c53021 	addu	a2,s6,a1
80002c68:	016a3826 	xor	a3,t3,t2
80002c6c:	00e6c021 	addu	t8,a3,a2
80002c70:	00034082 	srl	t0,v1,0x2
80002c74:	03139821 	addu	s3,t8,s3
80002c78:	0003b780 	sll	s6,v1,0x1e
80002c7c:	026c2021 	addu	a0,s3,t4
80002c80:	00401825 	move	v1,v0
80002c84:	01406025 	move	t4,t2
80002c88:	00801025 	move	v0,a0
80002c8c:	25270008 	addiu	a3,t1,8
80002c90:	02e05025 	move	t2,s7
80002c94:	02c82025 	or	a0,s6,t0
80002c98:	1000000f 	b	80002cd8 <sha_stream+0x1938>
80002c9c:	00000000 	nop
80002ca0:	0003b940 	sll	s7,v1,0x5
80002ca4:	8cec0004 	lw	t4,4(a3)
80002ca8:	0003c6c2 	srl	t8,v1,0x1b
80002cac:	00564026 	xor	t0,v0,s6
80002cb0:	02f81025 	or	v0,s7,t8
80002cb4:	00459821 	addu	s3,v0,a1
80002cb8:	01043026 	xor	a2,t0,a0
80002cbc:	00d3b821 	addu	s7,a2,s3
80002cc0:	24e70008 	addiu	a3,a3,8
80002cc4:	02ecc021 	addu	t8,s7,t4
80002cc8:	00806025 	move	t4,a0
80002ccc:	030a1021 	addu	v0,t8,t2
80002cd0:	012b2025 	or	a0,t1,t3
80002cd4:	02c05025 	move	t2,s6
80002cd8:	0002b940 	sll	s7,v0,0x5
80002cdc:	8ce90000 	lw	t1,0(a3)
80002ce0:	00025ec2 	srl	t3,v0,0x1b
80002ce4:	00643026 	xor	a2,v1,a0
80002ce8:	02ebc025 	or	t8,s7,t3
80002cec:	03054021 	addu	t0,t8,a1
80002cf0:	00ca9826 	xor	s3,a2,t2
80002cf4:	0268b021 	addu	s6,s3,t0
80002cf8:	0003b882 	srl	s7,v1,0x2
80002cfc:	00033780 	sll	a2,v1,0x1e
80002d00:	24f80004 	addiu	t8,a3,4
80002d04:	02c91821 	addu	v1,s6,t1
80002d08:	00025882 	srl	t3,v0,0x2
80002d0c:	00024f80 	sll	t1,v0,0x1e
80002d10:	006c1821 	addu	v1,v1,t4
80002d14:	00d7b025 	or	s6,a2,s7
80002d18:	1698ffe1 	bne	s4,t8,80002ca0 <sha_stream+0x1900>
80002d1c:	00000000 	nop
80002d20:	00032940 	sll	a1,v1,0x5
80002d24:	8e8c0000 	lw	t4,0(s4)
80002d28:	000346c2 	srl	t0,v1,0x1b
80002d2c:	3c178f1b 	lui	s7,0x8f1b
80002d30:	00a89825 	or	s3,a1,t0
80002d34:	36ebbcdc 	ori	t3,s7,0xbcdc
80002d38:	026b3021 	addu	a2,s3,t3
80002d3c:	02c4c025 	or	t8,s6,a0
80002d40:	03024024 	and	t0,t8,v0
80002d44:	00cc4821 	addu	t1,a2,t4
80002d48:	02c42824 	and	a1,s6,a0
80002d4c:	01056025 	or	t4,t0,a1
80002d50:	01899821 	addu	s3,t4,t1
80002d54:	0002b882 	srl	s7,v0,0x2
80002d58:	026ac021 	addu	t8,s3,t2
80002d5c:	00023780 	sll	a2,v0,0x1e
80002d60:	00805025 	move	t2,a0
80002d64:	00601025 	move	v0,v1
80002d68:	02c02025 	move	a0,s6
80002d6c:	24e70008 	addiu	a3,a3,8
80002d70:	00d73025 	or	a2,a2,s7
80002d74:	03001825 	move	v1,t8
80002d78:	10000011 	b	80002dc0 <sha_stream+0x1a20>
80002d7c:	00000000 	nop
80002d80:	0002c140 	sll	t8,v0,0x5
80002d84:	8cf30004 	lw	s3,4(a3)
80002d88:	000256c2 	srl	t2,v0,0x1b
80002d8c:	02c62825 	or	a1,s6,a2
80002d90:	030a6025 	or	t4,t8,t2
80002d94:	018b4021 	addu	t0,t4,t3
80002d98:	00a3c024 	and	t8,a1,v1
80002d9c:	01139821 	addu	s3,t0,s3
80002da0:	02c61824 	and	v1,s6,a2
80002da4:	03035025 	or	t2,t8,v1
80002da8:	01532821 	addu	a1,t2,s3
80002dac:	24e70008 	addiu	a3,a3,8
80002db0:	00a41821 	addu	v1,a1,a0
80002db4:	00c05025 	move	t2,a2
80002db8:	02c02025 	move	a0,s6
80002dbc:	01373025 	or	a2,t1,s7
80002dc0:	0003b140 	sll	s6,v1,0x5
80002dc4:	8cec0000 	lw	t4,0(a3)
80002dc8:	000346c2 	srl	t0,v1,0x1b
80002dcc:	00c42825 	or	a1,a2,a0
80002dd0:	02c84825 	or	t1,s6,t0
80002dd4:	012b9821 	addu	s3,t1,t3
80002dd8:	00a2c024 	and	t8,a1,v0
80002ddc:	026cb021 	addu	s6,s3,t4
80002de0:	00c4b824 	and	s7,a2,a0
80002de4:	03176025 	or	t4,t8,s7
80002de8:	00024082 	srl	t0,v0,0x2
80002dec:	00029f80 	sll	s3,v0,0x1e
80002df0:	24e50004 	addiu	a1,a3,4
80002df4:	01961021 	addu	v0,t4,s6
80002df8:	0003b882 	srl	s7,v1,0x2
80002dfc:	00034f80 	sll	t1,v1,0x1e
80002e00:	004a1021 	addu	v0,v0,t2
80002e04:	0268b025 	or	s6,s3,t0
80002e08:	17c5ffdd 	bne	s8,a1,80002d80 <sha_stream+0x19e0>
80002e0c:	00000000 	nop
80002e10:	00025140 	sll	t2,v0,0x5
80002e14:	8fcb0000 	lw	t3,0(s8)
80002e18:	0002c6c2 	srl	t8,v0,0x1b
80002e1c:	3c08ca62 	lui	t0,0xca62
80002e20:	01586025 	or	t4,t2,t8
80002e24:	350ac1d6 	ori	t2,t0,0xc1d6
80002e28:	00769826 	xor	s3,v1,s6
80002e2c:	018a2821 	addu	a1,t4,t2
80002e30:	02664826 	xor	t1,s3,a2
80002e34:	0125c021 	addu	t8,t1,a1
80002e38:	24e70008 	addiu	a3,a3,8
80002e3c:	030b6021 	addu	t4,t8,t3
80002e40:	00035f80 	sll	t3,v1,0x1e
80002e44:	01844021 	addu	t0,t4,a0
80002e48:	00401825 	move	v1,v0
80002e4c:	00c02025 	move	a0,a2
80002e50:	01001025 	move	v0,t0
80002e54:	02c03025 	move	a2,s6
80002e58:	01774025 	or	t0,t3,s7
80002e5c:	1000000f 	b	80002e9c <sha_stream+0x1afc>
80002e60:	00000000 	nop
80002e64:	0003b940 	sll	s7,v1,0x5
80002e68:	8cec0004 	lw	t4,4(a3)
80002e6c:	00039ec2 	srl	s3,v1,0x1b
80002e70:	00452026 	xor	a0,v0,a1
80002e74:	02f3c025 	or	t8,s7,s3
80002e78:	030ab021 	addu	s6,t8,t2
80002e7c:	00881026 	xor	v0,a0,t0
80002e80:	0056b821 	addu	s7,v0,s6
80002e84:	24e70008 	addiu	a3,a3,8
80002e88:	02ec6021 	addu	t4,s7,t4
80002e8c:	01002025 	move	a0,t0
80002e90:	01861021 	addu	v0,t4,a2
80002e94:	012b4025 	or	t0,t1,t3
80002e98:	00a03025 	move	a2,a1
80002e9c:	0002b140 	sll	s6,v0,0x5
80002ea0:	8cf70000 	lw	s7,0(a3)
80002ea4:	00029ec2 	srl	s3,v0,0x1b
80002ea8:	00682826 	xor	a1,v1,t0
80002eac:	02d34825 	or	t1,s6,s3
80002eb0:	012ac021 	addu	t8,t1,t2
80002eb4:	00a66026 	xor	t4,a1,a2
80002eb8:	01985821 	addu	t3,t4,t8
80002ebc:	0003b082 	srl	s6,v1,0x2
80002ec0:	00039f80 	sll	s3,v1,0x1e
80002ec4:	01771821 	addu	v1,t3,s7
80002ec8:	24f70004 	addiu	s7,a3,4
80002ecc:	00025882 	srl	t3,v0,0x2
80002ed0:	00024f80 	sll	t1,v0,0x1e
80002ed4:	00641821 	addu	v1,v1,a0
80002ed8:	02762825 	or	a1,s3,s6
80002edc:	16b7ffe1 	bne	s5,s7,80002e64 <sha_stream+0x1ac4>
80002ee0:	00000000 	nop
80002ee4:	0325c821 	addu	t9,t9,a1
80002ee8:	8fa40358 	lw	a0,856(sp)
80002eec:	03e6f821 	addu	ra,ra,a2
80002ef0:	01e37821 	addu	t7,t7,v1
80002ef4:	01c27021 	addu	t6,t6,v0
80002ef8:	ae390008 	sw	t9,8(s1)
80002efc:	01a86821 	addu	t5,t5,t0
80002f00:	ae3f0010 	sw	ra,16(s1)
80002f04:	24060038 	li	a2,56
80002f08:	ae2f0000 	sw	t7,0(s1)
80002f0c:	00002825 	move	a1,zero
80002f10:	ae2e0004 	sw	t6,4(s1)
80002f14:	ae2d000c 	sw	t5,12(s1)
80002f18:	0c000f3e 	jal	80003cf8 <memset>
80002f1c:	00000000 	nop
80002f20:	1000fbbf 	b	80001e20 <sha_stream+0xa80>
80002f24:	00000000 	nop
80002f28:	27a50010 	addiu	a1,sp,16
80002f2c:	1000fb9a 	b	80001d98 <sha_stream+0x9f8>
80002f30:	00000000 	nop
	...

80002f40 <sha_print>:
sha_print():
80002f40:	00801025 	move	v0,a0
80002f44:	8c880010 	lw	t0,16(a0)
80002f48:	8c83000c 	lw	v1,12(a0)
80002f4c:	3c048000 	lui	a0,0x8000
80002f50:	27bdffe0 	addiu	sp,sp,-32
80002f54:	8c470008 	lw	a3,8(v0)
80002f58:	8c460004 	lw	a2,4(v0)
80002f5c:	24843eec 	addiu	a0,a0,16108
80002f60:	8c450000 	lw	a1,0(v0)
80002f64:	afa80014 	sw	t0,20(sp)
80002f68:	afa30010 	sw	v1,16(sp)
80002f6c:	afbf001c 	sw	ra,28(sp)
80002f70:	0c000c6e 	jal	800031b8 <printf>
80002f74:	00000000 	nop
80002f78:	8fbf001c 	lw	ra,28(sp)
80002f7c:	27bd0020 	addiu	sp,sp,32
80002f80:	03e00008 	jr	ra
80002f84:	00000000 	nop
	...

80002f90 <__divu10>:
__divu10():
80002f90:	00041082 	srl	v0,a0,0x2
80002f94:	00041842 	srl	v1,a0,0x1
80002f98:	24840006 	addiu	a0,a0,6
80002f9c:	00621821 	addu	v1,v1,v0
80002fa0:	00031102 	srl	v0,v1,0x4
80002fa4:	00621821 	addu	v1,v1,v0
80002fa8:	00031202 	srl	v0,v1,0x8
80002fac:	00621821 	addu	v1,v1,v0
80002fb0:	00031402 	srl	v0,v1,0x10
80002fb4:	00621821 	addu	v1,v1,v0
80002fb8:	000318c2 	srl	v1,v1,0x3
80002fbc:	00031040 	sll	v0,v1,0x1
80002fc0:	000328c0 	sll	a1,v1,0x3
80002fc4:	00451021 	addu	v0,v0,a1
80002fc8:	00821023 	subu	v0,a0,v0
80002fcc:	00021102 	srl	v0,v0,0x4
80002fd0:	00431021 	addu	v0,v0,v1
80002fd4:	03e00008 	jr	ra
80002fd8:	00000000 	nop

80002fdc <printnum2>:
printnum2():
80002fdc:	27bdff90 	addiu	sp,sp,-112
80002fe0:	afb0005c 	sw	s0,92(sp)
80002fe4:	00808025 	move	s0,a0
80002fe8:	afbf006c 	sw	ra,108(sp)
80002fec:	afb30068 	sw	s3,104(sp)
80002ff0:	afb20064 	sw	s2,100(sp)
80002ff4:	afb10060 	sw	s1,96(sp)
80002ff8:	10e00003 	beqz	a3,80003008 <printnum2+0x2c>
80002ffc:	00000000 	nop
80003000:	04800060 	bltz	a0,80003184 <printnum2+0x1a8>
80003004:	00000000 	nop
80003008:	12000068 	beqz	s0,800031ac <printnum2+0x1d0>
8000300c:	00000000 	nop
80003010:	27a40010 	addiu	a0,sp,16
80003014:	00008825 	move	s1,zero
80003018:	24080002 	li	t0,2
8000301c:	24090008 	li	t1,8
80003020:	240a0010 	li	t2,16
80003024:	10c80040 	beq	a2,t0,80003128 <printnum2+0x14c>
80003028:	00000000 	nop
8000302c:	00101842 	srl	v1,s0,0x1
80003030:	10c90042 	beq	a2,t1,8000313c <printnum2+0x160>
80003034:	00000000 	nop
80003038:	00101082 	srl	v0,s0,0x2
8000303c:	10ca0044 	beq	a2,t2,80003150 <printnum2+0x174>
80003040:	00000000 	nop
80003044:	00621821 	addu	v1,v1,v0
80003048:	26070006 	addiu	a3,s0,6
8000304c:	00031102 	srl	v0,v1,0x4
80003050:	00621821 	addu	v1,v1,v0
80003054:	00031202 	srl	v0,v1,0x8
80003058:	00621821 	addu	v1,v1,v0
8000305c:	00031402 	srl	v0,v1,0x10
80003060:	00621821 	addu	v1,v1,v0
80003064:	000318c2 	srl	v1,v1,0x3
80003068:	00031040 	sll	v0,v1,0x1
8000306c:	000358c0 	sll	t3,v1,0x3
80003070:	004b1021 	addu	v0,v0,t3
80003074:	00e21023 	subu	v0,a3,v0
80003078:	00021102 	srl	v0,v0,0x4
8000307c:	00621021 	addu	v0,v1,v0
80003080:	00021840 	sll	v1,v0,0x1
80003084:	000238c0 	sll	a3,v0,0x3
80003088:	00671821 	addu	v1,v1,a3
8000308c:	02031823 	subu	v1,s0,v1
80003090:	00408025 	move	s0,v0
80003094:	a0830000 	sb	v1,0(a0)
80003098:	26310001 	addiu	s1,s1,1
8000309c:	24840001 	addiu	a0,a0,1
800030a0:	1600ffe0 	bnez	s0,80003024 <printnum2+0x48>
800030a4:	00000000 	nop
800030a8:	00b1102a 	slt	v0,a1,s1
800030ac:	10400002 	beqz	v0,800030b8 <printnum2+0xdc>
800030b0:	00000000 	nop
800030b4:	02202825 	move	a1,s1
800030b8:	10a0002a 	beqz	a1,80003164 <printnum2+0x188>
800030bc:	00000000 	nop
800030c0:	27a20010 	addiu	v0,sp,16
800030c4:	24b0ffff 	addiu	s0,a1,-1
800030c8:	00459021 	addu	s2,v0,a1
800030cc:	10000008 	b	800030f0 <printnum2+0x114>
800030d0:	00000000 	nop
800030d4:	24040030 	li	a0,48
800030d8:	2610ffff 	addiu	s0,s0,-1
800030dc:	0c000dcc 	jal	80003730 <putchar>
800030e0:	00000000 	nop
800030e4:	2652ffff 	addiu	s2,s2,-1
800030e8:	1260001e 	beqz	s3,80003164 <printnum2+0x188>
800030ec:	00000000 	nop
800030f0:	26020001 	addiu	v0,s0,1
800030f4:	02009825 	move	s3,s0
800030f8:	0222102a 	slt	v0,s1,v0
800030fc:	1440fff5 	bnez	v0,800030d4 <printnum2+0xf8>
80003100:	00000000 	nop
80003104:	8242ffff 	lb	v0,-1(s2)
80003108:	00000000 	nop
8000310c:	2843000a 	slti	v1,v0,10
80003110:	24440057 	addiu	a0,v0,87
80003114:	1060fff0 	beqz	v1,800030d8 <printnum2+0xfc>
80003118:	00000000 	nop
8000311c:	24440030 	addiu	a0,v0,48
80003120:	1000ffed 	b	800030d8 <printnum2+0xfc>
80003124:	00000000 	nop
80003128:	32020001 	andi	v0,s0,0x1
8000312c:	00108042 	srl	s0,s0,0x1
80003130:	a0820000 	sb	v0,0(a0)
80003134:	1000ffd8 	b	80003098 <printnum2+0xbc>
80003138:	00000000 	nop
8000313c:	32020007 	andi	v0,s0,0x7
80003140:	001080c2 	srl	s0,s0,0x3
80003144:	a0820000 	sb	v0,0(a0)
80003148:	1000ffd3 	b	80003098 <printnum2+0xbc>
8000314c:	00000000 	nop
80003150:	3202000f 	andi	v0,s0,0xf
80003154:	00108102 	srl	s0,s0,0x4
80003158:	a0820000 	sb	v0,0(a0)
8000315c:	1000ffce 	b	80003098 <printnum2+0xbc>
80003160:	00000000 	nop
80003164:	8fbf006c 	lw	ra,108(sp)
80003168:	8fb30068 	lw	s3,104(sp)
8000316c:	8fb20064 	lw	s2,100(sp)
80003170:	8fb10060 	lw	s1,96(sp)
80003174:	8fb0005c 	lw	s0,92(sp)
80003178:	27bd0070 	addiu	sp,sp,112
8000317c:	03e00008 	jr	ra
80003180:	00000000 	nop
80003184:	2404002d 	li	a0,45
80003188:	afa60054 	sw	a2,84(sp)
8000318c:	afa50050 	sw	a1,80(sp)
80003190:	00108023 	negu	s0,s0
80003194:	0c000dcc 	jal	80003730 <putchar>
80003198:	00000000 	nop
8000319c:	8fa50050 	lw	a1,80(sp)
800031a0:	8fa60054 	lw	a2,84(sp)
800031a4:	1000ff98 	b	80003008 <printnum2+0x2c>
800031a8:	00000000 	nop
800031ac:	00008825 	move	s1,zero
800031b0:	1000ffbd 	b	800030a8 <printnum2+0xcc>
800031b4:	00000000 	nop

800031b8 <printf>:
printf():
800031b8:	27bdffc8 	addiu	sp,sp,-56
800031bc:	afbf0034 	sw	ra,52(sp)
800031c0:	27a2003c 	addiu	v0,sp,60
800031c4:	afb50030 	sw	s5,48(sp)
800031c8:	afb4002c 	sw	s4,44(sp)
800031cc:	afb30028 	sw	s3,40(sp)
800031d0:	afb20024 	sw	s2,36(sp)
800031d4:	afb10020 	sw	s1,32(sp)
800031d8:	afb0001c 	sw	s0,28(sp)
800031dc:	afa5003c 	sw	a1,60(sp)
800031e0:	afa60040 	sw	a2,64(sp)
800031e4:	afa70044 	sw	a3,68(sp)
800031e8:	afa20010 	sw	v0,16(sp)
800031ec:	80910000 	lb	s1,0(a0)
800031f0:	00000000 	nop
800031f4:	12200015 	beqz	s1,8000324c <printf+0x94>
800031f8:	00000000 	nop
800031fc:	3c158000 	lui	s5,0x8000
80003200:	00008025 	move	s0,zero
80003204:	24130025 	li	s3,37
80003208:	26b54710 	addiu	s5,s5,18192
8000320c:	0040a025 	move	s4,v0
80003210:	00809025 	move	s2,a0
80003214:	12330018 	beq	s1,s3,80003278 <printf+0xc0>
80003218:	00000000 	nop
8000321c:	2402000a 	li	v0,10
80003220:	12220046 	beq	s1,v0,8000333c <printf+0x184>
80003224:	00000000 	nop
80003228:	02202025 	move	a0,s1
8000322c:	0c000dcc 	jal	80003730 <putchar>
80003230:	00000000 	nop
80003234:	26100001 	addiu	s0,s0,1
80003238:	02501021 	addu	v0,s2,s0
8000323c:	80510000 	lb	s1,0(v0)
80003240:	00000000 	nop
80003244:	1620fff3 	bnez	s1,80003214 <printf+0x5c>
80003248:	00000000 	nop
8000324c:	8fbf0034 	lw	ra,52(sp)
80003250:	00001025 	move	v0,zero
80003254:	8fb50030 	lw	s5,48(sp)
80003258:	8fb4002c 	lw	s4,44(sp)
8000325c:	8fb30028 	lw	s3,40(sp)
80003260:	8fb20024 	lw	s2,36(sp)
80003264:	8fb10020 	lw	s1,32(sp)
80003268:	8fb0001c 	lw	s0,28(sp)
8000326c:	27bd0038 	addiu	sp,sp,56
80003270:	03e00008 	jr	ra
80003274:	00000000 	nop
80003278:	02501021 	addu	v0,s2,s0
8000327c:	24050001 	li	a1,1
80003280:	80430001 	lb	v1,1(v0)
80003284:	00000000 	nop
80003288:	2462ffdb 	addiu	v0,v1,-37
8000328c:	304200ff 	andi	v0,v0,0xff
80003290:	2c440054 	sltiu	a0,v0,84
80003294:	10800024 	beqz	a0,80003328 <printf+0x170>
80003298:	00000000 	nop
8000329c:	00021080 	sll	v0,v0,0x2
800032a0:	02a21021 	addu	v0,s5,v0
800032a4:	8c420000 	lw	v0,0(v0)
800032a8:	00000000 	nop
800032ac:	00400008 	jr	v0
800032b0:	00000000 	nop
800032b4:	26100001 	addiu	s0,s0,1
800032b8:	02501021 	addu	v0,s2,s0
800032bc:	80430001 	lb	v1,1(v0)
800032c0:	00000000 	nop
800032c4:	2462ffcf 	addiu	v0,v1,-49
800032c8:	304200ff 	andi	v0,v0,0xff
800032cc:	2c420009 	sltiu	v0,v0,9
800032d0:	10400069 	beqz	v0,80003478 <printf+0x2c0>
800032d4:	00000000 	nop
800032d8:	02503021 	addu	a2,s2,s0
800032dc:	00002825 	move	a1,zero
800032e0:	2467ffd0 	addiu	a3,v1,-48
800032e4:	80c30002 	lb	v1,2(a2)
800032e8:	00052040 	sll	a0,a1,0x1
800032ec:	000528c0 	sll	a1,a1,0x3
800032f0:	2462ffcf 	addiu	v0,v1,-49
800032f4:	00852821 	addu	a1,a0,a1
800032f8:	304200ff 	andi	v0,v0,0xff
800032fc:	2c420009 	sltiu	v0,v0,9
80003300:	00e52821 	addu	a1,a3,a1
80003304:	26100001 	addiu	s0,s0,1
80003308:	24c60001 	addiu	a2,a2,1
8000330c:	1440fff4 	bnez	v0,800032e0 <printf+0x128>
80003310:	00000000 	nop
80003314:	2462ffdb 	addiu	v0,v1,-37
80003318:	304200ff 	andi	v0,v0,0xff
8000331c:	2c440054 	sltiu	a0,v0,84
80003320:	1480ffde 	bnez	a0,8000329c <printf+0xe4>
80003324:	00000000 	nop
80003328:	24040025 	li	a0,37
8000332c:	0c000dcc 	jal	80003730 <putchar>
80003330:	00000000 	nop
80003334:	1000ffbf 	b	80003234 <printf+0x7c>
80003338:	00000000 	nop
8000333c:	2404000d 	li	a0,13
80003340:	0c000dcc 	jal	80003730 <putchar>
80003344:	00000000 	nop
80003348:	1000ffb7 	b	80003228 <printf+0x70>
8000334c:	00000000 	nop
80003350:	8e840000 	lw	a0,0(s4)
80003354:	00003825 	move	a3,zero
80003358:	2406000a 	li	a2,10
8000335c:	26940004 	addiu	s4,s4,4
80003360:	0c000bf7 	jal	80002fdc <printnum2>
80003364:	00000000 	nop
80003368:	26100001 	addiu	s0,s0,1
8000336c:	1000ffb1 	b	80003234 <printf+0x7c>
80003370:	00000000 	nop
80003374:	8e840000 	lw	a0,0(s4)
80003378:	26100001 	addiu	s0,s0,1
8000337c:	26940004 	addiu	s4,s4,4
80003380:	0c000d94 	jal	80003650 <putstring>
80003384:	00000000 	nop
80003388:	1000ffaa 	b	80003234 <printf+0x7c>
8000338c:	00000000 	nop
80003390:	8e840000 	lw	a0,0(s4)
80003394:	00003825 	move	a3,zero
80003398:	24060010 	li	a2,16
8000339c:	26940004 	addiu	s4,s4,4
800033a0:	0c000bf7 	jal	80002fdc <printnum2>
800033a4:	00000000 	nop
800033a8:	26100001 	addiu	s0,s0,1
800033ac:	1000ffa1 	b	80003234 <printf+0x7c>
800033b0:	00000000 	nop
800033b4:	8e840000 	lw	a0,0(s4)
800033b8:	00003825 	move	a3,zero
800033bc:	24060008 	li	a2,8
800033c0:	26940004 	addiu	s4,s4,4
800033c4:	0c000bf7 	jal	80002fdc <printnum2>
800033c8:	00000000 	nop
800033cc:	26100001 	addiu	s0,s0,1
800033d0:	1000ff98 	b	80003234 <printf+0x7c>
800033d4:	00000000 	nop
800033d8:	8e840000 	lw	a0,0(s4)
800033dc:	00003825 	move	a3,zero
800033e0:	2406000a 	li	a2,10
800033e4:	26940004 	addiu	s4,s4,4
800033e8:	0c000bf7 	jal	80002fdc <printnum2>
800033ec:	00000000 	nop
800033f0:	26100002 	addiu	s0,s0,2
800033f4:	1000ff8f 	b	80003234 <printf+0x7c>
800033f8:	00000000 	nop
800033fc:	8e840000 	lw	a0,0(s4)
80003400:	24070001 	li	a3,1
80003404:	2406000a 	li	a2,10
80003408:	26940004 	addiu	s4,s4,4
8000340c:	0c000bf7 	jal	80002fdc <printnum2>
80003410:	00000000 	nop
80003414:	26100001 	addiu	s0,s0,1
80003418:	1000ff86 	b	80003234 <printf+0x7c>
8000341c:	00000000 	nop
80003420:	8e840000 	lw	a0,0(s4)
80003424:	26100001 	addiu	s0,s0,1
80003428:	26940004 	addiu	s4,s4,4
8000342c:	0c000dcc 	jal	80003730 <putchar>
80003430:	00000000 	nop
80003434:	1000ff7f 	b	80003234 <printf+0x7c>
80003438:	00000000 	nop
8000343c:	8e840000 	lw	a0,0(s4)
80003440:	00003825 	move	a3,zero
80003444:	24060002 	li	a2,2
80003448:	26940004 	addiu	s4,s4,4
8000344c:	0c000bf7 	jal	80002fdc <printnum2>
80003450:	00000000 	nop
80003454:	26100001 	addiu	s0,s0,1
80003458:	1000ff76 	b	80003234 <printf+0x7c>
8000345c:	00000000 	nop
80003460:	24040025 	li	a0,37
80003464:	26100001 	addiu	s0,s0,1
80003468:	0c000dcc 	jal	80003730 <putchar>
8000346c:	00000000 	nop
80003470:	1000ff70 	b	80003234 <printf+0x7c>
80003474:	00000000 	nop
80003478:	00002825 	move	a1,zero
8000347c:	1000ff82 	b	80003288 <printf+0xd0>
80003480:	00000000 	nop
	...

80003490 <_get_count>:
_get_count():
80003490:	3c02bfd0 	lui	v0,0xbfd0
80003494:	8c420500 	lw	v0,1280(v0)
80003498:	03e00008 	jr	ra
8000349c:	00000000 	nop

800034a0 <get_count>:
get_count():
800034a0:	3c02bfd0 	lui	v0,0xbfd0
800034a4:	8c420500 	lw	v0,1280(v0)
800034a8:	03e00008 	jr	ra
800034ac:	00000000 	nop

800034b0 <clock_gettime>:
clock_gettime():
800034b0:	3c02bfd0 	lui	v0,0xbfd0
800034b4:	27bdffe8 	addiu	sp,sp,-24
800034b8:	00a05825 	move	t3,a1
800034bc:	8c4c0500 	lw	t4,1280(v0)
800034c0:	3c021062 	lui	v0,0x1062
800034c4:	afbf0014 	sw	ra,20(sp)
800034c8:	3c048000 	lui	a0,0x8000
800034cc:	24424dd3 	addiu	v0,v0,19923
800034d0:	aca00000 	sw	zero,0(a1)
800034d4:	00003025 	move	a2,zero
800034d8:	01820019 	multu	t4,v0
800034dc:	000c6040 	sll	t4,t4,0x1
800034e0:	24844860 	addiu	a0,a0,18528
800034e4:	00003810 	mfhi	a3
	...
800034f0:	01820019 	multu	t4,v0
800034f4:	00002810 	mfhi	a1
800034f8:	00073982 	srl	a3,a3,0x6
800034fc:	00073840 	sll	a3,a3,0x1
80003500:	00e20019 	multu	a3,v0
80003504:	00052982 	srl	a1,a1,0x6
80003508:	000541c0 	sll	t0,a1,0x7
8000350c:	00001810 	mfhi	v1
80003510:	00055080 	sll	t2,a1,0x2
80003514:	010a5023 	subu	t2,t0,t2
80003518:	01452821 	addu	a1,t2,a1
8000351c:	00031982 	srl	v1,v1,0x6
80003520:	000528c0 	sll	a1,a1,0x3
80003524:	00620019 	multu	v1,v0
80003528:	000341c0 	sll	t0,v1,0x7
8000352c:	00034880 	sll	t1,v1,0x2
80003530:	01852823 	subu	a1,t4,a1
80003534:	00001010 	mfhi	v0
80003538:	01094823 	subu	t1,t0,t1
8000353c:	ad650004 	sw	a1,4(t3)
80003540:	01234821 	addu	t1,t1,v1
80003544:	00021182 	srl	v0,v0,0x6
80003548:	00025080 	sll	t2,v0,0x2
8000354c:	000241c0 	sll	t0,v0,0x7
80003550:	010a4023 	subu	t0,t0,t2
80003554:	01021021 	addu	v0,t0,v0
80003558:	000940c0 	sll	t0,t1,0x3
8000355c:	000210c0 	sll	v0,v0,0x3
80003560:	00e83823 	subu	a3,a3,t0
80003564:	00621823 	subu	v1,v1,v0
80003568:	ad670008 	sw	a3,8(t3)
8000356c:	ad63000c 	sw	v1,12(t3)
80003570:	0c000c6e 	jal	800031b8 <printf>
80003574:	00000000 	nop
80003578:	00001025 	move	v0,zero
8000357c:	8fbf0014 	lw	ra,20(sp)
80003580:	27bd0018 	addiu	sp,sp,24
80003584:	03e00008 	jr	ra
80003588:	00000000 	nop

8000358c <get_clock>:
get_clock():
8000358c:	3c02bfd0 	lui	v0,0xbfd0
80003590:	8c420500 	lw	v0,1280(v0)
80003594:	00000000 	nop
80003598:	00021040 	sll	v0,v0,0x1
8000359c:	03e00008 	jr	ra
800035a0:	00000000 	nop

800035a4 <get_us>:
get_us():
800035a4:	3c02bfd0 	lui	v0,0xbfd0
800035a8:	8c420600 	lw	v0,1536(v0)
800035ac:	03e00008 	jr	ra
800035b0:	00000000 	nop

800035b4 <get_inst>:
get_inst():
800035b4:	3c02bfd0 	lui	v0,0xbfd0
800035b8:	8c420700 	lw	v0,1792(v0)
800035bc:	03e00008 	jr	ra
800035c0:	00000000 	nop

800035c4 <get_ns>:
get_ns():
800035c4:	3c02bfd0 	lui	v0,0xbfd0
800035c8:	8c440600 	lw	a0,1536(v0)
800035cc:	00000000 	nop
800035d0:	00041080 	sll	v0,a0,0x2
800035d4:	000419c0 	sll	v1,a0,0x7
800035d8:	00621023 	subu	v0,v1,v0
800035dc:	00441021 	addu	v0,v0,a0
800035e0:	000210c0 	sll	v0,v0,0x3
800035e4:	03e00008 	jr	ra
800035e8:	00000000 	nop
800035ec:	00000000 	nop

800035f0 <get_epc>:
get_epc():
800035f0:	40027000 	mfc0	v0,c0_epc
800035f4:	03e00008 	jr	ra
800035f8:	00000000 	nop

800035fc <get_cause>:
get_cause():
800035fc:	40026800 	mfc0	v0,c0_cause
80003600:	03e00008 	jr	ra
80003604:	00000000 	nop

80003608 <exception>:
exception():
80003608:	3c048000 	lui	a0,0x8000
8000360c:	27bdffe8 	addiu	sp,sp,-24
80003610:	24844874 	addiu	a0,a0,18548
80003614:	afbf0014 	sw	ra,20(sp)
80003618:	0c000c6e 	jal	800031b8 <printf>
8000361c:	00000000 	nop
80003620:	3c048000 	lui	a0,0x8000
80003624:	40057000 	mfc0	a1,c0_epc
80003628:	24844890 	addiu	a0,a0,18576
8000362c:	0c000c6e 	jal	800031b8 <printf>
80003630:	00000000 	nop
80003634:	3c048000 	lui	a0,0x8000
80003638:	8fbf0014 	lw	ra,20(sp)
8000363c:	27bd0018 	addiu	sp,sp,24
80003640:	248448a0 	addiu	a0,a0,18592
80003644:	40056800 	mfc0	a1,c0_cause
80003648:	08000c6e 	j	800031b8 <printf>
8000364c:	00000000 	nop

80003650 <putstring>:
putstring():
80003650:	27bdffe0 	addiu	sp,sp,-32
80003654:	afbf001c 	sw	ra,28(sp)
80003658:	afb20018 	sw	s2,24(sp)
8000365c:	afb10014 	sw	s1,20(sp)
80003660:	afb00010 	sw	s0,16(sp)
80003664:	80900000 	lb	s0,0(a0)
80003668:	00000000 	nop
8000366c:	12000019 	beqz	s0,800036d4 <putstring+0x84>
80003670:	00000000 	nop
80003674:	00808825 	move	s1,a0
80003678:	2412000a 	li	s2,10
8000367c:	10000008 	b	800036a0 <putstring+0x50>
80003680:	00000000 	nop
80003684:	02002025 	move	a0,s0
80003688:	0c000dcc 	jal	80003730 <putchar>
8000368c:	00000000 	nop
80003690:	82300000 	lb	s0,0(s1)
80003694:	00000000 	nop
80003698:	1200000e 	beqz	s0,800036d4 <putstring+0x84>
8000369c:	00000000 	nop
800036a0:	26310001 	addiu	s1,s1,1
800036a4:	1612fff7 	bne	s0,s2,80003684 <putstring+0x34>
800036a8:	00000000 	nop
800036ac:	2404000d 	li	a0,13
800036b0:	0c000dcc 	jal	80003730 <putchar>
800036b4:	00000000 	nop
800036b8:	02002025 	move	a0,s0
800036bc:	0c000dcc 	jal	80003730 <putchar>
800036c0:	00000000 	nop
800036c4:	82300000 	lb	s0,0(s1)
800036c8:	00000000 	nop
800036cc:	1600fff4 	bnez	s0,800036a0 <putstring+0x50>
800036d0:	00000000 	nop
800036d4:	8fbf001c 	lw	ra,28(sp)
800036d8:	00001025 	move	v0,zero
800036dc:	8fb20018 	lw	s2,24(sp)
800036e0:	8fb10014 	lw	s1,20(sp)
800036e4:	8fb00010 	lw	s0,16(sp)
800036e8:	27bd0020 	addiu	sp,sp,32
800036ec:	03e00008 	jr	ra
800036f0:	00000000 	nop

800036f4 <puts>:
puts():
800036f4:	27bdffe8 	addiu	sp,sp,-24
800036f8:	afbf0014 	sw	ra,20(sp)
800036fc:	0c000d94 	jal	80003650 <putstring>
80003700:	00000000 	nop
80003704:	2404000d 	li	a0,13
80003708:	0c000dcc 	jal	80003730 <putchar>
8000370c:	00000000 	nop
80003710:	2404000a 	li	a0,10
80003714:	0c000dcc 	jal	80003730 <putchar>
80003718:	00000000 	nop
8000371c:	00001025 	move	v0,zero
80003720:	8fbf0014 	lw	ra,20(sp)
80003724:	27bd0018 	addiu	sp,sp,24
80003728:	03e00008 	jr	ra
8000372c:	00000000 	nop

80003730 <putchar>:
putchar():
80003730:	3c03bfd0 	lui	v1,0xbfd0
80003734:	8c6203fc 	lw	v0,1020(v1)
80003738:	00000000 	nop
8000373c:	30420001 	andi	v0,v0,0x1
80003740:	1040fffb 	beqz	v0,80003730 <putchar>
80003744:	00000000 	nop
80003748:	10800002 	beqz	a0,80003754 <putchar+0x24>
8000374c:	00000000 	nop
80003750:	ac6403f8 	sw	a0,1016(v1)
80003754:	00001025 	move	v0,zero
80003758:	03e00008 	jr	ra
8000375c:	00000000 	nop

80003760 <tgt_putchar>:
tgt_putchar():
80003760:	3c03bfd0 	lui	v1,0xbfd0
80003764:	8c6203fc 	lw	v0,1020(v1)
80003768:	00000000 	nop
8000376c:	30420001 	andi	v0,v0,0x1
80003770:	1040fffb 	beqz	v0,80003760 <tgt_putchar>
80003774:	00000000 	nop
80003778:	10800002 	beqz	a0,80003784 <tgt_putchar+0x24>
8000377c:	00000000 	nop
80003780:	ac6403f8 	sw	a0,1016(v1)
80003784:	03e00008 	jr	ra
80003788:	00000000 	nop
8000378c:	00000000 	nop

80003790 <fopen>:
fopen():
80003790:	3c028000 	lui	v0,0x8000
80003794:	00001825 	move	v1,zero
80003798:	24425010 	addiu	v0,v0,20496
8000379c:	2407000a 	li	a3,10
800037a0:	00402825 	move	a1,v0
800037a4:	8ca60000 	lw	a2,0(a1)
800037a8:	24a50008 	addiu	a1,a1,8
800037ac:	10c00004 	beqz	a2,800037c0 <fopen+0x30>
800037b0:	00000000 	nop
800037b4:	24630001 	addiu	v1,v1,1
800037b8:	1467fffa 	bne	v1,a3,800037a4 <fopen+0x14>
800037bc:	00000000 	nop
800037c0:	000318c0 	sll	v1,v1,0x3
800037c4:	00431821 	addu	v1,v0,v1
800037c8:	ac640000 	sw	a0,0(v1)
800037cc:	00601025 	move	v0,v1
800037d0:	ac600004 	sw	zero,4(v1)
800037d4:	03e00008 	jr	ra
800037d8:	00000000 	nop

800037dc <fread>:
fread():
800037dc:	27bdffd8 	addiu	sp,sp,-40
800037e0:	afb3001c 	sw	s3,28(sp)
800037e4:	afb10014 	sw	s1,20(sp)
800037e8:	00e08825 	move	s1,a3
800037ec:	afb00010 	sw	s0,16(sp)
800037f0:	00808025 	move	s0,a0
800037f4:	afb40020 	sw	s4,32(sp)
800037f8:	00c0a025 	move	s4,a2
800037fc:	afb20018 	sw	s2,24(sp)
80003800:	00a09025 	move	s2,a1
80003804:	afbf0024 	sw	ra,36(sp)
80003808:	8cf30000 	lw	s3,0(a3)
8000380c:	00000000 	nop
80003810:	02602025 	move	a0,s3
80003814:	0c000ea0 	jal	80003a80 <strlen>
80003818:	00000000 	nop
8000381c:	8e230004 	lw	v1,4(s1)
80003820:	00000000 	nop
80003824:	1043002a 	beq	v0,v1,800038d0 <fread+0xf4>
80003828:	00000000 	nop
8000382c:	02540018 	mult	s2,s4
80003830:	02002025 	move	a0,s0
80003834:	00004025 	move	t0,zero
80003838:	00002812 	mflo	a1
8000383c:	1000000c 	b	80003870 <fread+0x94>
80003840:	00000000 	nop
80003844:	02631821 	addu	v1,s3,v1
80003848:	ae270004 	sw	a3,4(s1)
8000384c:	24840001 	addiu	a0,a0,1
80003850:	25080001 	addiu	t0,t0,1
80003854:	80630000 	lb	v1,0(v1)
80003858:	00000000 	nop
8000385c:	a083ffff 	sb	v1,-1(a0)
80003860:	8e230004 	lw	v1,4(s1)
80003864:	00000000 	nop
80003868:	1043000e 	beq	v0,v1,800038a4 <fread+0xc8>
8000386c:	00000000 	nop
80003870:	24670001 	addiu	a3,v1,1
80003874:	1505fff3 	bne	t0,a1,80003844 <fread+0x68>
80003878:	00000000 	nop
8000387c:	8fbf0024 	lw	ra,36(sp)
80003880:	00a01025 	move	v0,a1
80003884:	8fb40020 	lw	s4,32(sp)
80003888:	8fb3001c 	lw	s3,28(sp)
8000388c:	8fb20018 	lw	s2,24(sp)
80003890:	8fb10014 	lw	s1,20(sp)
80003894:	8fb00010 	lw	s0,16(sp)
80003898:	27bd0028 	addiu	sp,sp,40
8000389c:	03e00008 	jr	ra
800038a0:	00000000 	nop
800038a4:	8fbf0024 	lw	ra,36(sp)
800038a8:	01002825 	move	a1,t0
800038ac:	8fb40020 	lw	s4,32(sp)
800038b0:	00a01025 	move	v0,a1
800038b4:	8fb3001c 	lw	s3,28(sp)
800038b8:	8fb20018 	lw	s2,24(sp)
800038bc:	8fb10014 	lw	s1,20(sp)
800038c0:	8fb00010 	lw	s0,16(sp)
800038c4:	27bd0028 	addiu	sp,sp,40
800038c8:	03e00008 	jr	ra
800038cc:	00000000 	nop
800038d0:	8fbf0024 	lw	ra,36(sp)
800038d4:	00002825 	move	a1,zero
800038d8:	8fb40020 	lw	s4,32(sp)
800038dc:	8fb3001c 	lw	s3,28(sp)
800038e0:	00a01025 	move	v0,a1
800038e4:	8fb20018 	lw	s2,24(sp)
800038e8:	8fb10014 	lw	s1,20(sp)
800038ec:	8fb00010 	lw	s0,16(sp)
800038f0:	27bd0028 	addiu	sp,sp,40
800038f4:	03e00008 	jr	ra
800038f8:	00000000 	nop

800038fc <fclose>:
fclose():
800038fc:	ac800000 	sw	zero,0(a0)
80003900:	ac800004 	sw	zero,4(a0)
80003904:	03e00008 	jr	ra
80003908:	00000000 	nop

8000390c <fgets>:
fgets():
8000390c:	27bdffe0 	addiu	sp,sp,-32
80003910:	afb10014 	sw	s1,20(sp)
80003914:	afb00010 	sw	s0,16(sp)
80003918:	00c08025 	move	s0,a2
8000391c:	afb20018 	sw	s2,24(sp)
80003920:	00809025 	move	s2,a0
80003924:	afbf001c 	sw	ra,28(sp)
80003928:	8cd10000 	lw	s1,0(a2)
8000392c:	00000000 	nop
80003930:	02202025 	move	a0,s1
80003934:	0c000ea0 	jal	80003a80 <strlen>
80003938:	00000000 	nop
8000393c:	8e030004 	lw	v1,4(s0)
80003940:	00000000 	nop
80003944:	1043001c 	beq	v0,v1,800039b8 <fgets+0xac>
80003948:	00000000 	nop
8000394c:	02232821 	addu	a1,s1,v1
80003950:	2404000a 	li	a0,10
80003954:	80a60000 	lb	a2,0(a1)
80003958:	00000000 	nop
8000395c:	10c4001e 	beq	a2,a0,800039d8 <fgets+0xcc>
80003960:	00000000 	nop
80003964:	00003025 	move	a2,zero
80003968:	2408000a 	li	t0,10
8000396c:	02402025 	move	a0,s2
80003970:	10000005 	b	80003988 <fgets+0x7c>
80003974:	00000000 	nop
80003978:	80a70000 	lb	a3,0(a1)
8000397c:	00000000 	nop
80003980:	10e80016 	beq	a3,t0,800039dc <fgets+0xd0>
80003984:	00000000 	nop
80003988:	24630001 	addiu	v1,v1,1
8000398c:	24840001 	addiu	a0,a0,1
80003990:	24c60001 	addiu	a2,a2,1
80003994:	ae030004 	sw	v1,4(s0)
80003998:	80a30000 	lb	v1,0(a1)
8000399c:	00000000 	nop
800039a0:	a083ffff 	sb	v1,-1(a0)
800039a4:	8e030004 	lw	v1,4(s0)
800039a8:	00000000 	nop
800039ac:	02232821 	addu	a1,s1,v1
800039b0:	1443fff1 	bne	v0,v1,80003978 <fgets+0x6c>
800039b4:	00000000 	nop
800039b8:	8fbf001c 	lw	ra,28(sp)
800039bc:	00001025 	move	v0,zero
800039c0:	8fb20018 	lw	s2,24(sp)
800039c4:	8fb10014 	lw	s1,20(sp)
800039c8:	8fb00010 	lw	s0,16(sp)
800039cc:	27bd0020 	addiu	sp,sp,32
800039d0:	03e00008 	jr	ra
800039d4:	00000000 	nop
800039d8:	00003025 	move	a2,zero
800039dc:	24630001 	addiu	v1,v1,1
800039e0:	02463021 	addu	a2,s2,a2
800039e4:	ae030004 	sw	v1,4(s0)
800039e8:	80a20000 	lb	v0,0(a1)
800039ec:	00000000 	nop
800039f0:	a0c20000 	sb	v0,0(a2)
800039f4:	00001025 	move	v0,zero
800039f8:	8fbf001c 	lw	ra,28(sp)
800039fc:	8fb20018 	lw	s2,24(sp)
80003a00:	8fb10014 	lw	s1,20(sp)
80003a04:	8fb00010 	lw	s0,16(sp)
80003a08:	27bd0020 	addiu	sp,sp,32
80003a0c:	03e00008 	jr	ra
80003a10:	00000000 	nop

80003a14 <getc>:
getc():
80003a14:	27bdffe0 	addiu	sp,sp,-32
80003a18:	afb00014 	sw	s0,20(sp)
80003a1c:	afb10018 	sw	s1,24(sp)
80003a20:	00808825 	move	s1,a0
80003a24:	afbf001c 	sw	ra,28(sp)
80003a28:	8c900000 	lw	s0,0(a0)
80003a2c:	00000000 	nop
80003a30:	02002025 	move	a0,s0
80003a34:	0c000ea0 	jal	80003a80 <strlen>
80003a38:	00000000 	nop
80003a3c:	8e230004 	lw	v1,4(s1)
80003a40:	00000000 	nop
80003a44:	1043000b 	beq	v0,v1,80003a74 <getc+0x60>
80003a48:	00000000 	nop
80003a4c:	24620001 	addiu	v0,v1,1
80003a50:	02038021 	addu	s0,s0,v1
80003a54:	ae220004 	sw	v0,4(s1)
80003a58:	92020000 	lbu	v0,0(s0)
80003a5c:	8fbf001c 	lw	ra,28(sp)
80003a60:	8fb10018 	lw	s1,24(sp)
80003a64:	8fb00014 	lw	s0,20(sp)
80003a68:	27bd0020 	addiu	sp,sp,32
80003a6c:	03e00008 	jr	ra
80003a70:	00000000 	nop
80003a74:	2402ffff 	li	v0,-1
80003a78:	1000fff8 	b	80003a5c <getc+0x48>
80003a7c:	00000000 	nop

80003a80 <strlen>:
strlen():
80003a80:	80820000 	lb	v0,0(a0)
80003a84:	24830001 	addiu	v1,a0,1
80003a88:	10400009 	beqz	v0,80003ab0 <strlen+0x30>
80003a8c:	00000000 	nop
80003a90:	00641023 	subu	v0,v1,a0
80003a94:	24630001 	addiu	v1,v1,1
80003a98:	8065ffff 	lb	a1,-1(v1)
80003a9c:	00000000 	nop
80003aa0:	14a0fffb 	bnez	a1,80003a90 <strlen+0x10>
80003aa4:	00000000 	nop
80003aa8:	03e00008 	jr	ra
80003aac:	00000000 	nop
80003ab0:	00001025 	move	v0,zero
80003ab4:	03e00008 	jr	ra
80003ab8:	00000000 	nop

80003abc <strnlen>:
strnlen():
80003abc:	10a00014 	beqz	a1,80003b10 <strnlen+0x54>
80003ac0:	00000000 	nop
80003ac4:	80820000 	lb	v0,0(a0)
80003ac8:	24830001 	addiu	v1,a0,1
80003acc:	10400010 	beqz	v0,80003b10 <strnlen+0x54>
80003ad0:	00000000 	nop
80003ad4:	00852821 	addu	a1,a0,a1
80003ad8:	10000006 	b	80003af4 <strnlen+0x38>
80003adc:	00000000 	nop
80003ae0:	24630001 	addiu	v1,v1,1
80003ae4:	8066ffff 	lb	a2,-1(v1)
80003ae8:	00000000 	nop
80003aec:	10c00006 	beqz	a2,80003b08 <strnlen+0x4c>
80003af0:	00000000 	nop
80003af4:	00641023 	subu	v0,v1,a0
80003af8:	1465fff9 	bne	v1,a1,80003ae0 <strnlen+0x24>
80003afc:	00000000 	nop
80003b00:	03e00008 	jr	ra
80003b04:	00000000 	nop
80003b08:	03e00008 	jr	ra
80003b0c:	00000000 	nop
80003b10:	00001025 	move	v0,zero
80003b14:	03e00008 	jr	ra
80003b18:	00000000 	nop

80003b1c <strcpy>:
strcpy():
80003b1c:	00801025 	move	v0,a0
80003b20:	00801825 	move	v1,a0
80003b24:	24a50001 	addiu	a1,a1,1
80003b28:	80a6ffff 	lb	a2,-1(a1)
80003b2c:	24630001 	addiu	v1,v1,1
80003b30:	a066ffff 	sb	a2,-1(v1)
80003b34:	14c0fffb 	bnez	a2,80003b24 <strcpy+0x8>
80003b38:	00000000 	nop
80003b3c:	03e00008 	jr	ra
80003b40:	00000000 	nop

80003b44 <strncpy>:
strncpy():
80003b44:	00801025 	move	v0,a0
80003b48:	10c0000b 	beqz	a2,80003b78 <strncpy+0x34>
80003b4c:	00000000 	nop
80003b50:	00863021 	addu	a2,a0,a2
80003b54:	00801825 	move	v1,a0
80003b58:	80a70000 	lb	a3,0(a1)
80003b5c:	24630001 	addiu	v1,v1,1
80003b60:	a067ffff 	sb	a3,-1(v1)
80003b64:	10e00002 	beqz	a3,80003b70 <strncpy+0x2c>
80003b68:	00000000 	nop
80003b6c:	24a50001 	addiu	a1,a1,1
80003b70:	14c3fff9 	bne	a2,v1,80003b58 <strncpy+0x14>
80003b74:	00000000 	nop
80003b78:	03e00008 	jr	ra
80003b7c:	00000000 	nop

80003b80 <strcmp>:
strcmp():
80003b80:	80830000 	lb	v1,0(a0)
80003b84:	80a20000 	lb	v0,0(a1)
80003b88:	1060000d 	beqz	v1,80003bc0 <strcmp+0x40>
80003b8c:	00000000 	nop
80003b90:	1462000a 	bne	v1,v0,80003bbc <strcmp+0x3c>
80003b94:	00000000 	nop
80003b98:	24840001 	addiu	a0,a0,1
80003b9c:	80830000 	lb	v1,0(a0)
80003ba0:	24a60001 	addiu	a2,a1,1
80003ba4:	80a20001 	lb	v0,1(a1)
80003ba8:	10600005 	beqz	v1,80003bc0 <strcmp+0x40>
80003bac:	00000000 	nop
80003bb0:	00c02825 	move	a1,a2
80003bb4:	1062fff8 	beq	v1,v0,80003b98 <strcmp+0x18>
80003bb8:	00000000 	nop
80003bbc:	306300ff 	andi	v1,v1,0xff
80003bc0:	304200ff 	andi	v0,v0,0xff
80003bc4:	00621023 	subu	v0,v1,v0
80003bc8:	03e00008 	jr	ra
80003bcc:	00000000 	nop

80003bd0 <strncmp>:
strncmp():
80003bd0:	10c00017 	beqz	a2,80003c30 <strncmp+0x60>
80003bd4:	00000000 	nop
80003bd8:	80830000 	lb	v1,0(a0)
80003bdc:	80a70000 	lb	a3,0(a1)
80003be0:	10600017 	beqz	v1,80003c40 <strncmp+0x70>
80003be4:	00000000 	nop
80003be8:	14e30015 	bne	a3,v1,80003c40 <strncmp+0x70>
80003bec:	00000000 	nop
80003bf0:	24820001 	addiu	v0,a0,1
80003bf4:	00863021 	addu	a2,a0,a2
80003bf8:	1000000a 	b	80003c24 <strncmp+0x54>
80003bfc:	00000000 	nop
80003c00:	80430000 	lb	v1,0(v0)
80003c04:	24420001 	addiu	v0,v0,1
80003c08:	1060000c 	beqz	v1,80003c3c <strncmp+0x6c>
80003c0c:	00000000 	nop
80003c10:	00e02825 	move	a1,a3
80003c14:	80e70000 	lb	a3,0(a3)
80003c18:	00000000 	nop
80003c1c:	14670008 	bne	v1,a3,80003c40 <strncmp+0x70>
80003c20:	00000000 	nop
80003c24:	24a70001 	addiu	a3,a1,1
80003c28:	14c2fff5 	bne	a2,v0,80003c00 <strncmp+0x30>
80003c2c:	00000000 	nop
80003c30:	00001025 	move	v0,zero
80003c34:	03e00008 	jr	ra
80003c38:	00000000 	nop
80003c3c:	80a70001 	lb	a3,1(a1)
80003c40:	306300ff 	andi	v1,v1,0xff
80003c44:	30e200ff 	andi	v0,a3,0xff
80003c48:	00621023 	subu	v0,v1,v0
80003c4c:	03e00008 	jr	ra
80003c50:	00000000 	nop

80003c54 <strchr>:
strchr():
80003c54:	80820000 	lb	v0,0(a0)
80003c58:	00052e00 	sll	a1,a1,0x18
80003c5c:	00052e03 	sra	a1,a1,0x18
80003c60:	1040000d 	beqz	v0,80003c98 <strchr+0x44>
80003c64:	00000000 	nop
80003c68:	10450008 	beq	v0,a1,80003c8c <strchr+0x38>
80003c6c:	00000000 	nop
80003c70:	24840001 	addiu	a0,a0,1
80003c74:	80820000 	lb	v0,0(a0)
80003c78:	00000000 	nop
80003c7c:	1440fffa 	bnez	v0,80003c68 <strchr+0x14>
80003c80:	00000000 	nop
80003c84:	03e00008 	jr	ra
80003c88:	00000000 	nop
80003c8c:	00801025 	move	v0,a0
80003c90:	03e00008 	jr	ra
80003c94:	00000000 	nop
80003c98:	00001025 	move	v0,zero
80003c9c:	03e00008 	jr	ra
80003ca0:	00000000 	nop

80003ca4 <strfind>:
strfind():
80003ca4:	80830000 	lb	v1,0(a0)
80003ca8:	00052e00 	sll	a1,a1,0x18
80003cac:	00801025 	move	v0,a0
80003cb0:	00052e03 	sra	a1,a1,0x18
80003cb4:	1060000c 	beqz	v1,80003ce8 <strfind+0x44>
80003cb8:	00000000 	nop
80003cbc:	14a30005 	bne	a1,v1,80003cd4 <strfind+0x30>
80003cc0:	00000000 	nop
80003cc4:	1000000a 	b	80003cf0 <strfind+0x4c>
80003cc8:	00000000 	nop
80003ccc:	10650006 	beq	v1,a1,80003ce8 <strfind+0x44>
80003cd0:	00000000 	nop
80003cd4:	24420001 	addiu	v0,v0,1
80003cd8:	80430000 	lb	v1,0(v0)
80003cdc:	00000000 	nop
80003ce0:	1460fffa 	bnez	v1,80003ccc <strfind+0x28>
80003ce4:	00000000 	nop
80003ce8:	03e00008 	jr	ra
80003cec:	00000000 	nop
80003cf0:	03e00008 	jr	ra
80003cf4:	00000000 	nop

80003cf8 <memset>:
memset():
80003cf8:	00052e00 	sll	a1,a1,0x18
80003cfc:	00801025 	move	v0,a0
80003d00:	00052e03 	sra	a1,a1,0x18
80003d04:	10c00007 	beqz	a2,80003d24 <memset+0x2c>
80003d08:	00000000 	nop
80003d0c:	00863021 	addu	a2,a0,a2
80003d10:	00801825 	move	v1,a0
80003d14:	24630001 	addiu	v1,v1,1
80003d18:	a065ffff 	sb	a1,-1(v1)
80003d1c:	14c3fffd 	bne	a2,v1,80003d14 <memset+0x1c>
80003d20:	00000000 	nop
80003d24:	03e00008 	jr	ra
80003d28:	00000000 	nop

80003d2c <memcpy>:
memcpy():
80003d2c:	00801025 	move	v0,a0
80003d30:	10c00009 	beqz	a2,80003d58 <memcpy+0x2c>
80003d34:	00000000 	nop
80003d38:	00a63021 	addu	a2,a1,a2
80003d3c:	00801825 	move	v1,a0
80003d40:	24a50001 	addiu	a1,a1,1
80003d44:	80a7ffff 	lb	a3,-1(a1)
80003d48:	24630001 	addiu	v1,v1,1
80003d4c:	a067ffff 	sb	a3,-1(v1)
80003d50:	14c5fffb 	bne	a2,a1,80003d40 <memcpy+0x14>
80003d54:	00000000 	nop
80003d58:	03e00008 	jr	ra
80003d5c:	00000000 	nop

80003d60 <memmove>:
memmove():
80003d60:	00a4182b 	sltu	v1,a1,a0
80003d64:	00801025 	move	v0,a0
80003d68:	10600011 	beqz	v1,80003db0 <memmove+0x50>
80003d6c:	00000000 	nop
80003d70:	00a61821 	addu	v1,a1,a2
80003d74:	0083202b 	sltu	a0,a0,v1
80003d78:	1080000d 	beqz	a0,80003db0 <memmove+0x50>
80003d7c:	00000000 	nop
80003d80:	00462821 	addu	a1,v0,a2
80003d84:	10c00014 	beqz	a2,80003dd8 <memmove+0x78>
80003d88:	00000000 	nop
80003d8c:	00663023 	subu	a2,v1,a2
80003d90:	2463ffff 	addiu	v1,v1,-1
80003d94:	80670000 	lb	a3,0(v1)
80003d98:	24a5ffff 	addiu	a1,a1,-1
80003d9c:	a0a70000 	sb	a3,0(a1)
80003da0:	1466fffb 	bne	v1,a2,80003d90 <memmove+0x30>
80003da4:	00000000 	nop
80003da8:	03e00008 	jr	ra
80003dac:	00000000 	nop
80003db0:	10c0000b 	beqz	a2,80003de0 <memmove+0x80>
80003db4:	00000000 	nop
80003db8:	00a63021 	addu	a2,a1,a2
80003dbc:	00401825 	move	v1,v0
80003dc0:	24a50001 	addiu	a1,a1,1
80003dc4:	80a7ffff 	lb	a3,-1(a1)
80003dc8:	24630001 	addiu	v1,v1,1
80003dcc:	a067ffff 	sb	a3,-1(v1)
80003dd0:	14a6fffb 	bne	a1,a2,80003dc0 <memmove+0x60>
80003dd4:	00000000 	nop
80003dd8:	03e00008 	jr	ra
80003ddc:	00000000 	nop
80003de0:	03e00008 	jr	ra
80003de4:	00000000 	nop

80003de8 <memcmp>:
memcmp():
80003de8:	10c00013 	beqz	a2,80003e38 <memcmp+0x50>
80003dec:	00000000 	nop
80003df0:	80830000 	lb	v1,0(a0)
80003df4:	80a70000 	lb	a3,0(a1)
80003df8:	00000000 	nop
80003dfc:	14e30011 	bne	a3,v1,80003e44 <memcmp+0x5c>
80003e00:	00000000 	nop
80003e04:	24a20001 	addiu	v0,a1,1
80003e08:	00a63021 	addu	a2,a1,a2
80003e0c:	10000007 	b	80003e2c <memcmp+0x44>
80003e10:	00000000 	nop
80003e14:	24420001 	addiu	v0,v0,1
80003e18:	80830000 	lb	v1,0(a0)
80003e1c:	8047ffff 	lb	a3,-1(v0)
80003e20:	00000000 	nop
80003e24:	14670007 	bne	v1,a3,80003e44 <memcmp+0x5c>
80003e28:	00000000 	nop
80003e2c:	24840001 	addiu	a0,a0,1
80003e30:	14c2fff8 	bne	a2,v0,80003e14 <memcmp+0x2c>
80003e34:	00000000 	nop
80003e38:	00001025 	move	v0,zero
80003e3c:	03e00008 	jr	ra
80003e40:	00000000 	nop
80003e44:	306300ff 	andi	v1,v1,0xff
80003e48:	30e200ff 	andi	v0,a3,0xff
80003e4c:	00621023 	subu	v0,v1,v0
80003e50:	03e00008 	jr	ra
80003e54:	00000000 	nop

80003e58 <bzero>:
bzero():
80003e58:	00851021 	addu	v0,a0,a1
80003e5c:	10a00005 	beqz	a1,80003e74 <bzero+0x1c>
80003e60:	00000000 	nop
80003e64:	24840001 	addiu	a0,a0,1
80003e68:	a080ffff 	sb	zero,-1(a0)
80003e6c:	1444fffd 	bne	v0,a0,80003e64 <bzero+0xc>
80003e70:	00000000 	nop
80003e74:	03e00008 	jr	ra
80003e78:	00000000 	nop
80003e7c:	00000000 	nop
80003e80:	20656854 	addi	a1,v1,26708
80003e84:	75736572 	jalx	85cd95c8 <_stack+0x5bd45e8>
80003e88:	6920746c 	0x6920746c
80003e8c:	69722073 	0x69722073
80003e90:	0a746867 	j	89d1a19c <_stack+0x9c151bc>
80003e94:	00000000 	nop
80003e98:	20656854 	addi	a1,v1,26708
80003e9c:	75736572 	jalx	85cd95c8 <_stack+0x5bd45e8>
80003ea0:	6920746c 	0x6920746c
80003ea4:	72772073 	0x72772073
80003ea8:	0a676e6f 	j	899db9bc <_stack+0x98d69dc>
80003eac:	00000000 	nop
80003eb0:	656d6954 	0x656d6954
80003eb4:	7525203a 	jalx	849480e8 <_stack+0x4843108>
80003eb8:	63796320 	0x63796320
80003ebc:	2c73656c 	sltiu	s3,v1,25964
80003ec0:	20752520 	addi	s5,v1,9504
80003ec4:	202c7375 	addi	t4,at,29557
80003ec8:	69207525 	0x69207525
80003ecc:	0a74736e 	j	89d1cdb8 <_stack+0x9c17dd8>
80003ed0:	00000000 	nop
80003ed4:	20756c25 	addi	s5,v1,27685
80003ed8:	6c25203a 	0x6c25203a
80003edc:	00000a75 	0xa75
80003ee0:	3a6e656c 	xori	t6,s3,0x656c
80003ee4:	0a642520 	j	89909480 <_stack+0x98044a0>
80003ee8:	00000000 	nop
80003eec:	6c383025 	0x6c383025
80003ef0:	30252078 	andi	a1,at,0x2078
80003ef4:	20786c38 	addi	t8,v1,27704
80003ef8:	6c383025 	0x6c383025
80003efc:	30252078 	andi	a1,at,0x2078
80003f00:	20786c38 	addi	t8,v1,27704
80003f04:	6c383025 	0x6c383025
80003f08:	00000a78 	0xa78
80003f0c:	7373616c 	0x7373616c
80003f10:	3739666f 	ori	t9,t9,0x666f
80003f14:	72616557 	0x72616557
80003f18:	736e7573 	0x736e7573
80003f1c:	65657263 	0x65657263
80003f20:	4966496e 	0x4966496e
80003f24:	6c756f63 	0x6c756f63
80003f28:	66666f64 	0x66666f64
80003f2c:	6f797265 	0x6f797265
80003f30:	6c6e6f75 	0x6c6e6f75
80003f34:	656e6f79 	0x656e6f79
80003f38:	66706974 	0x66706974
80003f3c:	6874726f 	0x6874726f
80003f40:	74756665 	jalx	81d59994 <_stack+0x1c549b4>
80003f44:	4b657275 	c2	0x1657275
80003f48:	56747275 	0x56747275
80003f4c:	656e6e6f 	0x656e6e6f
80003f50:	73747567 	0x73747567
80003f54:	6d6d6f43 	0x6d6d6f43
80003f58:	65636e65 	0x65636e65
80003f5c:	746e656d 	jalx	81b995b4 <_stack+0x1a945d4>
80003f60:	72646441 	0x72646441
80003f64:	61737365 	0x61737365
80003f68:	54494d74 	0x54494d74
80003f6c:	6964614c 	0x6964614c
80003f70:	6e617365 	0x6e617365
80003f74:	6e656764 	0x6e656764
80003f78:	6d656c74 	0x6d656c74
80003f7c:	666f6e65 	0x666f6e65
80003f80:	63656874 	0x63656874
80003f84:	7373616c 	0x7373616c
80003f88:	3739666f 	ori	t9,t9,0x666f
80003f8c:	72616557 	0x72616557
80003f90:	736e7573 	0x736e7573
80003f94:	65657263 	0x65657263
80003f98:	4966496e 	0x4966496e
80003f9c:	6c756f63 	0x6c756f63
80003fa0:	66666f64 	0x66666f64
80003fa4:	6f797265 	0x6f797265
80003fa8:	6c6e6f75 	0x6c6e6f75
80003fac:	656e6f79 	0x656e6f79
80003fb0:	66706974 	0x66706974
80003fb4:	6874726f 	0x6874726f
80003fb8:	74756665 	jalx	81d59994 <_stack+0x1c549b4>
80003fbc:	73657275 	0x73657275
80003fc0:	63736e75 	0x63736e75
80003fc4:	6e656572 	0x6e656572
80003fc8:	6c756f77 	0x6c756f77
80003fcc:	69656264 	0x69656264
80003fd0:	65685474 	0x65685474
80003fd4:	676e6f6c 	0x676e6f6c
80003fd8:	6d726574 	0x6d726574
80003fdc:	656e6562 	0x656e6562
80003fe0:	73746966 	0x73746966
80003fe4:	7573666f 	jalx	85cd99bc <_stack+0x5bd49dc>
80003fe8:	7263736e 	0x7263736e
80003fec:	686e6565 	0x686e6565
80003ff0:	62657661 	0x62657661
80003ff4:	706e6565 	0x706e6565
80003ff8:	65766f72 	0x65766f72
80003ffc:	73796264 	0x73796264
80004000:	6e656963 	0x6e656963
80004004:	74736974 	jalx	81cda5d0 <_stack+0x1bd55f0>
80004008:	65687773 	0x65687773
8000400c:	73616572 	0x73616572
80004010:	72656874 	0x72656874
80004014:	6f747365 	0x6f747365
80004018:	61796d66 	0x61796d66
8000401c:	63697664 	0x63697664
80004020:	73616865 	0x73616865
80004024:	61626f6e 	0x61626f6e
80004028:	6d736973 	0x6d736973
8000402c:	7265726f 	0x7265726f
80004030:	61696c65 	0x61696c65
80004034:	74656c62 	jalx	8195b188 <_stack+0x18561a8>
80004038:	6d6e6168 	0x6d6e6168
8000403c:	6e776f79 	0x6e776f79
80004040:	6e61656d 	0x6e61656d
80004044:	69726564 	0x69726564
80004048:	7865676e 	0x7865676e
8000404c:	69726570 	0x69726570
80004050:	65636e65 	0x65636e65
80004054:	6c697749 	0x6c697749
80004058:	7369646c 	0x7369646c
8000405c:	736e6570 	0x736e6570
80004060:	69687465 	0x69687465
80004064:	76646173 	jalx	899185cc <_stack+0x98135ec>
80004068:	6e656369 	0x6e656369
8000406c:	6e45776f 	0x6e45776f
80004070:	74796f6a 	jalx	81e5bda8 <_stack+0x1d56dc8>
80004074:	6f706568 	0x6f706568
80004078:	61726577 	0x61726577
8000407c:	6562646e 	0x6562646e
80004080:	79747561 	0x79747561
80004084:	6f79666f 	0x6f79666f
80004088:	6f797275 	0x6f797275
8000408c:	4f687475 	c3	0x1687475
80004090:	76656e68 	jalx	8995b9a0 <_stack+0x98569c0>
80004094:	696d7265 	0x696d7265
80004098:	6f59646e 	0x6f59646e
8000409c:	6c697775 	0x6c697775
800040a0:	746f6e6c 	jalx	81bdb9b0 <_stack+0x1ad69d0>
800040a4:	65646e75 	0x65646e75
800040a8:	61747372 	0x61747372
800040ac:	6874646e 	0x6874646e
800040b0:	776f7065 	jalx	8dbdc194 <_stack+0xdad71b4>
800040b4:	6e617265 	0x6e617265
800040b8:	61656264 	0x61656264
800040bc:	6f797475 	0x6f797475
800040c0:	756f7966 	jalx	85bde598 <_stack+0x5ad95b8>
800040c4:	756f7972 	jalx	85bde5c8 <_stack+0x5ad95e8>
800040c8:	6e756874 	0x6e756874
800040cc:	746c6974 	jalx	81b1a5d0 <_stack+0x1a155f0>
800040d0:	76796568 	jalx	89e595a0 <_stack+0x9d545c0>
800040d4:	64616665 	0x64616665
800040d8:	75426465 	jalx	85099194 <_stack+0x4f941b4>
800040dc:	75727474 	jalx	85c9d1d0 <_stack+0x5b981f0>
800040e0:	656d7473 	0x656d7473
800040e4:	30326e69 	andi	s2,at,0x6e69
800040e8:	72616579 	0x72616579
800040ec:	756f7973 	jalx	85bde5cc <_stack+0x5ad95ec>
800040f0:	6f6c6c6c 	0x6f6c6c6c
800040f4:	61626b6f 	0x61626b6f
800040f8:	74616b63 	jalx	8185ad8c <_stack+0x1755dac>
800040fc:	746f6870 	jalx	81bda1c0 <_stack+0x1ad51e0>
80004100:	666f736f 	0x666f736f
80004104:	72756f79 	0x72756f79
80004108:	666c6573 	0x666c6573
8000410c:	72646e61 	0x72646e61
80004110:	6c616365 	0x6c616365
80004114:	616e696c 	0x616e696c
80004118:	79796177 	0x79796177
8000411c:	6163756f 	0x6163756f
80004120:	7267746e 	0x7267746e
80004124:	6e707361 	0x6e707361
80004128:	6f68776f 	0x6f68776f
8000412c:	63756d77 	0x63756d77
80004130:	736f7068 	0x736f7068
80004134:	69626973 	0x69626973
80004138:	7974696c 	0x7974696c
8000413c:	6279616c 	0x6279616c
80004140:	726f6665 	0x726f6665
80004144:	756f7965 	jalx	85bde594 <_stack+0x5ad95b4>
80004148:	68646e61 	0x68646e61
8000414c:	6166776f 	0x6166776f
80004150:	6f6c7562 	0x6f6c7562
80004154:	6f797375 	0x6f797375
80004158:	61657275 	0x61657275
8000415c:	6c796c6c 	0x6c796c6c
80004160:	656b6f6f 	0x656b6f6f
80004164:	756f5964 	jalx	85bd6590 <_stack+0x5ad15b0>
80004168:	6e657261 	0x6e657261
8000416c:	7361746f 	0x7361746f
80004170:	61746166 	0x61746166
80004174:	756f7973 	jalx	85bde5cc <_stack+0x5ad95ec>
80004178:	67616d69 	0x67616d69
8000417c:	44656e69 	0x44656e69
80004180:	77746e6f 	jalx	8dd1b9bc <_stack+0xdc169dc>
80004184:	7972726f 	0x7972726f
80004188:	756f6261 	jalx	85bd8984 <_stack+0x5ad39a4>
8000418c:	65687474 	0x65687474
80004190:	75747566 	jalx	85d1d598 <_stack+0x5c185b8>
80004194:	724f6572 	0x724f6572
80004198:	72726f77 	0x72726f77
8000419c:	74756279 	jalx	81d589e4 <_stack+0x1c53a04>
800041a0:	776f6e6b 	jalx	8dbdb9ac <_stack+0xdad69cc>
800041a4:	74616874 	jalx	8185a1d0 <_stack+0x17551f0>
800041a8:	7472754b 	jalx	81c9d52c <_stack+0x1b9854c>
800041ac:	6e6e6f56 	0x6e6e6f56
800041b0:	74756765 	jalx	81d59d94 <_stack+0x1c54db4>
800041b4:	6d6f4373 	0x6d6f4373
800041b8:	636e656d 	0x636e656d
800041bc:	6e656d65 	0x6e656d65
800041c0:	64644174 	0x64644174
800041c4:	73736572 	0x73736572
800041c8:	494d7461 	0x494d7461
800041cc:	64614c54 	0x64614c54
800041d0:	61736569 	0x61736569
800041d4:	6567646e 	0x6567646e
800041d8:	656c746e 	0x656c746e
800041dc:	6f6e656d 	0x6f6e656d
800041e0:	65687466 	0x65687466
800041e4:	73616c63 	0x73616c63
800041e8:	39666f73 	xori	a2,t3,0x6f73
800041ec:	61655737 	0x61655737
800041f0:	6e757372 	0x6e757372
800041f4:	65726373 	0x65726373
800041f8:	66496e65 	0x66496e65
800041fc:	756f6349 	jalx	85bd8d24 <_stack+0x5ad3d44>
80004200:	666f646c 	0x666f646c
80004204:	79726566 	0x79726566
80004208:	6e6f756f 	0x6e6f756f
8000420c:	6e6f796c 	0x6e6f796c
80004210:	70697465 	0x70697465
80004214:	74726f66 	jalx	81c9bd98 <_stack+0x1b96db8>
80004218:	75666568 	jalx	859995a0 <_stack+0x58945c0>
8000421c:	65727574 	0x65727574
80004220:	736e7573 	0x736e7573
80004224:	65657263 	0x65657263
80004228:	756f776e 	jalx	85bdddb8 <_stack+0x5ad8dd8>
8000422c:	6562646c 	0x6562646c
80004230:	68547469 	0x68547469
80004234:	6e6f6c65 	0x6e6f6c65
80004238:	72657467 	0x72657467
8000423c:	6e65626d 	0x6e65626d
80004240:	74696665 	jalx	81a59994 <_stack+0x19549b4>
80004244:	73666f73 	0x73666f73
80004248:	63736e75 	0x63736e75
8000424c:	6e656572 	0x6e656572
80004250:	65766168 	0x65766168
80004254:	6e656562 	0x6e656562
80004258:	766f7270 	jalx	89bdc9c0 <_stack+0x9ad79e0>
8000425c:	79626465 	0x79626465
80004260:	65696373 	0x65696373
80004264:	7369746e 	0x7369746e
80004268:	68777374 	0x68777374
8000426c:	61657265 	0x61657265
80004270:	65687473 	0x65687473
80004274:	74736572 	jalx	81cd95c8 <_stack+0x1bd45e8>
80004278:	796d666f 	0x796d666f
8000427c:	69766461 	0x69766461
80004280:	61686563 	0x61686563
80004284:	626f6e73 	0x626f6e73
80004288:	73697361 	0x73697361
8000428c:	65726f6d 	0x65726f6d
80004290:	696c6572 	0x696c6572
80004294:	656c6261 	0x656c6261
80004298:	6e616874 	0x6e616874
8000429c:	776f796d 	jalx	8dbde5b4 <_stack+0xdad95d4>
800042a0:	61656d6e 	0x61656d6e
800042a4:	7265646e 	0x7265646e
800042a8:	65676e69 	0x65676e69
800042ac:	72657078 	0x72657078
800042b0:	636e6569 	0x636e6569
800042b4:	69774965 	0x69774965
800042b8:	69646c6c 	0x69646c6c
800042bc:	6e657073 	0x6e657073
800042c0:	68746573 	0x68746573
800042c4:	64617369 	0x64617369
800042c8:	65636976 	0x65636976
800042cc:	45776f6e 	0x45776f6e
800042d0:	796f6a6e 	0x796f6a6e
800042d4:	70656874 	0x70656874
800042d8:	7265776f 	0x7265776f
800042dc:	62646e61 	0x62646e61
800042e0:	74756165 	jalx	81d58594 <_stack+0x1c535b4>
800042e4:	79666f79 	0x79666f79
800042e8:	7972756f 	0x7972756f
800042ec:	6874756f 	0x6874756f
800042f0:	656e684f 	0x656e684f
800042f4:	6d726576 	0x6d726576
800042f8:	59646e69 	0x59646e69
800042fc:	6977756f 	0x6977756f
80004300:	6f6e6c6c 	0x6f6e6c6c
80004304:	646e7574 	0x646e7574
80004308:	74737265 	jalx	81cdc994 <_stack+0x1bd79b4>
8000430c:	74646e61 	jalx	8191b984 <_stack+0x18169a4>
80004310:	6f706568 	0x6f706568
80004314:	61726577 	0x61726577
80004318:	6562646e 	0x6562646e
8000431c:	79747561 	0x79747561
80004320:	6f79666f 	0x6f79666f
80004324:	6f797275 	0x6f797275
80004328:	75687475 	jalx	85a1d1d4 <_stack+0x59181f4>
8000432c:	6c69746e 	0x6c69746e
80004330:	79656874 	0x79656874
80004334:	61666576 	0x61666576
80004338:	42646564 	c0	0x646564
8000433c:	72747475 	0x72747475
80004340:	6d747375 	0x6d747375
80004344:	326e6965 	andi	t6,s3,0x6965
80004348:	61657930 	0x61657930
8000434c:	6f797372 	0x6f797372
80004350:	6c6c6c75 	0x6c6c6c75
80004354:	626b6f6f 	0x626b6f6f
80004358:	616b6361 	0x616b6361
8000435c:	6f687074 	0x6f687074
80004360:	6f736f74 	0x6f736f74
80004364:	756f7966 	jalx	85bde598 <_stack+0x5ad95b8>
80004368:	6c657372 	0x6c657372
8000436c:	646e6166 	0x646e6166
80004370:	61636572 	0x61636572
80004374:	6e696c6c 	0x6e696c6c
80004378:	79617761 	0x79617761
8000437c:	63756f79 	0x63756f79
80004380:	67746e61 	0x67746e61
80004384:	70736172 	0x70736172
80004388:	68776f6e 	0x68776f6e
8000438c:	756d776f 	jalx	85b5ddbc <_stack+0x5a58ddc>
80004390:	6f706863 	0x6f706863
80004394:	62697373 	0x62697373
80004398:	74696c69 	jalx	81a5b1a4 <_stack+0x19561c4>
8000439c:	79616c79 	0x79616c79
800043a0:	6f666562 	0x6f666562
800043a4:	6f796572 	0x6f796572
800043a8:	646e6175 	0x646e6175
800043ac:	66776f68 	0x66776f68
800043b0:	6c756261 	0x6c756261
800043b4:	7973756f 	0x7973756f
800043b8:	6572756f 	0x6572756f
800043bc:	796c6c61 	0x796c6c61
800043c0:	6b6f6f6c 	0x6b6f6f6c
800043c4:	6f596465 	0x6f596465
800043c8:	65726175 	0x65726175
800043cc:	61746f6e 	0x61746f6e
800043d0:	74616673 	jalx	818599cc <_stack+0x17549ec>
800043d4:	6f797361 	0x6f797361
800043d8:	616d6975 	0x616d6975
800043dc:	656e6967 	0x656e6967
800043e0:	746e6f44 	jalx	81b9bd10 <_stack+0x1a96d30>
800043e4:	72726f77 	0x72726f77
800043e8:	6f626179 	0x6f626179
800043ec:	68747475 	0x68747475
800043f0:	74756665 	jalx	81d59994 <_stack+0x1c549b4>
800043f4:	4f657275 	c3	0x1657275
800043f8:	726f7772 	0x726f7772
800043fc:	75627972 	jalx	8589e5c8 <_stack+0x57995e8>
80004400:	6f6e6b74 	0x6f6e6b74
80004404:	61687477 	0x61687477
80004408:	72754b74 	0x72754b74
8000440c:	6e6f5674 	0x6e6f5674
80004410:	7567656e 	jalx	859d95b8 <_stack+0x58d45d8>
80004414:	6f437374 	0x6f437374
80004418:	6e656d6d 	0x6e656d6d
8000441c:	656d6563 	0x656d6563
80004420:	6441746e 	0x6441746e
80004424:	73657264 	0x73657264
80004428:	4d746173 	0x4d746173
8000442c:	614c5449 	0x614c5449
80004430:	73656964 	0x73656964
80004434:	67646e61 	0x67646e61
80004438:	6c746e65 	0x6c746e65
8000443c:	6e656d65 	0x6e656d65
80004440:	6874666f 	0x6874666f
80004444:	616c6365 	0x616c6365
80004448:	666f7373 	0x666f7373
8000444c:	65573739 	0x65573739
80004450:	75737261 	jalx	85cdc984 <_stack+0x5bd79a4>
80004454:	7263736e 	0x7263736e
80004458:	496e6565 	0x496e6565
8000445c:	6f634966 	0x6f634966
80004460:	6f646c75 	0x6f646c75
80004464:	72656666 	0x72656666
80004468:	6f756f79 	0x6f756f79
8000446c:	6f796c6e 	0x6f796c6e
80004470:	6974656e 	0x6974656e
80004474:	726f6670 	0x726f6670
80004478:	66656874 	0x66656874
8000447c:	72757475 	0x72757475
80004480:	6e757365 	0x6e757365
80004484:	65726373 	0x65726373
80004488:	6f776e65 	0x6f776e65
8000448c:	62646c75 	0x62646c75
80004490:	54746965 	0x54746965
80004494:	6f6c6568 	0x6f6c6568
80004498:	6574676e 	0x6574676e
8000449c:	65626d72 	0x65626d72
800044a0:	6966656e 	0x6966656e
800044a4:	666f7374 	0x666f7374
800044a8:	736e7573 	0x736e7573
800044ac:	65657263 	0x65657263
800044b0:	7661686e 	jalx	8985a1b8 <_stack+0x97551d8>
800044b4:	65656265 	0x65656265
800044b8:	6f72706e 	0x6f72706e
800044bc:	62646576 	0x62646576
800044c0:	69637379 	0x69637379
800044c4:	69746e65 	0x69746e65
800044c8:	77737473 	jalx	8dcdd1cc <_stack+0xdbd81ec>
800044cc:	65726568 	0x65726568
800044d0:	68747361 	0x68747361
800044d4:	73657265 	0x73657265
800044d8:	6d666f74 	0x6d666f74
800044dc:	76646179 	jalx	899185e4 <_stack+0x9813604>
800044e0:	68656369 	0x68656369
800044e4:	6f6e7361 	0x6f6e7361
800044e8:	69736162 	0x69736162
800044ec:	726f6d73 	0x726f6d73
800044f0:	6c657265 	0x6c657265
800044f4:	6c626169 	0x6c626169
800044f8:	61687465 	0x61687465
800044fc:	6f796d6e 	0x6f796d6e
80004500:	656d6e77 	0x656d6e77
80004504:	65646e61 	0x65646e61
80004508:	676e6972 	0x676e6972
8000450c:	65707865 	0x65707865
80004510:	6e656972 	0x6e656972
80004514:	77496563 	jalx	8d25958c <_stack+0xd1545ac>
80004518:	646c6c69 	0x646c6c69
8000451c:	65707369 	0x65707369
80004520:	7465736e 	jalx	8195cdb8 <_stack+0x1857dd8>
80004524:	61736968 	0x61736968
80004528:	63697664 	0x63697664
8000452c:	776f6e65 	jalx	8dbdb994 <_stack+0xdad69b4>
80004530:	6f6a6e45 	0x6f6a6e45
80004534:	65687479 	0x65687479
80004538:	65776f70 	0x65776f70
8000453c:	646e6172 	0x646e6172
80004540:	75616562 	jalx	85859588 <_stack+0x57545a8>
80004544:	666f7974 	0x666f7974
80004548:	72756f79 	0x72756f79
8000454c:	74756f79 	jalx	81d5bde4 <_stack+0x1c56e04>
80004550:	6e684f68 	0x6e684f68
80004554:	72657665 	0x72657665
80004558:	646e696d 	0x646e696d
8000455c:	77756f59 	jalx	8dd5bd64 <_stack+0xdc56d84>
80004560:	6e6c6c69 	0x6e6c6c69
80004564:	6e75746f 	0x6e75746f
80004568:	73726564 	0x73726564
8000456c:	646e6174 	0x646e6174
80004570:	70656874 	0x70656874
80004574:	7265776f 	0x7265776f
80004578:	62646e61 	0x62646e61
8000457c:	74756165 	jalx	81d58594 <_stack+0x1c535b4>
80004580:	79666f79 	0x79666f79
80004584:	7972756f 	0x7972756f
80004588:	6874756f 	0x6874756f
8000458c:	69746e75 	0x69746e75
80004590:	6568746c 	0x6568746c
80004594:	66657679 	0x66657679
80004598:	64656461 	0x64656461
8000459c:	74747542 	jalx	81d1d508 <_stack+0x1c18528>
800045a0:	74737572 	jalx	81cdd5c8 <_stack+0x1bd85e8>
800045a4:	6e69656d 	0x6e69656d
800045a8:	65793032 	0x65793032
800045ac:	79737261 	0x79737261
800045b0:	6c6c756f 	0x6c6c756f
800045b4:	6b6f6f6c 	0x6b6f6f6c
800045b8:	6b636162 	0x6b636162
800045bc:	68707461 	0x68707461
800045c0:	736f746f 	0x736f746f
800045c4:	6f79666f 	0x6f79666f
800045c8:	65737275 	0x65737275
800045cc:	6e61666c 	0x6e61666c
800045d0:	63657264 	0x63657264
800045d4:	696c6c61 	0x696c6c61
800045d8:	6177616e 	0x6177616e
800045dc:	756f7979 	jalx	85bde5e4 <_stack+0x5ad9604>
800045e0:	746e6163 	jalx	81b9858c <_stack+0x1a935ac>
800045e4:	73617267 	0x73617267
800045e8:	776f6e70 	jalx	8dbdb9c0 <_stack+0xdad69e0>
800045ec:	6d776f68 	0x6d776f68
800045f0:	70686375 	0x70686375
800045f4:	6973736f 	0x6973736f
800045f8:	696c6962 	0x696c6962
800045fc:	616c7974 	0x616c7974
80004600:	66656279 	0x66656279
80004604:	7965726f 	0x7965726f
80004608:	6e61756f 	0x6e61756f
8000460c:	776f6864 	jalx	8dbda190 <_stack+0xdad51b0>
80004610:	75626166 	jalx	85898598 <_stack+0x57935b8>
80004614:	73756f6c 	0x73756f6c
80004618:	72756f79 	0x72756f79
8000461c:	6c6c6165 	0x6c6c6165
80004620:	6f6f6c79 	0x6f6f6c79
80004624:	5964656b 	0x5964656b
80004628:	7261756f 	0x7261756f
8000462c:	746f6e65 	jalx	81bdb994 <_stack+0x1ad69b4>
80004630:	61667361 	0x61667361
80004634:	79736174 	0x79736174
80004638:	6d69756f 	0x6d69756f
8000463c:	6e696761 	0x6e696761
80004640:	6e6f4465 	0x6e6f4465
80004644:	726f7774 	0x726f7774
80004648:	62617972 	0x62617972
8000464c:	7474756f 	jalx	81d1d5bc <_stack+0x1c185dc>
80004650:	75666568 	jalx	859995a0 <_stack+0x58945c0>
80004654:	65727574 	0x65727574
80004658:	6f77724f 	0x6f77724f
8000465c:	62797272 	0x62797272
80004660:	6e6b7475 	0x6e6b7475
80004664:	6874776f 	0x6874776f
80004668:	75737461 	jalx	85cdd184 <_stack+0x5bd81a4>
8000466c:	7263736e 	0x7263736e
80004670:	776e6565 	jalx	8db99594 <_stack+0xda945b4>
80004674:	646c756f 	0x646c756f
80004678:	74696562 	jalx	81a59588 <_stack+0x19545a8>
8000467c:	6c656854 	0x6c656854
80004680:	74676e6f 	jalx	819db9bc <_stack+0x18d69dc>
80004684:	626d7265 	0x626d7265
80004688:	66656e65 	0x66656e65
8000468c:	6f737469 	0x6f737469
80004690:	6e757366 	0x6e757366
80004694:	65726373 	0x65726373
80004698:	61686e65 	0x61686e65
8000469c:	65626576 	0x65626576
800046a0:	72706e65 	0x72706e65
800046a4:	6465766f 	0x6465766f
800046a8:	63737962 	0x63737962
800046ac:	746e6569 	jalx	81b995a4 <_stack+0x1a945c4>
800046b0:	73747369 	0x73747369
800046b4:	72656877 	0x72656877
800046b8:	74736165 	jalx	81cd8594 <_stack+0x1bd35b4>
800046bc:	65726568 	0x65726568
800046c0:	666f7473 	0x666f7473
800046c4:	6461796d 	0x6461796d
800046c8:	65636976 	0x65636976
800046cc:	6e736168 	0x6e736168
800046d0:	7361626f 	0x7361626f
800046d4:	6f6d7369 	0x6f6d7369
800046d8:	65726572 	0x65726572
800046dc:	6261696c 	0x6261696c
800046e0:	6874656c 	0x6874656c
800046e4:	796d6e61 	0x796d6e61
800046e8:	6d6e776f 	0x6d6e776f
800046ec:	646e6165 	0x646e6165
800046f0:	6e697265 	0x6e697265
800046f4:	70786567 	0x70786567
800046f8:	65697265 	0x65697265
800046fc:	4965636e 	0x4965636e
80004700:	6c6c6977 	0x6c6c6977
80004704:	70736964 	0x70736964
80004708:	65736e65 	0x65736e65
8000470c:	00000000 	nop
80004710:	80003460 	lb	zero,13408(zero)
80004714:	80003328 	lb	zero,13096(zero)
80004718:	80003328 	lb	zero,13096(zero)
8000471c:	80003328 	lb	zero,13096(zero)
80004720:	80003328 	lb	zero,13096(zero)
80004724:	80003328 	lb	zero,13096(zero)
80004728:	80003328 	lb	zero,13096(zero)
8000472c:	80003328 	lb	zero,13096(zero)
80004730:	80003328 	lb	zero,13096(zero)
80004734:	80003328 	lb	zero,13096(zero)
80004738:	80003328 	lb	zero,13096(zero)
8000473c:	800032b4 	lb	zero,12980(zero)
80004740:	800032c4 	lb	zero,12996(zero)
80004744:	800032c4 	lb	zero,12996(zero)
80004748:	800032c4 	lb	zero,12996(zero)
8000474c:	800032c4 	lb	zero,12996(zero)
80004750:	800032c4 	lb	zero,12996(zero)
80004754:	800032c4 	lb	zero,12996(zero)
80004758:	800032c4 	lb	zero,12996(zero)
8000475c:	800032c4 	lb	zero,12996(zero)
80004760:	800032c4 	lb	zero,12996(zero)
80004764:	80003328 	lb	zero,13096(zero)
80004768:	80003328 	lb	zero,13096(zero)
8000476c:	80003328 	lb	zero,13096(zero)
80004770:	80003328 	lb	zero,13096(zero)
80004774:	80003328 	lb	zero,13096(zero)
80004778:	80003328 	lb	zero,13096(zero)
8000477c:	80003328 	lb	zero,13096(zero)
80004780:	80003328 	lb	zero,13096(zero)
80004784:	80003328 	lb	zero,13096(zero)
80004788:	80003328 	lb	zero,13096(zero)
8000478c:	80003328 	lb	zero,13096(zero)
80004790:	80003328 	lb	zero,13096(zero)
80004794:	80003328 	lb	zero,13096(zero)
80004798:	80003328 	lb	zero,13096(zero)
8000479c:	80003328 	lb	zero,13096(zero)
800047a0:	80003328 	lb	zero,13096(zero)
800047a4:	80003328 	lb	zero,13096(zero)
800047a8:	80003328 	lb	zero,13096(zero)
800047ac:	80003328 	lb	zero,13096(zero)
800047b0:	80003328 	lb	zero,13096(zero)
800047b4:	80003328 	lb	zero,13096(zero)
800047b8:	80003328 	lb	zero,13096(zero)
800047bc:	80003328 	lb	zero,13096(zero)
800047c0:	80003328 	lb	zero,13096(zero)
800047c4:	80003328 	lb	zero,13096(zero)
800047c8:	80003328 	lb	zero,13096(zero)
800047cc:	80003328 	lb	zero,13096(zero)
800047d0:	80003328 	lb	zero,13096(zero)
800047d4:	80003328 	lb	zero,13096(zero)
800047d8:	80003328 	lb	zero,13096(zero)
800047dc:	80003328 	lb	zero,13096(zero)
800047e0:	80003328 	lb	zero,13096(zero)
800047e4:	80003328 	lb	zero,13096(zero)
800047e8:	80003328 	lb	zero,13096(zero)
800047ec:	80003328 	lb	zero,13096(zero)
800047f0:	80003328 	lb	zero,13096(zero)
800047f4:	80003328 	lb	zero,13096(zero)
800047f8:	80003328 	lb	zero,13096(zero)
800047fc:	80003328 	lb	zero,13096(zero)
80004800:	80003328 	lb	zero,13096(zero)
80004804:	8000343c 	lb	zero,13372(zero)
80004808:	80003420 	lb	zero,13344(zero)
8000480c:	800033fc 	lb	zero,13308(zero)
80004810:	80003328 	lb	zero,13096(zero)
80004814:	80003328 	lb	zero,13096(zero)
80004818:	80003328 	lb	zero,13096(zero)
8000481c:	80003328 	lb	zero,13096(zero)
80004820:	80003328 	lb	zero,13096(zero)
80004824:	80003328 	lb	zero,13096(zero)
80004828:	80003328 	lb	zero,13096(zero)
8000482c:	800033d8 	lb	zero,13272(zero)
80004830:	80003328 	lb	zero,13096(zero)
80004834:	80003328 	lb	zero,13096(zero)
80004838:	800033b4 	lb	zero,13236(zero)
8000483c:	80003390 	lb	zero,13200(zero)
80004840:	80003328 	lb	zero,13096(zero)
80004844:	80003328 	lb	zero,13096(zero)
80004848:	80003374 	lb	zero,13172(zero)
8000484c:	80003328 	lb	zero,13096(zero)
80004850:	80003350 	lb	zero,13136(zero)
80004854:	80003328 	lb	zero,13096(zero)
80004858:	80003328 	lb	zero,13096(zero)
8000485c:	80003390 	lb	zero,13200(zero)
80004860:	636f6c63 	0x636f6c63
80004864:	736e206b 	0x736e206b
80004868:	2c64253d 	sltiu	a0,v1,9533
8000486c:	3d636573 	0x3d636573
80004870:	000a6425 	0xa6425
80004874:	72656854 	0x72656854
80004878:	73692065 	0x73692065
8000487c:	206e6120 	addi	t6,v1,24864
80004880:	65637865 	0x65637865
80004884:	6f697470 	0x6f697470
80004888:	0a21216e 	j	888485b8 <_stack+0x87435d8>
8000488c:	00000000 	nop
80004890:	20656854 	addi	a1,v1,26708
80004894:	20637065 	addi	v1,v1,28773
80004898:	25207369 	addiu	zero,t1,29545
8000489c:	00000a78 	0xa78
800048a0:	20656854 	addi	a1,v1,26708
800048a4:	73756163 	0x73756163
800048a8:	73692065 	0x73692065
800048ac:	0a782520 	j	89e09480 <_stack+0x9d044a0>
800048b0:	00000000 	nop
800048b4:	b0000702 	0xb0000702
	...
800048d0:	00010000 	sll	zero,at,0x0
800048d4:	03000001 	0x3000001
	...
